ARM GAS  C:\Users\SF\AppData\Local\Temp\ccFGOSN0.s 			page 1


   1              		.cpu cortex-m4
   2              		.arch armv7e-m
   3              		.fpu fpv4-sp-d16
   4              		.eabi_attribute 27, 1
   5              		.eabi_attribute 28, 1
   6              		.eabi_attribute 20, 1
   7              		.eabi_attribute 21, 1
   8              		.eabi_attribute 23, 3
   9              		.eabi_attribute 24, 1
  10              		.eabi_attribute 25, 1
  11              		.eabi_attribute 26, 1
  12              		.eabi_attribute 30, 1
  13              		.eabi_attribute 34, 1
  14              		.eabi_attribute 18, 4
  15              		.file	"lsm303agr_reg.c"
  16              		.text
  17              	.Ltext0:
  18              		.cfi_sections	.debug_frame
  19              		.section	.text.lsm303agr_write,"ax",%progbits
  20              		.align	1
  21              		.global	lsm303agr_write
  22              		.syntax unified
  23              		.thumb
  24              		.thumb_func
  26              	lsm303agr_write:
  27              	.LVL0:
  28              	.LFB130:
  29              		.file 1 "Drivers/lsm303agr/Src/lsm303agr_reg.c"
   1:Drivers/lsm303agr/Src/lsm303agr_reg.c **** /**
   2:Drivers/lsm303agr/Src/lsm303agr_reg.c ****   ******************************************************************************
   3:Drivers/lsm303agr/Src/lsm303agr_reg.c ****   * @file    lsm303agr_reg.c
   4:Drivers/lsm303agr/Src/lsm303agr_reg.c ****   * @author  Sensors Software Solution Team
   5:Drivers/lsm303agr/Src/lsm303agr_reg.c ****   * @brief   LSM303AGR driver file
   6:Drivers/lsm303agr/Src/lsm303agr_reg.c ****   ******************************************************************************
   7:Drivers/lsm303agr/Src/lsm303agr_reg.c ****   * @attention
   8:Drivers/lsm303agr/Src/lsm303agr_reg.c ****   *
   9:Drivers/lsm303agr/Src/lsm303agr_reg.c ****   * <h2><center>&copy; Copyright (c) 2021 STMicroelectronics.
  10:Drivers/lsm303agr/Src/lsm303agr_reg.c ****   * All rights reserved.</center></h2>
  11:Drivers/lsm303agr/Src/lsm303agr_reg.c ****   *
  12:Drivers/lsm303agr/Src/lsm303agr_reg.c ****   * This software component is licensed by ST under BSD 3-Clause license,
  13:Drivers/lsm303agr/Src/lsm303agr_reg.c ****   * the "License"; You may not use this file except in compliance with the
  14:Drivers/lsm303agr/Src/lsm303agr_reg.c ****   * License. You may obtain a copy of the License at:
  15:Drivers/lsm303agr/Src/lsm303agr_reg.c ****   *                        opensource.org/licenses/BSD-3-Clause
  16:Drivers/lsm303agr/Src/lsm303agr_reg.c ****   *
  17:Drivers/lsm303agr/Src/lsm303agr_reg.c ****   ******************************************************************************
  18:Drivers/lsm303agr/Src/lsm303agr_reg.c ****   */
  19:Drivers/lsm303agr/Src/lsm303agr_reg.c **** 
  20:Drivers/lsm303agr/Src/lsm303agr_reg.c **** #include "lsm303agr_reg.h"
  21:Drivers/lsm303agr/Src/lsm303agr_reg.c **** #include "main.h"
  22:Drivers/lsm303agr/Src/lsm303agr_reg.c **** 
  23:Drivers/lsm303agr/Src/lsm303agr_reg.c **** #define SENSOR_BUS 		hi2c1
  24:Drivers/lsm303agr/Src/lsm303agr_reg.c **** 
  25:Drivers/lsm303agr/Src/lsm303agr_reg.c **** /**
  26:Drivers/lsm303agr/Src/lsm303agr_reg.c ****   * @defgroup  LSM303AGR
  27:Drivers/lsm303agr/Src/lsm303agr_reg.c ****   * @brief     This file provides a set of functions needed to drive the
  28:Drivers/lsm303agr/Src/lsm303agr_reg.c ****   *            lsm303agr enhanced inertial module.
  29:Drivers/lsm303agr/Src/lsm303agr_reg.c ****   * @{
ARM GAS  C:\Users\SF\AppData\Local\Temp\ccFGOSN0.s 			page 2


  30:Drivers/lsm303agr/Src/lsm303agr_reg.c ****   *
  31:Drivers/lsm303agr/Src/lsm303agr_reg.c ****   */
  32:Drivers/lsm303agr/Src/lsm303agr_reg.c **** 
  33:Drivers/lsm303agr/Src/lsm303agr_reg.c **** /**
  34:Drivers/lsm303agr/Src/lsm303agr_reg.c ****   * @defgroup  LSM303AGR_Interfaces_Functions
  35:Drivers/lsm303agr/Src/lsm303agr_reg.c ****   * @brief     This section provide a set of functions used to read and
  36:Drivers/lsm303agr/Src/lsm303agr_reg.c ****   *            write a generic register of the device.
  37:Drivers/lsm303agr/Src/lsm303agr_reg.c ****   *            MANDATORY: return 0 -> no Error.
  38:Drivers/lsm303agr/Src/lsm303agr_reg.c ****   * @{
  39:Drivers/lsm303agr/Src/lsm303agr_reg.c ****   *
  40:Drivers/lsm303agr/Src/lsm303agr_reg.c ****   */
  41:Drivers/lsm303agr/Src/lsm303agr_reg.c **** 
  42:Drivers/lsm303agr/Src/lsm303agr_reg.c **** 
  43:Drivers/lsm303agr/Src/lsm303agr_reg.c **** extern I2C_HandleTypeDef hi2c1;
  44:Drivers/lsm303agr/Src/lsm303agr_reg.c **** 
  45:Drivers/lsm303agr/Src/lsm303agr_reg.c **** //static int16_t delta_magnetic[3] = {150, -4, -19};
  46:Drivers/lsm303agr/Src/lsm303agr_reg.c **** //float soft_magnetic_x [3] = {0.991292886650774f,	0.0104962442835640f,	-0.0153604594275310f};
  47:Drivers/lsm303agr/Src/lsm303agr_reg.c **** //float soft_magnetic_y [3] = {0.0104962442835640f,	1.03090334809659f,	-0.0174301777890350f};
  48:Drivers/lsm303agr/Src/lsm303agr_reg.c **** //float soft_magnetic_z [3] = {-0.0153604594275310f,	-0.0174301777890350f,	0.979176110341840f};
  49:Drivers/lsm303agr/Src/lsm303agr_reg.c **** 
  50:Drivers/lsm303agr/Src/lsm303agr_reg.c **** static int16_t delta_magnetic[3] = {0, 0, 	0};
  51:Drivers/lsm303agr/Src/lsm303agr_reg.c **** float soft_magnetic_x [3] = {1.0f,	0.0f,	0.0f};
  52:Drivers/lsm303agr/Src/lsm303agr_reg.c **** float soft_magnetic_y [3] = {0.0f,	1.0f,	0.0f};
  53:Drivers/lsm303agr/Src/lsm303agr_reg.c **** float soft_magnetic_z [3] = {0.0f,	0.0f,	1.0f};
  54:Drivers/lsm303agr/Src/lsm303agr_reg.c **** 
  55:Drivers/lsm303agr/Src/lsm303agr_reg.c **** int16_t raw_acceleration[3] = {0, 0, 0};
  56:Drivers/lsm303agr/Src/lsm303agr_reg.c **** 
  57:Drivers/lsm303agr/Src/lsm303agr_reg.c **** static sensbus_t xl_bus  = {&hi2c1,
  58:Drivers/lsm303agr/Src/lsm303agr_reg.c ****                             LSM303AGR_I2C_ADD_XL,
  59:Drivers/lsm303agr/Src/lsm303agr_reg.c ****                             0,
  60:Drivers/lsm303agr/Src/lsm303agr_reg.c ****                             0
  61:Drivers/lsm303agr/Src/lsm303agr_reg.c ****                            };
  62:Drivers/lsm303agr/Src/lsm303agr_reg.c **** 
  63:Drivers/lsm303agr/Src/lsm303agr_reg.c **** static sensbus_t mag_bus = {&hi2c1,
  64:Drivers/lsm303agr/Src/lsm303agr_reg.c ****                             LSM303AGR_I2C_ADD_MG,
  65:Drivers/lsm303agr/Src/lsm303agr_reg.c ****                             0,
  66:Drivers/lsm303agr/Src/lsm303agr_reg.c ****                             0
  67:Drivers/lsm303agr/Src/lsm303agr_reg.c ****                            };
  68:Drivers/lsm303agr/Src/lsm303agr_reg.c **** 
  69:Drivers/lsm303agr/Src/lsm303agr_reg.c **** 
  70:Drivers/lsm303agr/Src/lsm303agr_reg.c **** void lsm303agr_write(void *handle, uint8_t reg, const uint8_t *bufp,
  71:Drivers/lsm303agr/Src/lsm303agr_reg.c ****         uint16_t len) {
  30              		.loc 1 71 23 view -0
  31              		.cfi_startproc
  32              		@ args = 0, pretend = 0, frame = 0
  33              		@ frame_needed = 0, uses_anonymous_args = 0
  34              		.loc 1 71 23 is_stmt 0 view .LVU1
  35 0000 10B5     		push	{r4, lr}
  36              	.LCFI0:
  37              		.cfi_def_cfa_offset 8
  38              		.cfi_offset 4, -8
  39              		.cfi_offset 14, -4
  40 0002 84B0     		sub	sp, sp, #16
  41              	.LCFI1:
  42              		.cfi_def_cfa_offset 24
  43 0004 8C46     		mov	ip, r1
  72:Drivers/lsm303agr/Src/lsm303agr_reg.c **** 	  sensbus_t *sensbus = (sensbus_t *)handle;
ARM GAS  C:\Users\SF\AppData\Local\Temp\ccFGOSN0.s 			page 3


  44              		.loc 1 72 4 is_stmt 1 view .LVU2
  45              	.LVL1:
  73:Drivers/lsm303agr/Src/lsm303agr_reg.c **** 
  74:Drivers/lsm303agr/Src/lsm303agr_reg.c **** 	  if (sensbus->i2c_address == LSM303AGR_I2C_ADD_XL) {
  46              		.loc 1 74 4 view .LVU3
  47              		.loc 1 74 15 is_stmt 0 view .LVU4
  48 0006 0179     		ldrb	r1, [r0, #4]	@ zero_extendqisi2
  49              	.LVL2:
  50              		.loc 1 74 7 view .LVU5
  51 0008 3329     		cmp	r1, #51
  52 000a 0BD0     		beq	.L4
  53              	.LVL3:
  54              	.L2:
  75:Drivers/lsm303agr/Src/lsm303agr_reg.c **** 	    /* enable auto incremented in multiple read/write commands */
  76:Drivers/lsm303agr/Src/lsm303agr_reg.c **** 	    reg |= 0x80;
  77:Drivers/lsm303agr/Src/lsm303agr_reg.c **** 	  }
  78:Drivers/lsm303agr/Src/lsm303agr_reg.c **** 
  79:Drivers/lsm303agr/Src/lsm303agr_reg.c **** 	  HAL_I2C_Mem_Write(sensbus->hbus, sensbus->i2c_address, reg,
  55              		.loc 1 79 4 is_stmt 1 view .LVU6
  56 000c 42F21074 		movw	r4, #10000
  57 0010 0294     		str	r4, [sp, #8]
  58 0012 0193     		str	r3, [sp, #4]
  59 0014 0092     		str	r2, [sp]
  60 0016 0123     		movs	r3, #1
  61              	.LVL4:
  62              		.loc 1 79 4 is_stmt 0 view .LVU7
  63 0018 6246     		mov	r2, ip
  64              	.LVL5:
  65              		.loc 1 79 4 view .LVU8
  66 001a 0068     		ldr	r0, [r0]
  67              	.LVL6:
  68              		.loc 1 79 4 view .LVU9
  69 001c FFF7FEFF 		bl	HAL_I2C_Mem_Write
  70              	.LVL7:
  80:Drivers/lsm303agr/Src/lsm303agr_reg.c **** 	                    I2C_MEMADD_SIZE_8BIT, (uint8_t*) bufp, len, 10000);
  81:Drivers/lsm303agr/Src/lsm303agr_reg.c **** 	  return 0;
  71              		.loc 1 81 4 is_stmt 1 view .LVU10
  82:Drivers/lsm303agr/Src/lsm303agr_reg.c **** }
  72              		.loc 1 82 1 is_stmt 0 view .LVU11
  73 0020 04B0     		add	sp, sp, #16
  74              	.LCFI2:
  75              		.cfi_remember_state
  76              		.cfi_def_cfa_offset 8
  77              		@ sp needed
  78 0022 10BD     		pop	{r4, pc}
  79              	.LVL8:
  80              	.L4:
  81              	.LCFI3:
  82              		.cfi_restore_state
  76:Drivers/lsm303agr/Src/lsm303agr_reg.c **** 	  }
  83              		.loc 1 76 6 is_stmt 1 view .LVU12
  76:Drivers/lsm303agr/Src/lsm303agr_reg.c **** 	  }
  84              		.loc 1 76 10 is_stmt 0 view .LVU13
  85 0024 4CF0800C 		orr	ip, ip, #128
  86              	.LVL9:
  76:Drivers/lsm303agr/Src/lsm303agr_reg.c **** 	  }
  87              		.loc 1 76 10 view .LVU14
ARM GAS  C:\Users\SF\AppData\Local\Temp\ccFGOSN0.s 			page 4


  88 0028 F0E7     		b	.L2
  89              		.cfi_endproc
  90              	.LFE130:
  92              		.section	.text.lsm303agr_read,"ax",%progbits
  93              		.align	1
  94              		.global	lsm303agr_read
  95              		.syntax unified
  96              		.thumb
  97              		.thumb_func
  99              	lsm303agr_read:
 100              	.LVL10:
 101              	.LFB131:
  83:Drivers/lsm303agr/Src/lsm303agr_reg.c **** 
  84:Drivers/lsm303agr/Src/lsm303agr_reg.c **** void lsm303agr_read(void *handle, uint8_t reg, uint8_t *bufp,
  85:Drivers/lsm303agr/Src/lsm303agr_reg.c ****         uint16_t len) {
 102              		.loc 1 85 23 is_stmt 1 view -0
 103              		.cfi_startproc
 104              		@ args = 0, pretend = 0, frame = 0
 105              		@ frame_needed = 0, uses_anonymous_args = 0
 106              		.loc 1 85 23 is_stmt 0 view .LVU16
 107 0000 10B5     		push	{r4, lr}
 108              	.LCFI4:
 109              		.cfi_def_cfa_offset 8
 110              		.cfi_offset 4, -8
 111              		.cfi_offset 14, -4
 112 0002 84B0     		sub	sp, sp, #16
 113              	.LCFI5:
 114              		.cfi_def_cfa_offset 24
 115 0004 8C46     		mov	ip, r1
  86:Drivers/lsm303agr/Src/lsm303agr_reg.c **** 	  sensbus_t *sensbus = (sensbus_t *)handle;
 116              		.loc 1 86 4 is_stmt 1 view .LVU17
 117              	.LVL11:
  87:Drivers/lsm303agr/Src/lsm303agr_reg.c **** 
  88:Drivers/lsm303agr/Src/lsm303agr_reg.c **** 	  if (sensbus->i2c_address == LSM303AGR_I2C_ADD_XL) {
 118              		.loc 1 88 4 view .LVU18
 119              		.loc 1 88 15 is_stmt 0 view .LVU19
 120 0006 0179     		ldrb	r1, [r0, #4]	@ zero_extendqisi2
 121              	.LVL12:
 122              		.loc 1 88 7 view .LVU20
 123 0008 3329     		cmp	r1, #51
 124 000a 0BD0     		beq	.L8
 125              	.LVL13:
 126              	.L6:
  89:Drivers/lsm303agr/Src/lsm303agr_reg.c **** 	    /* enable auto incremented in multiple read/write commands */
  90:Drivers/lsm303agr/Src/lsm303agr_reg.c **** 	    reg |= 0x80;
  91:Drivers/lsm303agr/Src/lsm303agr_reg.c **** 	  }
  92:Drivers/lsm303agr/Src/lsm303agr_reg.c **** 
  93:Drivers/lsm303agr/Src/lsm303agr_reg.c **** 	  HAL_I2C_Mem_Read(sensbus->hbus, sensbus->i2c_address, reg,
 127              		.loc 1 93 4 is_stmt 1 view .LVU21
 128 000c 42F21074 		movw	r4, #10000
 129 0010 0294     		str	r4, [sp, #8]
 130 0012 0193     		str	r3, [sp, #4]
 131 0014 0092     		str	r2, [sp]
 132 0016 0123     		movs	r3, #1
 133              	.LVL14:
 134              		.loc 1 93 4 is_stmt 0 view .LVU22
 135 0018 6246     		mov	r2, ip
ARM GAS  C:\Users\SF\AppData\Local\Temp\ccFGOSN0.s 			page 5


 136              	.LVL15:
 137              		.loc 1 93 4 view .LVU23
 138 001a 0068     		ldr	r0, [r0]
 139              	.LVL16:
 140              		.loc 1 93 4 view .LVU24
 141 001c FFF7FEFF 		bl	HAL_I2C_Mem_Read
 142              	.LVL17:
  94:Drivers/lsm303agr/Src/lsm303agr_reg.c **** 	                   I2C_MEMADD_SIZE_8BIT, bufp, len, 10000);
  95:Drivers/lsm303agr/Src/lsm303agr_reg.c **** 	  return 0;
 143              		.loc 1 95 4 is_stmt 1 view .LVU25
  96:Drivers/lsm303agr/Src/lsm303agr_reg.c **** }
 144              		.loc 1 96 1 is_stmt 0 view .LVU26
 145 0020 04B0     		add	sp, sp, #16
 146              	.LCFI6:
 147              		.cfi_remember_state
 148              		.cfi_def_cfa_offset 8
 149              		@ sp needed
 150 0022 10BD     		pop	{r4, pc}
 151              	.LVL18:
 152              	.L8:
 153              	.LCFI7:
 154              		.cfi_restore_state
  90:Drivers/lsm303agr/Src/lsm303agr_reg.c **** 	  }
 155              		.loc 1 90 6 is_stmt 1 view .LVU27
  90:Drivers/lsm303agr/Src/lsm303agr_reg.c **** 	  }
 156              		.loc 1 90 10 is_stmt 0 view .LVU28
 157 0024 4CF0800C 		orr	ip, ip, #128
 158              	.LVL19:
  90:Drivers/lsm303agr/Src/lsm303agr_reg.c **** 	  }
 159              		.loc 1 90 10 view .LVU29
 160 0028 F0E7     		b	.L6
 161              		.cfi_endproc
 162              	.LFE131:
 164              		.section	.text.lsm303agr_unlock_I2C_bus,"ax",%progbits
 165              		.align	1
 166              		.global	lsm303agr_unlock_I2C_bus
 167              		.syntax unified
 168              		.thumb
 169              		.thumb_func
 171              	lsm303agr_unlock_I2C_bus:
 172              	.LVL20:
 173              	.LFB132:
  97:Drivers/lsm303agr/Src/lsm303agr_reg.c **** 
  98:Drivers/lsm303agr/Src/lsm303agr_reg.c **** void lsm303agr_unlock_I2C_bus(stmdev_ctx_t *ctx) {
 174              		.loc 1 98 50 is_stmt 1 view -0
 175              		.cfi_startproc
 176              		@ args = 0, pretend = 0, frame = 0
 177              		@ frame_needed = 0, uses_anonymous_args = 0
 178              		.loc 1 98 50 is_stmt 0 view .LVU31
 179 0000 10B5     		push	{r4, lr}
 180              	.LCFI8:
 181              		.cfi_def_cfa_offset 8
 182              		.cfi_offset 4, -8
 183              		.cfi_offset 14, -4
  99:Drivers/lsm303agr/Src/lsm303agr_reg.c **** 	I2C1->CR1 &= ~(I2C_CR1_PE);
 184              		.loc 1 99 2 is_stmt 1 view .LVU32
 185              		.loc 1 99 12 is_stmt 0 view .LVU33
ARM GAS  C:\Users\SF\AppData\Local\Temp\ccFGOSN0.s 			page 6


 186 0002 2F4A     		ldr	r2, .L13
 187 0004 1368     		ldr	r3, [r2]
 188 0006 23F00103 		bic	r3, r3, #1
 189 000a 1360     		str	r3, [r2]
 100:Drivers/lsm303agr/Src/lsm303agr_reg.c **** 	GPIOB->MODER &= ~(1 << 13 | 1 << 19);
 190              		.loc 1 100 2 is_stmt 1 view .LVU34
 191              		.loc 1 100 15 is_stmt 0 view .LVU35
 192 000c 2D4C     		ldr	r4, .L13+4
 193 000e 2368     		ldr	r3, [r4]
 194 0010 23F40223 		bic	r3, r3, #532480
 195 0014 2360     		str	r3, [r4]
 101:Drivers/lsm303agr/Src/lsm303agr_reg.c **** 	GPIOB->MODER |= (1 << 12 | 1 << 18);
 196              		.loc 1 101 2 is_stmt 1 view .LVU36
 197              		.loc 1 101 15 is_stmt 0 view .LVU37
 198 0016 2368     		ldr	r3, [r4]
 199 0018 43F48223 		orr	r3, r3, #266240
 200 001c 2360     		str	r3, [r4]
 102:Drivers/lsm303agr/Src/lsm303agr_reg.c **** 	GPIOB->OTYPER |= (1 << 9)| ( 1 << 6);
 201              		.loc 1 102 2 is_stmt 1 view .LVU38
 202              		.loc 1 102 16 is_stmt 0 view .LVU39
 203 001e 6368     		ldr	r3, [r4, #4]
 204 0020 43F41073 		orr	r3, r3, #576
 205 0024 6360     		str	r3, [r4, #4]
 103:Drivers/lsm303agr/Src/lsm303agr_reg.c **** 
 104:Drivers/lsm303agr/Src/lsm303agr_reg.c **** 	ctx->mdelay(100);
 206              		.loc 1 104 2 is_stmt 1 view .LVU40
 207              		.loc 1 104 5 is_stmt 0 view .LVU41
 208 0026 C368     		ldr	r3, [r0, #12]
 209              		.loc 1 104 2 view .LVU42
 210 0028 6420     		movs	r0, #100
 211              	.LVL21:
 212              		.loc 1 104 2 view .LVU43
 213 002a 9847     		blx	r3
 214              	.LVL22:
 105:Drivers/lsm303agr/Src/lsm303agr_reg.c **** 
 106:Drivers/lsm303agr/Src/lsm303agr_reg.c ****     GPIOB->ODR |= (1 << 6) | (1 << 9);
 215              		.loc 1 106 5 is_stmt 1 view .LVU44
 216              		.loc 1 106 16 is_stmt 0 view .LVU45
 217 002c 6369     		ldr	r3, [r4, #20]
 218 002e 43F41073 		orr	r3, r3, #576
 219 0032 6361     		str	r3, [r4, #20]
 107:Drivers/lsm303agr/Src/lsm303agr_reg.c ****     if (HAL_GPIO_ReadPin(GPIOB, GPIO_PIN_6) == GPIO_PIN_RESET || HAL_GPIO_ReadPin(GPIOB, GPIO_PIN_6
 220              		.loc 1 107 5 is_stmt 1 view .LVU46
 221              		.loc 1 107 9 is_stmt 0 view .LVU47
 222 0034 4021     		movs	r1, #64
 223 0036 2046     		mov	r0, r4
 224 0038 FFF7FEFF 		bl	HAL_GPIO_ReadPin
 225              	.LVL23:
 226              		.loc 1 107 8 view .LVU48
 227 003c 0028     		cmp	r0, #0
 228 003e 3AD1     		bne	.L12
 229              	.L10:
 108:Drivers/lsm303agr/Src/lsm303agr_reg.c ****     }
 230              		.loc 1 108 5 is_stmt 1 view .LVU49
 109:Drivers/lsm303agr/Src/lsm303agr_reg.c **** 
 110:Drivers/lsm303agr/Src/lsm303agr_reg.c **** 	  GPIOB->ODR &= ~(1 << 9);
 231              		.loc 1 110 4 view .LVU50
ARM GAS  C:\Users\SF\AppData\Local\Temp\ccFGOSN0.s 			page 7


 232              		.loc 1 110 15 is_stmt 0 view .LVU51
 233 0040 204C     		ldr	r4, .L13+4
 234 0042 6369     		ldr	r3, [r4, #20]
 235 0044 23F40073 		bic	r3, r3, #512
 236 0048 6361     		str	r3, [r4, #20]
 111:Drivers/lsm303agr/Src/lsm303agr_reg.c ****     if(HAL_GPIO_ReadPin(GPIOB, GPIO_PIN_9) == GPIO_PIN_SET)
 237              		.loc 1 111 5 is_stmt 1 view .LVU52
 238              		.loc 1 111 8 is_stmt 0 view .LVU53
 239 004a 4FF40071 		mov	r1, #512
 240 004e 2046     		mov	r0, r4
 241 0050 FFF7FEFF 		bl	HAL_GPIO_ReadPin
 242              	.LVL24:
 112:Drivers/lsm303agr/Src/lsm303agr_reg.c ****     {
 113:Drivers/lsm303agr/Src/lsm303agr_reg.c ****     }
 243              		.loc 1 113 5 is_stmt 1 view .LVU54
 114:Drivers/lsm303agr/Src/lsm303agr_reg.c **** 
 115:Drivers/lsm303agr/Src/lsm303agr_reg.c ****     GPIOB->ODR &= ~(1 << 6);
 244              		.loc 1 115 5 view .LVU55
 245              		.loc 1 115 16 is_stmt 0 view .LVU56
 246 0054 6369     		ldr	r3, [r4, #20]
 247 0056 23F04003 		bic	r3, r3, #64
 248 005a 6361     		str	r3, [r4, #20]
 116:Drivers/lsm303agr/Src/lsm303agr_reg.c **** 
 117:Drivers/lsm303agr/Src/lsm303agr_reg.c ****     if(HAL_GPIO_ReadPin(GPIOB, GPIO_PIN_6) == GPIO_PIN_SET)
 249              		.loc 1 117 5 is_stmt 1 view .LVU57
 250              		.loc 1 117 8 is_stmt 0 view .LVU58
 251 005c 4021     		movs	r1, #64
 252 005e 2046     		mov	r0, r4
 253 0060 FFF7FEFF 		bl	HAL_GPIO_ReadPin
 254              	.LVL25:
 118:Drivers/lsm303agr/Src/lsm303agr_reg.c ****     {
 119:Drivers/lsm303agr/Src/lsm303agr_reg.c ****     }
 255              		.loc 1 119 5 is_stmt 1 view .LVU59
 120:Drivers/lsm303agr/Src/lsm303agr_reg.c **** 
 121:Drivers/lsm303agr/Src/lsm303agr_reg.c ****     GPIOB->ODR |= (1 << 6);
 256              		.loc 1 121 5 view .LVU60
 257              		.loc 1 121 16 is_stmt 0 view .LVU61
 258 0064 6369     		ldr	r3, [r4, #20]
 259 0066 43F04003 		orr	r3, r3, #64
 260 006a 6361     		str	r3, [r4, #20]
 122:Drivers/lsm303agr/Src/lsm303agr_reg.c ****     if (HAL_GPIO_ReadPin(GPIOB, GPIO_PIN_6) == GPIO_PIN_RESET) {
 261              		.loc 1 122 5 is_stmt 1 view .LVU62
 262              		.loc 1 122 9 is_stmt 0 view .LVU63
 263 006c 4021     		movs	r1, #64
 264 006e 2046     		mov	r0, r4
 265 0070 FFF7FEFF 		bl	HAL_GPIO_ReadPin
 266              	.LVL26:
 123:Drivers/lsm303agr/Src/lsm303agr_reg.c ****     }
 267              		.loc 1 123 5 is_stmt 1 view .LVU64
 124:Drivers/lsm303agr/Src/lsm303agr_reg.c **** 
 125:Drivers/lsm303agr/Src/lsm303agr_reg.c **** 	GPIOB->ODR |= (1 << 9);
 268              		.loc 1 125 2 view .LVU65
 269              		.loc 1 125 13 is_stmt 0 view .LVU66
 270 0074 6369     		ldr	r3, [r4, #20]
 271 0076 43F40073 		orr	r3, r3, #512
 272 007a 6361     		str	r3, [r4, #20]
 126:Drivers/lsm303agr/Src/lsm303agr_reg.c ****     if(HAL_GPIO_ReadPin(GPIOB, GPIO_PIN_9) == GPIO_PIN_RESET)
ARM GAS  C:\Users\SF\AppData\Local\Temp\ccFGOSN0.s 			page 8


 273              		.loc 1 126 5 is_stmt 1 view .LVU67
 274              		.loc 1 126 8 is_stmt 0 view .LVU68
 275 007c 4FF40071 		mov	r1, #512
 276 0080 2046     		mov	r0, r4
 277 0082 FFF7FEFF 		bl	HAL_GPIO_ReadPin
 278              	.LVL27:
 127:Drivers/lsm303agr/Src/lsm303agr_reg.c ****     {
 128:Drivers/lsm303agr/Src/lsm303agr_reg.c ****     }
 279              		.loc 1 128 5 is_stmt 1 view .LVU69
 129:Drivers/lsm303agr/Src/lsm303agr_reg.c **** 
 130:Drivers/lsm303agr/Src/lsm303agr_reg.c **** 	GPIOB->MODER &= ~(1 << 12 | 1 << 18);
 280              		.loc 1 130 2 view .LVU70
 281              		.loc 1 130 15 is_stmt 0 view .LVU71
 282 0086 2368     		ldr	r3, [r4]
 283 0088 23F48223 		bic	r3, r3, #266240
 284 008c 2360     		str	r3, [r4]
 131:Drivers/lsm303agr/Src/lsm303agr_reg.c **** 	GPIOB->MODER |= (1 << 13 | 1 << 19);
 285              		.loc 1 131 2 is_stmt 1 view .LVU72
 286              		.loc 1 131 15 is_stmt 0 view .LVU73
 287 008e 2368     		ldr	r3, [r4]
 288 0090 43F40223 		orr	r3, r3, #532480
 289 0094 2360     		str	r3, [r4]
 132:Drivers/lsm303agr/Src/lsm303agr_reg.c **** 
 133:Drivers/lsm303agr/Src/lsm303agr_reg.c ****     I2C1->CR1 |= I2C_CR1_SWRST;
 290              		.loc 1 133 5 is_stmt 1 view .LVU74
 291              		.loc 1 133 15 is_stmt 0 view .LVU75
 292 0096 0A4B     		ldr	r3, .L13
 293 0098 1A68     		ldr	r2, [r3]
 294 009a 42F40042 		orr	r2, r2, #32768
 295 009e 1A60     		str	r2, [r3]
 134:Drivers/lsm303agr/Src/lsm303agr_reg.c **** 	I2C1->CR1 &= ~(I2C_CR1_SWRST);
 296              		.loc 1 134 2 is_stmt 1 view .LVU76
 297              		.loc 1 134 12 is_stmt 0 view .LVU77
 298 00a0 1A68     		ldr	r2, [r3]
 299 00a2 22F40042 		bic	r2, r2, #32768
 300 00a6 1A60     		str	r2, [r3]
 135:Drivers/lsm303agr/Src/lsm303agr_reg.c **** 	I2C1->CR1 |= I2C_CR1_PE;
 301              		.loc 1 135 2 is_stmt 1 view .LVU78
 302              		.loc 1 135 12 is_stmt 0 view .LVU79
 303 00a8 1A68     		ldr	r2, [r3]
 304 00aa 42F00102 		orr	r2, r2, #1
 305 00ae 1A60     		str	r2, [r3]
 136:Drivers/lsm303agr/Src/lsm303agr_reg.c **** 
 137:Drivers/lsm303agr/Src/lsm303agr_reg.c **** 	MX_I2C1_Init();
 306              		.loc 1 137 2 is_stmt 1 view .LVU80
 307 00b0 FFF7FEFF 		bl	MX_I2C1_Init
 308              	.LVL28:
 138:Drivers/lsm303agr/Src/lsm303agr_reg.c **** }
 309              		.loc 1 138 1 is_stmt 0 view .LVU81
 310 00b4 10BD     		pop	{r4, pc}
 311              	.L12:
 107:Drivers/lsm303agr/Src/lsm303agr_reg.c ****     }
 312              		.loc 1 107 66 discriminator 1 view .LVU82
 313 00b6 4021     		movs	r1, #64
 314 00b8 2046     		mov	r0, r4
 315 00ba FFF7FEFF 		bl	HAL_GPIO_ReadPin
 316              	.LVL29:
ARM GAS  C:\Users\SF\AppData\Local\Temp\ccFGOSN0.s 			page 9


 317 00be BFE7     		b	.L10
 318              	.L14:
 319              		.align	2
 320              	.L13:
 321 00c0 00540040 		.word	1073763328
 322 00c4 00040240 		.word	1073873920
 323              		.cfi_endproc
 324              	.LFE132:
 326              		.section	.text.lsm303agr_read_reg,"ax",%progbits
 327              		.align	1
 328              		.global	lsm303agr_read_reg
 329              		.syntax unified
 330              		.thumb
 331              		.thumb_func
 333              	lsm303agr_read_reg:
 334              	.LVL30:
 335              	.LFB138:
 139:Drivers/lsm303agr/Src/lsm303agr_reg.c **** 
 140:Drivers/lsm303agr/Src/lsm303agr_reg.c **** void lsm303agr_init(stmdev_ctx_t *ctx_xl, stmdev_ctx_t *ctx_mag) {
 141:Drivers/lsm303agr/Src/lsm303agr_reg.c **** 	  ctx_xl->write_reg = lsm303agr_write;
 142:Drivers/lsm303agr/Src/lsm303agr_reg.c **** 	  ctx_xl->read_reg = lsm303agr_read;
 143:Drivers/lsm303agr/Src/lsm303agr_reg.c **** 	  ctx_xl->handle = (void *)&xl_bus;
 144:Drivers/lsm303agr/Src/lsm303agr_reg.c **** 	  ctx_xl->mdelay = HAL_Delay;
 145:Drivers/lsm303agr/Src/lsm303agr_reg.c **** 	  ctx_xl->munlock = lsm303agr_unlock_I2C_bus;
 146:Drivers/lsm303agr/Src/lsm303agr_reg.c **** 
 147:Drivers/lsm303agr/Src/lsm303agr_reg.c **** 	  ctx_mag->write_reg = lsm303agr_write;
 148:Drivers/lsm303agr/Src/lsm303agr_reg.c **** 	  ctx_mag->read_reg = lsm303agr_read;
 149:Drivers/lsm303agr/Src/lsm303agr_reg.c **** 	  ctx_mag->handle = (void *)&mag_bus;
 150:Drivers/lsm303agr/Src/lsm303agr_reg.c **** 	  ctx_mag->mdelay = HAL_Delay;
 151:Drivers/lsm303agr/Src/lsm303agr_reg.c **** 	  ctx_mag->munlock = lsm303agr_unlock_I2C_bus;
 152:Drivers/lsm303agr/Src/lsm303agr_reg.c **** 
 153:Drivers/lsm303agr/Src/lsm303agr_reg.c **** 	  ctx_xl->mdelay(100);
 154:Drivers/lsm303agr/Src/lsm303agr_reg.c **** 
 155:Drivers/lsm303agr/Src/lsm303agr_reg.c **** 	  int16_t whoamI = 0;
 156:Drivers/lsm303agr/Src/lsm303agr_reg.c **** 	  lsm303agr_xl_device_id_get(ctx_xl, &whoamI);
 157:Drivers/lsm303agr/Src/lsm303agr_reg.c **** 
 158:Drivers/lsm303agr/Src/lsm303agr_reg.c **** 	  while ( whoamI != LSM303AGR_ID_XL ) {
 159:Drivers/lsm303agr/Src/lsm303agr_reg.c **** 		  ctx_xl->munlock(ctx_xl);
 160:Drivers/lsm303agr/Src/lsm303agr_reg.c **** 
 161:Drivers/lsm303agr/Src/lsm303agr_reg.c **** 		  lsm303agr_xl_device_id_get(ctx_xl, &whoamI);
 162:Drivers/lsm303agr/Src/lsm303agr_reg.c **** 
 163:Drivers/lsm303agr/Src/lsm303agr_reg.c **** 		  lsm303agr_xl_boot_set(ctx_xl, 1);
 164:Drivers/lsm303agr/Src/lsm303agr_reg.c **** 		  lsm303agr_mag_boot_set(ctx_mag, 1);
 165:Drivers/lsm303agr/Src/lsm303agr_reg.c **** 
 166:Drivers/lsm303agr/Src/lsm303agr_reg.c **** 		  ctx_xl->mdelay(100);
 167:Drivers/lsm303agr/Src/lsm303agr_reg.c **** 
 168:Drivers/lsm303agr/Src/lsm303agr_reg.c **** 	  }
 169:Drivers/lsm303agr/Src/lsm303agr_reg.c **** 	  /*manage here device not found */
 170:Drivers/lsm303agr/Src/lsm303agr_reg.c **** 
 171:Drivers/lsm303agr/Src/lsm303agr_reg.c **** 	  whoamI = 0;
 172:Drivers/lsm303agr/Src/lsm303agr_reg.c **** 	  lsm303agr_mag_device_id_get(ctx_mag, &whoamI);
 173:Drivers/lsm303agr/Src/lsm303agr_reg.c **** 
 174:Drivers/lsm303agr/Src/lsm303agr_reg.c **** 	  while ( whoamI != LSM303AGR_ID_MG ) {
 175:Drivers/lsm303agr/Src/lsm303agr_reg.c **** 		  ctx_mag->munlock(ctx_mag);
 176:Drivers/lsm303agr/Src/lsm303agr_reg.c **** 
 177:Drivers/lsm303agr/Src/lsm303agr_reg.c **** 		  lsm303agr_xl_device_id_get(ctx_mag, &whoamI);
 178:Drivers/lsm303agr/Src/lsm303agr_reg.c **** 
ARM GAS  C:\Users\SF\AppData\Local\Temp\ccFGOSN0.s 			page 10


 179:Drivers/lsm303agr/Src/lsm303agr_reg.c **** 		  lsm303agr_xl_boot_set(ctx_mag, 1);
 180:Drivers/lsm303agr/Src/lsm303agr_reg.c **** 		  lsm303agr_mag_boot_set(ctx_mag, 1);
 181:Drivers/lsm303agr/Src/lsm303agr_reg.c **** 
 182:Drivers/lsm303agr/Src/lsm303agr_reg.c **** 		  ctx_mag->mdelay(100);
 183:Drivers/lsm303agr/Src/lsm303agr_reg.c **** 	  }
 184:Drivers/lsm303agr/Src/lsm303agr_reg.c **** 
 185:Drivers/lsm303agr/Src/lsm303agr_reg.c **** 	  /* Restore default configuration for magnetometer */
 186:Drivers/lsm303agr/Src/lsm303agr_reg.c **** 	  lsm303agr_mag_reset_set(ctx_mag, PROPERTY_ENABLE);
 187:Drivers/lsm303agr/Src/lsm303agr_reg.c **** 	  lsm303agr_xl_block_data_update_set(ctx_xl, PROPERTY_ENABLE);
 188:Drivers/lsm303agr/Src/lsm303agr_reg.c **** 	  lsm303agr_mag_block_data_update_set(ctx_mag, PROPERTY_ENABLE);
 189:Drivers/lsm303agr/Src/lsm303agr_reg.c **** 	  /* Set Output Data Rate */
 190:Drivers/lsm303agr/Src/lsm303agr_reg.c **** 	  lsm303agr_xl_data_rate_set(ctx_xl, LSM303AGR_XL_ODR_1Hz);
 191:Drivers/lsm303agr/Src/lsm303agr_reg.c **** 	  lsm303agr_mag_data_rate_set(ctx_mag, LSM303AGR_MG_ODR_10Hz);
 192:Drivers/lsm303agr/Src/lsm303agr_reg.c **** 	  /* Set accelerometer full scale */
 193:Drivers/lsm303agr/Src/lsm303agr_reg.c **** 	  lsm303agr_xl_full_scale_set(ctx_xl, LSM303AGR_2g);
 194:Drivers/lsm303agr/Src/lsm303agr_reg.c **** 	  /* Set / Reset magnetic sensor mode */
 195:Drivers/lsm303agr/Src/lsm303agr_reg.c **** 	  lsm303agr_mag_set_rst_mode_set(ctx_mag,
 196:Drivers/lsm303agr/Src/lsm303agr_reg.c **** 	                                 LSM303AGR_SENS_OFF_CANC_EVERY_ODR);
 197:Drivers/lsm303agr/Src/lsm303agr_reg.c **** 	  /* Enable temperature compensation on mag sensor */
 198:Drivers/lsm303agr/Src/lsm303agr_reg.c **** 	  lsm303agr_mag_offset_temp_comp_set(ctx_mag, PROPERTY_ENABLE);
 199:Drivers/lsm303agr/Src/lsm303agr_reg.c **** 	  /* Enable temperature sensor */
 200:Drivers/lsm303agr/Src/lsm303agr_reg.c **** 	  lsm303agr_temperature_meas_set(ctx_xl, LSM303AGR_TEMP_ENABLE);
 201:Drivers/lsm303agr/Src/lsm303agr_reg.c **** 	  /* Set device in continuous mode */
 202:Drivers/lsm303agr/Src/lsm303agr_reg.c **** 	  lsm303agr_xl_operating_mode_set(ctx_xl, LSM303AGR_HR_12bit);
 203:Drivers/lsm303agr/Src/lsm303agr_reg.c **** 	  /* Set magnetometer in continuous mode */
 204:Drivers/lsm303agr/Src/lsm303agr_reg.c **** 	  lsm303agr_mag_operating_mode_set(ctx_mag,
 205:Drivers/lsm303agr/Src/lsm303agr_reg.c **** 	                                   LSM303AGR_CONTINUOUS_MODE);
 206:Drivers/lsm303agr/Src/lsm303agr_reg.c **** }
 207:Drivers/lsm303agr/Src/lsm303agr_reg.c **** 
 208:Drivers/lsm303agr/Src/lsm303agr_reg.c **** void lsm303agr_calib_xl(stmdev_ctx_t *ctx_xl, int16_t *data_raw_acceleration, float *delta ) {
 209:Drivers/lsm303agr/Src/lsm303agr_reg.c **** 
 210:Drivers/lsm303agr/Src/lsm303agr_reg.c ****     float sumX = 0;
 211:Drivers/lsm303agr/Src/lsm303agr_reg.c ****     float sumY = 0;
 212:Drivers/lsm303agr/Src/lsm303agr_reg.c ****     float sumZ = 0;
 213:Drivers/lsm303agr/Src/lsm303agr_reg.c ****     int16_t samples = 100;
 214:Drivers/lsm303agr/Src/lsm303agr_reg.c **** 
 215:Drivers/lsm303agr/Src/lsm303agr_reg.c ****     for (uint8_t i = 0; i < samples; ++i)
 216:Drivers/lsm303agr/Src/lsm303agr_reg.c ****     {
 217:Drivers/lsm303agr/Src/lsm303agr_reg.c ****      lsm303agr_read_xl(ctx_xl, data_raw_acceleration);
 218:Drivers/lsm303agr/Src/lsm303agr_reg.c **** 
 219:Drivers/lsm303agr/Src/lsm303agr_reg.c ****       sumX += data_raw_acceleration[0];
 220:Drivers/lsm303agr/Src/lsm303agr_reg.c ****       sumY += data_raw_acceleration[1];
 221:Drivers/lsm303agr/Src/lsm303agr_reg.c ****       sumZ += 16384 - data_raw_acceleration[2];
 222:Drivers/lsm303agr/Src/lsm303agr_reg.c **** 
 223:Drivers/lsm303agr/Src/lsm303agr_reg.c ****       ctx_xl->mdelay(10);
 224:Drivers/lsm303agr/Src/lsm303agr_reg.c ****      }
 225:Drivers/lsm303agr/Src/lsm303agr_reg.c **** 
 226:Drivers/lsm303agr/Src/lsm303agr_reg.c ****     delta[0] = sumX / samples;
 227:Drivers/lsm303agr/Src/lsm303agr_reg.c ****     delta[1] = sumY / samples;
 228:Drivers/lsm303agr/Src/lsm303agr_reg.c ****     delta[2] = sumZ / samples;
 229:Drivers/lsm303agr/Src/lsm303agr_reg.c **** }
 230:Drivers/lsm303agr/Src/lsm303agr_reg.c **** 
 231:Drivers/lsm303agr/Src/lsm303agr_reg.c **** void lsm303agr_read_mag(stmdev_ctx_t *ctx_mg, int16_t *raw_magnetic) {
 232:Drivers/lsm303agr/Src/lsm303agr_reg.c ****  	lsm303agr_reg_t reg;
 233:Drivers/lsm303agr/Src/lsm303agr_reg.c **** 
 234:Drivers/lsm303agr/Src/lsm303agr_reg.c ****     lsm303agr_mag_status_get(ctx_mg, &reg.status_reg_m);
 235:Drivers/lsm303agr/Src/lsm303agr_reg.c **** 
ARM GAS  C:\Users\SF\AppData\Local\Temp\ccFGOSN0.s 			page 11


 236:Drivers/lsm303agr/Src/lsm303agr_reg.c ****     if (reg.status_reg_m.zyxda) {
 237:Drivers/lsm303agr/Src/lsm303agr_reg.c ****       /* Read magnetic field data */
 238:Drivers/lsm303agr/Src/lsm303agr_reg.c ****       memset(raw_magnetic, 0x00, 3 * sizeof(int16_t));
 239:Drivers/lsm303agr/Src/lsm303agr_reg.c ****       lsm303agr_magnetic_raw_get(ctx_mg, raw_magnetic);
 240:Drivers/lsm303agr/Src/lsm303agr_reg.c ****       raw_magnetic[0] = (raw_magnetic[0] * soft_magnetic_x[0] + raw_magnetic[1]*soft_magnetic_x[1] 
 241:Drivers/lsm303agr/Src/lsm303agr_reg.c ****       raw_magnetic[1] = (raw_magnetic[0] * soft_magnetic_y[0] + raw_magnetic[1]*soft_magnetic_y[1] 
 242:Drivers/lsm303agr/Src/lsm303agr_reg.c ****       raw_magnetic[2] = (raw_magnetic[0] * soft_magnetic_z[0] + raw_magnetic[1]*soft_magnetic_z[1] 
 243:Drivers/lsm303agr/Src/lsm303agr_reg.c ****     }
 244:Drivers/lsm303agr/Src/lsm303agr_reg.c **** 
 245:Drivers/lsm303agr/Src/lsm303agr_reg.c **** }
 246:Drivers/lsm303agr/Src/lsm303agr_reg.c **** 
 247:Drivers/lsm303agr/Src/lsm303agr_reg.c **** 
 248:Drivers/lsm303agr/Src/lsm303agr_reg.c **** void lsm303agr_read_xl(stmdev_ctx_t *ctx_xl, int16_t *raw_acceleration) {
 249:Drivers/lsm303agr/Src/lsm303agr_reg.c ****  	lsm303agr_reg_t reg;
 250:Drivers/lsm303agr/Src/lsm303agr_reg.c ****     lsm303agr_xl_status_get(ctx_xl, &reg.status_reg_a);
 251:Drivers/lsm303agr/Src/lsm303agr_reg.c **** 
 252:Drivers/lsm303agr/Src/lsm303agr_reg.c ****     if (reg.status_reg_a.zyxda) {
 253:Drivers/lsm303agr/Src/lsm303agr_reg.c ****       /* Read accelerometer data */
 254:Drivers/lsm303agr/Src/lsm303agr_reg.c ****       memset(raw_acceleration, 0x00, 3 * sizeof(int16_t));
 255:Drivers/lsm303agr/Src/lsm303agr_reg.c ****       lsm303agr_acceleration_raw_get(ctx_xl, raw_acceleration);
 256:Drivers/lsm303agr/Src/lsm303agr_reg.c ****     }
 257:Drivers/lsm303agr/Src/lsm303agr_reg.c **** 
 258:Drivers/lsm303agr/Src/lsm303agr_reg.c **** }
 259:Drivers/lsm303agr/Src/lsm303agr_reg.c **** 
 260:Drivers/lsm303agr/Src/lsm303agr_reg.c **** void lsm303agr_read_calibrated_xl(stmdev_ctx_t *ctx_xl, int16_t *raw_acceleration, float *delta) {
 261:Drivers/lsm303agr/Src/lsm303agr_reg.c ****  	lsm303agr_reg_t reg;
 262:Drivers/lsm303agr/Src/lsm303agr_reg.c ****     lsm303agr_xl_status_get(ctx_xl, &reg.status_reg_a);
 263:Drivers/lsm303agr/Src/lsm303agr_reg.c **** 
 264:Drivers/lsm303agr/Src/lsm303agr_reg.c ****     if (reg.status_reg_a.zyxda) {
 265:Drivers/lsm303agr/Src/lsm303agr_reg.c ****       /* Read accelerometer data */
 266:Drivers/lsm303agr/Src/lsm303agr_reg.c ****       memset(raw_acceleration, 0x00, 3 * sizeof(int16_t));
 267:Drivers/lsm303agr/Src/lsm303agr_reg.c ****       lsm303agr_acceleration_raw_get(ctx_xl, raw_acceleration);
 268:Drivers/lsm303agr/Src/lsm303agr_reg.c ****       raw_acceleration[0] = raw_acceleration[0] - delta[0];
 269:Drivers/lsm303agr/Src/lsm303agr_reg.c ****       raw_acceleration[1] = raw_acceleration[1] - delta[1];
 270:Drivers/lsm303agr/Src/lsm303agr_reg.c ****       raw_acceleration[2] = raw_acceleration[2] + delta[2];
 271:Drivers/lsm303agr/Src/lsm303agr_reg.c ****     }
 272:Drivers/lsm303agr/Src/lsm303agr_reg.c **** 
 273:Drivers/lsm303agr/Src/lsm303agr_reg.c **** }
 274:Drivers/lsm303agr/Src/lsm303agr_reg.c **** 
 275:Drivers/lsm303agr/Src/lsm303agr_reg.c **** //void LSM303agr_read_mag_and_xl(stmdev_ctx_t *ctx_xl, stmdev_ctx_t *ctx_mg, int16_t *raw_accelerat
 276:Drivers/lsm303agr/Src/lsm303agr_reg.c **** // 	lsm303agr_reg_t reg;
 277:Drivers/lsm303agr/Src/lsm303agr_reg.c **** //    lsm303agr_xl_status_get(ctx_xl, &reg.status_reg_a);
 278:Drivers/lsm303agr/Src/lsm303agr_reg.c **** //
 279:Drivers/lsm303agr/Src/lsm303agr_reg.c **** //    if (reg.status_reg_a.zyxda) {
 280:Drivers/lsm303agr/Src/lsm303agr_reg.c **** //      /* Read accelerometer data */
 281:Drivers/lsm303agr/Src/lsm303agr_reg.c **** //      memset(raw_acceleration, 0x00, 3 * sizeof(int16_t));
 282:Drivers/lsm303agr/Src/lsm303agr_reg.c **** //      lsm303agr_acceleration_raw_get(ctx_xl,
 283:Drivers/lsm303agr/Src/lsm303agr_reg.c **** //                                     data_raw_acceleration);
 284:Drivers/lsm303agr/Src/lsm303agr_reg.c **** //      raw_acceleration[0] = lsm303agr_from_fs_2g_hr_to_mg(
 285:Drivers/lsm303agr/Src/lsm303agr_reg.c **** //    		  raw_acceleration[0] );
 286:Drivers/lsm303agr/Src/lsm303agr_reg.c **** //      raw_acceleration[1] = lsm303agr_from_fs_2g_hr_to_mg(
 287:Drivers/lsm303agr/Src/lsm303agr_reg.c **** //    		  raw_acceleration[1] );
 288:Drivers/lsm303agr/Src/lsm303agr_reg.c **** //      raw_acceleration[2] = lsm303agr_from_fs_2g_hr_to_mg(
 289:Drivers/lsm303agr/Src/lsm303agr_reg.c **** //    		  raw_acceleration[2] );
 290:Drivers/lsm303agr/Src/lsm303agr_reg.c **** //    }
 291:Drivers/lsm303agr/Src/lsm303agr_reg.c **** //
 292:Drivers/lsm303agr/Src/lsm303agr_reg.c **** //
ARM GAS  C:\Users\SF\AppData\Local\Temp\ccFGOSN0.s 			page 12


 293:Drivers/lsm303agr/Src/lsm303agr_reg.c **** //    lsm303agr_mag_status_get(ctx_mg, &reg.status_reg_m);
 294:Drivers/lsm303agr/Src/lsm303agr_reg.c **** //
 295:Drivers/lsm303agr/Src/lsm303agr_reg.c **** //    if (reg.status_reg_m.zyxda) {
 296:Drivers/lsm303agr/Src/lsm303agr_reg.c **** //      /* Read magnetic field data */
 297:Drivers/lsm303agr/Src/lsm303agr_reg.c **** //      memset(raw_magnetic, 0x00, 3 * sizeof(int16_t));
 298:Drivers/lsm303agr/Src/lsm303agr_reg.c **** //      lsm303agr_magnetic_raw_get(ctx_mg, data_raw_magnetic);
 299:Drivers/lsm303agr/Src/lsm303agr_reg.c **** //      raw_magnetic[0] = lsm303agr_from_lsb_to_mgauss(
 300:Drivers/lsm303agr/Src/lsm303agr_reg.c **** //    		  raw_magnetic[0]);
 301:Drivers/lsm303agr/Src/lsm303agr_reg.c **** //      raw_magnetic[1] = lsm303agr_from_lsb_to_mgauss(
 302:Drivers/lsm303agr/Src/lsm303agr_reg.c **** //    		  raw_magnetic[1]);
 303:Drivers/lsm303agr/Src/lsm303agr_reg.c **** //      raw_magnetic[2] = lsm303agr_from_lsb_to_mgauss(
 304:Drivers/lsm303agr/Src/lsm303agr_reg.c **** //    		  raw_magnetic[2]);
 305:Drivers/lsm303agr/Src/lsm303agr_reg.c **** //    }
 306:Drivers/lsm303agr/Src/lsm303agr_reg.c **** //
 307:Drivers/lsm303agr/Src/lsm303agr_reg.c **** //
 308:Drivers/lsm303agr/Src/lsm303agr_reg.c **** //    lsm303agr_temp_data_ready_get(ctx_xl, &reg.byte);
 309:Drivers/lsm303agr/Src/lsm303agr_reg.c **** //    uint16_t temperature_degC;
 310:Drivers/lsm303agr/Src/lsm303agr_reg.c **** //
 311:Drivers/lsm303agr/Src/lsm303agr_reg.c **** //    if (reg.byte) {
 312:Drivers/lsm303agr/Src/lsm303agr_reg.c **** //      /* Read temperature data */
 313:Drivers/lsm303agr/Src/lsm303agr_reg.c **** //      memset(&raw_temperature, 0x00, sizeof(int16_t));
 314:Drivers/lsm303agr/Src/lsm303agr_reg.c **** //      lsm303agr_temperature_raw_get(ctx_xl,
 315:Drivers/lsm303agr/Src/lsm303agr_reg.c **** //                                    &raw_temperature);
 316:Drivers/lsm303agr/Src/lsm303agr_reg.c **** //      temperature_degC = lsm303agr_from_lsb_hr_to_celsius(
 317:Drivers/lsm303agr/Src/lsm303agr_reg.c **** //    		  raw_temperature );
 318:Drivers/lsm303agr/Src/lsm303agr_reg.c **** //    }
 319:Drivers/lsm303agr/Src/lsm303agr_reg.c **** //
 320:Drivers/lsm303agr/Src/lsm303agr_reg.c **** //};
 321:Drivers/lsm303agr/Src/lsm303agr_reg.c **** 
 322:Drivers/lsm303agr/Src/lsm303agr_reg.c **** //void lsm303agr_read_calibrated_xl(stmdev_ctx_t *ctx_xl, int16_t *raw_acceleration) {
 323:Drivers/lsm303agr/Src/lsm303agr_reg.c **** // 	lsm303agr_reg_t reg;
 324:Drivers/lsm303agr/Src/lsm303agr_reg.c **** //    lsm303agr_xl_status_get(ctx_xl, &reg.status_reg_a);
 325:Drivers/lsm303agr/Src/lsm303agr_reg.c **** //
 326:Drivers/lsm303agr/Src/lsm303agr_reg.c **** //    if (reg.status_reg_a.zyxda) {
 327:Drivers/lsm303agr/Src/lsm303agr_reg.c **** //      /* Read accelerometer data */
 328:Drivers/lsm303agr/Src/lsm303agr_reg.c **** //      memset(raw_acceleration, 0x00, 3 * sizeof(int16_t));
 329:Drivers/lsm303agr/Src/lsm303agr_reg.c **** //      lsm303agr_acceleration_raw_get(ctx_xl, raw_acceleration);
 330:Drivers/lsm303agr/Src/lsm303agr_reg.c **** //
 331:Drivers/lsm303agr/Src/lsm303agr_reg.c **** //      raw_acceleration[0] = raw_acceleration[0] - raw_acceleration[0];
 332:Drivers/lsm303agr/Src/lsm303agr_reg.c **** //      raw_acceleration[1] = raw_acceleration[1] - raw_acceleration[1];
 333:Drivers/lsm303agr/Src/lsm303agr_reg.c **** //      raw_acceleration[2] = raw_acceleration[2] + raw_acceleration[2];
 334:Drivers/lsm303agr/Src/lsm303agr_reg.c **** //    }
 335:Drivers/lsm303agr/Src/lsm303agr_reg.c **** //
 336:Drivers/lsm303agr/Src/lsm303agr_reg.c **** //}
 337:Drivers/lsm303agr/Src/lsm303agr_reg.c **** 
 338:Drivers/lsm303agr/Src/lsm303agr_reg.c **** 
 339:Drivers/lsm303agr/Src/lsm303agr_reg.c **** /**
 340:Drivers/lsm303agr/Src/lsm303agr_reg.c ****   * @brief  Read generic device register
 341:Drivers/lsm303agr/Src/lsm303agr_reg.c ****   *
 342:Drivers/lsm303agr/Src/lsm303agr_reg.c ****   * @param  ctx   read / write interface definitions(ptr)
 343:Drivers/lsm303agr/Src/lsm303agr_reg.c ****   * @param  reg   register to read
 344:Drivers/lsm303agr/Src/lsm303agr_reg.c ****   * @param  data  pointer to buffer that store the data read(ptr)
 345:Drivers/lsm303agr/Src/lsm303agr_reg.c ****   * @param  len   number of consecutive register to read
 346:Drivers/lsm303agr/Src/lsm303agr_reg.c ****   * @retval          interface status (MANDATORY: return 0 -> no Error)
 347:Drivers/lsm303agr/Src/lsm303agr_reg.c ****   *
 348:Drivers/lsm303agr/Src/lsm303agr_reg.c ****   */
 349:Drivers/lsm303agr/Src/lsm303agr_reg.c **** int32_t lsm303agr_read_reg(stmdev_ctx_t *ctx, uint8_t reg,
ARM GAS  C:\Users\SF\AppData\Local\Temp\ccFGOSN0.s 			page 13


 350:Drivers/lsm303agr/Src/lsm303agr_reg.c ****                            uint8_t *data,
 351:Drivers/lsm303agr/Src/lsm303agr_reg.c ****                            uint16_t len)
 352:Drivers/lsm303agr/Src/lsm303agr_reg.c **** {
 336              		.loc 1 352 1 is_stmt 1 view -0
 337              		.cfi_startproc
 338              		@ args = 0, pretend = 0, frame = 0
 339              		@ frame_needed = 0, uses_anonymous_args = 0
 340              		.loc 1 352 1 is_stmt 0 view .LVU84
 341 0000 10B5     		push	{r4, lr}
 342              	.LCFI9:
 343              		.cfi_def_cfa_offset 8
 344              		.cfi_offset 4, -8
 345              		.cfi_offset 14, -4
 353:Drivers/lsm303agr/Src/lsm303agr_reg.c ****   int32_t ret;
 346              		.loc 1 353 3 is_stmt 1 view .LVU85
 354:Drivers/lsm303agr/Src/lsm303agr_reg.c **** 
 355:Drivers/lsm303agr/Src/lsm303agr_reg.c ****   ret = ctx->read_reg(ctx->handle, reg, data, len);
 347              		.loc 1 355 3 view .LVU86
 348              		.loc 1 355 12 is_stmt 0 view .LVU87
 349 0002 8468     		ldr	r4, [r0, #8]
 350              		.loc 1 355 9 view .LVU88
 351 0004 0069     		ldr	r0, [r0, #16]
 352              	.LVL31:
 353              		.loc 1 355 9 view .LVU89
 354 0006 A047     		blx	r4
 355              	.LVL32:
 356:Drivers/lsm303agr/Src/lsm303agr_reg.c **** 
 357:Drivers/lsm303agr/Src/lsm303agr_reg.c ****   return ret;
 356              		.loc 1 357 3 is_stmt 1 view .LVU90
 358:Drivers/lsm303agr/Src/lsm303agr_reg.c **** }
 357              		.loc 1 358 1 is_stmt 0 view .LVU91
 358 0008 10BD     		pop	{r4, pc}
 359              		.cfi_endproc
 360              	.LFE138:
 362              		.section	.text.lsm303agr_write_reg,"ax",%progbits
 363              		.align	1
 364              		.global	lsm303agr_write_reg
 365              		.syntax unified
 366              		.thumb
 367              		.thumb_func
 369              	lsm303agr_write_reg:
 370              	.LVL33:
 371              	.LFB139:
 359:Drivers/lsm303agr/Src/lsm303agr_reg.c **** 
 360:Drivers/lsm303agr/Src/lsm303agr_reg.c **** /**
 361:Drivers/lsm303agr/Src/lsm303agr_reg.c ****   * @brief  Write generic device register
 362:Drivers/lsm303agr/Src/lsm303agr_reg.c ****   *
 363:Drivers/lsm303agr/Src/lsm303agr_reg.c ****   * @param  ctx   read / write interface definitions(ptr)
 364:Drivers/lsm303agr/Src/lsm303agr_reg.c ****   * @param  reg   register to write
 365:Drivers/lsm303agr/Src/lsm303agr_reg.c ****   * @param  data  pointer to data to write in register reg(ptr)
 366:Drivers/lsm303agr/Src/lsm303agr_reg.c ****   * @param  len   number of consecutive register to write
 367:Drivers/lsm303agr/Src/lsm303agr_reg.c ****   * @retval          interface status (MANDATORY: return 0 -> no Error)
 368:Drivers/lsm303agr/Src/lsm303agr_reg.c ****   *
 369:Drivers/lsm303agr/Src/lsm303agr_reg.c ****   */
 370:Drivers/lsm303agr/Src/lsm303agr_reg.c **** int32_t lsm303agr_write_reg(stmdev_ctx_t *ctx, uint8_t reg,
 371:Drivers/lsm303agr/Src/lsm303agr_reg.c ****                             uint8_t *data,
 372:Drivers/lsm303agr/Src/lsm303agr_reg.c ****                             uint16_t len)
ARM GAS  C:\Users\SF\AppData\Local\Temp\ccFGOSN0.s 			page 14


 373:Drivers/lsm303agr/Src/lsm303agr_reg.c **** {
 372              		.loc 1 373 1 is_stmt 1 view -0
 373              		.cfi_startproc
 374              		@ args = 0, pretend = 0, frame = 0
 375              		@ frame_needed = 0, uses_anonymous_args = 0
 376              		.loc 1 373 1 is_stmt 0 view .LVU93
 377 0000 10B5     		push	{r4, lr}
 378              	.LCFI10:
 379              		.cfi_def_cfa_offset 8
 380              		.cfi_offset 4, -8
 381              		.cfi_offset 14, -4
 374:Drivers/lsm303agr/Src/lsm303agr_reg.c ****   int32_t ret;
 382              		.loc 1 374 3 is_stmt 1 view .LVU94
 375:Drivers/lsm303agr/Src/lsm303agr_reg.c **** 
 376:Drivers/lsm303agr/Src/lsm303agr_reg.c ****   ret = ctx->write_reg(ctx->handle, reg, data, len);
 383              		.loc 1 376 3 view .LVU95
 384              		.loc 1 376 12 is_stmt 0 view .LVU96
 385 0002 4468     		ldr	r4, [r0, #4]
 386              		.loc 1 376 9 view .LVU97
 387 0004 0069     		ldr	r0, [r0, #16]
 388              	.LVL34:
 389              		.loc 1 376 9 view .LVU98
 390 0006 A047     		blx	r4
 391              	.LVL35:
 377:Drivers/lsm303agr/Src/lsm303agr_reg.c **** 
 378:Drivers/lsm303agr/Src/lsm303agr_reg.c ****   return ret;
 392              		.loc 1 378 3 is_stmt 1 view .LVU99
 379:Drivers/lsm303agr/Src/lsm303agr_reg.c **** }
 393              		.loc 1 379 1 is_stmt 0 view .LVU100
 394 0008 10BD     		pop	{r4, pc}
 395              		.cfi_endproc
 396              	.LFE139:
 398              		.section	.text.lsm303agr_from_fs_2g_hr_to_mg,"ax",%progbits
 399              		.align	1
 400              		.global	lsm303agr_from_fs_2g_hr_to_mg
 401              		.syntax unified
 402              		.thumb
 403              		.thumb_func
 405              	lsm303agr_from_fs_2g_hr_to_mg:
 406              	.LVL36:
 407              	.LFB140:
 380:Drivers/lsm303agr/Src/lsm303agr_reg.c **** 
 381:Drivers/lsm303agr/Src/lsm303agr_reg.c **** /**
 382:Drivers/lsm303agr/Src/lsm303agr_reg.c ****   * @}
 383:Drivers/lsm303agr/Src/lsm303agr_reg.c ****   *
 384:Drivers/lsm303agr/Src/lsm303agr_reg.c ****   */
 385:Drivers/lsm303agr/Src/lsm303agr_reg.c **** 
 386:Drivers/lsm303agr/Src/lsm303agr_reg.c **** /**
 387:Drivers/lsm303agr/Src/lsm303agr_reg.c ****   * @defgroup    LSM303AGR_Sensitivity
 388:Drivers/lsm303agr/Src/lsm303agr_reg.c ****   * @brief       These functions convert raw-data into engineering units.
 389:Drivers/lsm303agr/Src/lsm303agr_reg.c ****   * @{
 390:Drivers/lsm303agr/Src/lsm303agr_reg.c ****   *
 391:Drivers/lsm303agr/Src/lsm303agr_reg.c ****   */
 392:Drivers/lsm303agr/Src/lsm303agr_reg.c **** 
 393:Drivers/lsm303agr/Src/lsm303agr_reg.c **** float_t lsm303agr_from_fs_2g_hr_to_mg(int16_t lsb)
 394:Drivers/lsm303agr/Src/lsm303agr_reg.c **** {
 408              		.loc 1 394 1 is_stmt 1 view -0
ARM GAS  C:\Users\SF\AppData\Local\Temp\ccFGOSN0.s 			page 15


 409              		.cfi_startproc
 410              		@ args = 0, pretend = 0, frame = 0
 411              		@ frame_needed = 0, uses_anonymous_args = 0
 412              		@ link register save eliminated.
 413              		.loc 1 394 1 is_stmt 0 view .LVU102
 414 0000 07EE900A 		vmov	s15, r0	@ int
 395:Drivers/lsm303agr/Src/lsm303agr_reg.c ****   return ((float_t)lsb / 16.0f) * 0.98f;
 415              		.loc 1 395 3 is_stmt 1 view .LVU103
 416              		.loc 1 395 11 is_stmt 0 view .LVU104
 417 0004 F8EEE77A 		vcvt.f32.s32	s15, s15
 418              		.loc 1 395 24 view .LVU105
 419 0008 9FED040A 		vldr.32	s0, .L20
 420 000c 67EE807A 		vmul.f32	s15, s15, s0
 396:Drivers/lsm303agr/Src/lsm303agr_reg.c **** }
 421              		.loc 1 396 1 view .LVU106
 422 0010 9FED030A 		vldr.32	s0, .L20+4
 423 0014 27EE800A 		vmul.f32	s0, s15, s0
 424 0018 7047     		bx	lr
 425              	.L21:
 426 001a 00BF     		.align	2
 427              	.L20:
 428 001c 0000803D 		.word	1031798784
 429 0020 48E17A3F 		.word	1065017672
 430              		.cfi_endproc
 431              	.LFE140:
 433              		.section	.text.lsm303agr_from_fs_4g_hr_to_mg,"ax",%progbits
 434              		.align	1
 435              		.global	lsm303agr_from_fs_4g_hr_to_mg
 436              		.syntax unified
 437              		.thumb
 438              		.thumb_func
 440              	lsm303agr_from_fs_4g_hr_to_mg:
 441              	.LVL37:
 442              	.LFB141:
 397:Drivers/lsm303agr/Src/lsm303agr_reg.c **** 
 398:Drivers/lsm303agr/Src/lsm303agr_reg.c **** float_t lsm303agr_from_fs_4g_hr_to_mg(int16_t lsb)
 399:Drivers/lsm303agr/Src/lsm303agr_reg.c **** {
 443              		.loc 1 399 1 is_stmt 1 view -0
 444              		.cfi_startproc
 445              		@ args = 0, pretend = 0, frame = 0
 446              		@ frame_needed = 0, uses_anonymous_args = 0
 447              		@ link register save eliminated.
 448              		.loc 1 399 1 is_stmt 0 view .LVU108
 449 0000 07EE900A 		vmov	s15, r0	@ int
 400:Drivers/lsm303agr/Src/lsm303agr_reg.c ****   return ((float_t)lsb / 16.0f) * 1.95f;
 450              		.loc 1 400 3 is_stmt 1 view .LVU109
 451              		.loc 1 400 11 is_stmt 0 view .LVU110
 452 0004 F8EEE77A 		vcvt.f32.s32	s15, s15
 453              		.loc 1 400 24 view .LVU111
 454 0008 9FED040A 		vldr.32	s0, .L23
 455 000c 67EE807A 		vmul.f32	s15, s15, s0
 401:Drivers/lsm303agr/Src/lsm303agr_reg.c **** }
 456              		.loc 1 401 1 view .LVU112
 457 0010 9FED030A 		vldr.32	s0, .L23+4
 458 0014 27EE800A 		vmul.f32	s0, s15, s0
 459 0018 7047     		bx	lr
 460              	.L24:
ARM GAS  C:\Users\SF\AppData\Local\Temp\ccFGOSN0.s 			page 16


 461 001a 00BF     		.align	2
 462              	.L23:
 463 001c 0000803D 		.word	1031798784
 464 0020 9A99F93F 		.word	1073322394
 465              		.cfi_endproc
 466              	.LFE141:
 468              		.section	.text.lsm303agr_from_fs_8g_hr_to_mg,"ax",%progbits
 469              		.align	1
 470              		.global	lsm303agr_from_fs_8g_hr_to_mg
 471              		.syntax unified
 472              		.thumb
 473              		.thumb_func
 475              	lsm303agr_from_fs_8g_hr_to_mg:
 476              	.LVL38:
 477              	.LFB142:
 402:Drivers/lsm303agr/Src/lsm303agr_reg.c **** 
 403:Drivers/lsm303agr/Src/lsm303agr_reg.c **** float_t lsm303agr_from_fs_8g_hr_to_mg(int16_t lsb)
 404:Drivers/lsm303agr/Src/lsm303agr_reg.c **** {
 478              		.loc 1 404 1 is_stmt 1 view -0
 479              		.cfi_startproc
 480              		@ args = 0, pretend = 0, frame = 0
 481              		@ frame_needed = 0, uses_anonymous_args = 0
 482              		@ link register save eliminated.
 483              		.loc 1 404 1 is_stmt 0 view .LVU114
 484 0000 07EE900A 		vmov	s15, r0	@ int
 405:Drivers/lsm303agr/Src/lsm303agr_reg.c ****   return ((float_t)lsb / 16.0f) * 3.9f;
 485              		.loc 1 405 3 is_stmt 1 view .LVU115
 486              		.loc 1 405 11 is_stmt 0 view .LVU116
 487 0004 F8EEE77A 		vcvt.f32.s32	s15, s15
 488              		.loc 1 405 24 view .LVU117
 489 0008 9FED040A 		vldr.32	s0, .L26
 490 000c 67EE807A 		vmul.f32	s15, s15, s0
 406:Drivers/lsm303agr/Src/lsm303agr_reg.c **** }
 491              		.loc 1 406 1 view .LVU118
 492 0010 9FED030A 		vldr.32	s0, .L26+4
 493 0014 27EE800A 		vmul.f32	s0, s15, s0
 494 0018 7047     		bx	lr
 495              	.L27:
 496 001a 00BF     		.align	2
 497              	.L26:
 498 001c 0000803D 		.word	1031798784
 499 0020 9A997940 		.word	1081711002
 500              		.cfi_endproc
 501              	.LFE142:
 503              		.section	.text.lsm303agr_from_fs_16g_hr_to_mg,"ax",%progbits
 504              		.align	1
 505              		.global	lsm303agr_from_fs_16g_hr_to_mg
 506              		.syntax unified
 507              		.thumb
 508              		.thumb_func
 510              	lsm303agr_from_fs_16g_hr_to_mg:
 511              	.LVL39:
 512              	.LFB143:
 407:Drivers/lsm303agr/Src/lsm303agr_reg.c **** 
 408:Drivers/lsm303agr/Src/lsm303agr_reg.c **** float_t lsm303agr_from_fs_16g_hr_to_mg(int16_t lsb)
 409:Drivers/lsm303agr/Src/lsm303agr_reg.c **** {
 513              		.loc 1 409 1 is_stmt 1 view -0
ARM GAS  C:\Users\SF\AppData\Local\Temp\ccFGOSN0.s 			page 17


 514              		.cfi_startproc
 515              		@ args = 0, pretend = 0, frame = 0
 516              		@ frame_needed = 0, uses_anonymous_args = 0
 517              		@ link register save eliminated.
 518              		.loc 1 409 1 is_stmt 0 view .LVU120
 519 0000 07EE900A 		vmov	s15, r0	@ int
 410:Drivers/lsm303agr/Src/lsm303agr_reg.c ****   return ((float_t)lsb / 16.0f) * 11.72f;
 520              		.loc 1 410 3 is_stmt 1 view .LVU121
 521              		.loc 1 410 11 is_stmt 0 view .LVU122
 522 0004 F8EEE77A 		vcvt.f32.s32	s15, s15
 523              		.loc 1 410 24 view .LVU123
 524 0008 9FED040A 		vldr.32	s0, .L29
 525 000c 67EE807A 		vmul.f32	s15, s15, s0
 411:Drivers/lsm303agr/Src/lsm303agr_reg.c **** }
 526              		.loc 1 411 1 view .LVU124
 527 0010 9FED030A 		vldr.32	s0, .L29+4
 528 0014 27EE800A 		vmul.f32	s0, s15, s0
 529 0018 7047     		bx	lr
 530              	.L30:
 531 001a 00BF     		.align	2
 532              	.L29:
 533 001c 0000803D 		.word	1031798784
 534 0020 1F853B41 		.word	1094419743
 535              		.cfi_endproc
 536              	.LFE143:
 538              		.section	.text.lsm303agr_from_lsb_hr_to_celsius,"ax",%progbits
 539              		.align	1
 540              		.global	lsm303agr_from_lsb_hr_to_celsius
 541              		.syntax unified
 542              		.thumb
 543              		.thumb_func
 545              	lsm303agr_from_lsb_hr_to_celsius:
 546              	.LVL40:
 547              	.LFB144:
 412:Drivers/lsm303agr/Src/lsm303agr_reg.c **** 
 413:Drivers/lsm303agr/Src/lsm303agr_reg.c **** float_t lsm303agr_from_lsb_hr_to_celsius(int16_t lsb)
 414:Drivers/lsm303agr/Src/lsm303agr_reg.c **** {
 548              		.loc 1 414 1 is_stmt 1 view -0
 549              		.cfi_startproc
 550              		@ args = 0, pretend = 0, frame = 0
 551              		@ frame_needed = 0, uses_anonymous_args = 0
 552              		@ link register save eliminated.
 553              		.loc 1 414 1 is_stmt 0 view .LVU126
 554 0000 07EE900A 		vmov	s15, r0	@ int
 415:Drivers/lsm303agr/Src/lsm303agr_reg.c ****   return (((float_t)lsb / 64.0f) / 4.0f) + 25.0f;
 555              		.loc 1 415 3 is_stmt 1 view .LVU127
 556              		.loc 1 415 12 is_stmt 0 view .LVU128
 557 0004 F8EEE77A 		vcvt.f32.s32	s15, s15
 558              		.loc 1 415 25 view .LVU129
 559 0008 9FED060A 		vldr.32	s0, .L32
 560 000c 67EE807A 		vmul.f32	s15, s15, s0
 561              		.loc 1 415 34 view .LVU130
 562 0010 B5EE000A 		vmov.f32	s0, #2.5e-1
 563 0014 67EE807A 		vmul.f32	s15, s15, s0
 416:Drivers/lsm303agr/Src/lsm303agr_reg.c **** }
 564              		.loc 1 416 1 view .LVU131
 565 0018 B3EE090A 		vmov.f32	s0, #2.5e+1
ARM GAS  C:\Users\SF\AppData\Local\Temp\ccFGOSN0.s 			page 18


 566 001c 37EE800A 		vadd.f32	s0, s15, s0
 567 0020 7047     		bx	lr
 568              	.L33:
 569 0022 00BF     		.align	2
 570              	.L32:
 571 0024 0000803C 		.word	1015021568
 572              		.cfi_endproc
 573              	.LFE144:
 575              		.section	.text.lsm303agr_from_fs_2g_nm_to_mg,"ax",%progbits
 576              		.align	1
 577              		.global	lsm303agr_from_fs_2g_nm_to_mg
 578              		.syntax unified
 579              		.thumb
 580              		.thumb_func
 582              	lsm303agr_from_fs_2g_nm_to_mg:
 583              	.LVL41:
 584              	.LFB145:
 417:Drivers/lsm303agr/Src/lsm303agr_reg.c **** 
 418:Drivers/lsm303agr/Src/lsm303agr_reg.c **** float_t lsm303agr_from_fs_2g_nm_to_mg(int16_t lsb)
 419:Drivers/lsm303agr/Src/lsm303agr_reg.c **** {
 585              		.loc 1 419 1 is_stmt 1 view -0
 586              		.cfi_startproc
 587              		@ args = 0, pretend = 0, frame = 0
 588              		@ frame_needed = 0, uses_anonymous_args = 0
 589              		@ link register save eliminated.
 590              		.loc 1 419 1 is_stmt 0 view .LVU133
 591 0000 07EE900A 		vmov	s15, r0	@ int
 420:Drivers/lsm303agr/Src/lsm303agr_reg.c ****   return ((float_t)lsb / 64.0f) * 3.9f;
 592              		.loc 1 420 3 is_stmt 1 view .LVU134
 593              		.loc 1 420 11 is_stmt 0 view .LVU135
 594 0004 F8EEE77A 		vcvt.f32.s32	s15, s15
 595              		.loc 1 420 24 view .LVU136
 596 0008 9FED040A 		vldr.32	s0, .L35
 597 000c 67EE807A 		vmul.f32	s15, s15, s0
 421:Drivers/lsm303agr/Src/lsm303agr_reg.c **** }
 598              		.loc 1 421 1 view .LVU137
 599 0010 9FED030A 		vldr.32	s0, .L35+4
 600 0014 27EE800A 		vmul.f32	s0, s15, s0
 601 0018 7047     		bx	lr
 602              	.L36:
 603 001a 00BF     		.align	2
 604              	.L35:
 605 001c 0000803C 		.word	1015021568
 606 0020 9A997940 		.word	1081711002
 607              		.cfi_endproc
 608              	.LFE145:
 610              		.section	.text.lsm303agr_from_fs_4g_nm_to_mg,"ax",%progbits
 611              		.align	1
 612              		.global	lsm303agr_from_fs_4g_nm_to_mg
 613              		.syntax unified
 614              		.thumb
 615              		.thumb_func
 617              	lsm303agr_from_fs_4g_nm_to_mg:
 618              	.LVL42:
 619              	.LFB146:
 422:Drivers/lsm303agr/Src/lsm303agr_reg.c **** 
 423:Drivers/lsm303agr/Src/lsm303agr_reg.c **** float_t lsm303agr_from_fs_4g_nm_to_mg(int16_t lsb)
ARM GAS  C:\Users\SF\AppData\Local\Temp\ccFGOSN0.s 			page 19


 424:Drivers/lsm303agr/Src/lsm303agr_reg.c **** {
 620              		.loc 1 424 1 is_stmt 1 view -0
 621              		.cfi_startproc
 622              		@ args = 0, pretend = 0, frame = 0
 623              		@ frame_needed = 0, uses_anonymous_args = 0
 624              		@ link register save eliminated.
 625              		.loc 1 424 1 is_stmt 0 view .LVU139
 626 0000 07EE900A 		vmov	s15, r0	@ int
 425:Drivers/lsm303agr/Src/lsm303agr_reg.c ****   return ((float_t)lsb / 64.0f) * 7.82f;
 627              		.loc 1 425 3 is_stmt 1 view .LVU140
 628              		.loc 1 425 11 is_stmt 0 view .LVU141
 629 0004 F8EEE77A 		vcvt.f32.s32	s15, s15
 630              		.loc 1 425 24 view .LVU142
 631 0008 9FED040A 		vldr.32	s0, .L38
 632 000c 67EE807A 		vmul.f32	s15, s15, s0
 426:Drivers/lsm303agr/Src/lsm303agr_reg.c **** }
 633              		.loc 1 426 1 view .LVU143
 634 0010 9FED030A 		vldr.32	s0, .L38+4
 635 0014 27EE800A 		vmul.f32	s0, s15, s0
 636 0018 7047     		bx	lr
 637              	.L39:
 638 001a 00BF     		.align	2
 639              	.L38:
 640 001c 0000803C 		.word	1015021568
 641 0020 713DFA40 		.word	1090141553
 642              		.cfi_endproc
 643              	.LFE146:
 645              		.section	.text.lsm303agr_from_fs_8g_nm_to_mg,"ax",%progbits
 646              		.align	1
 647              		.global	lsm303agr_from_fs_8g_nm_to_mg
 648              		.syntax unified
 649              		.thumb
 650              		.thumb_func
 652              	lsm303agr_from_fs_8g_nm_to_mg:
 653              	.LVL43:
 654              	.LFB147:
 427:Drivers/lsm303agr/Src/lsm303agr_reg.c **** 
 428:Drivers/lsm303agr/Src/lsm303agr_reg.c **** float_t lsm303agr_from_fs_8g_nm_to_mg(int16_t lsb)
 429:Drivers/lsm303agr/Src/lsm303agr_reg.c **** {
 655              		.loc 1 429 1 is_stmt 1 view -0
 656              		.cfi_startproc
 657              		@ args = 0, pretend = 0, frame = 0
 658              		@ frame_needed = 0, uses_anonymous_args = 0
 659              		@ link register save eliminated.
 660              		.loc 1 429 1 is_stmt 0 view .LVU145
 661 0000 07EE900A 		vmov	s15, r0	@ int
 430:Drivers/lsm303agr/Src/lsm303agr_reg.c ****   return ((float_t)lsb / 64.0f) * 15.63f;
 662              		.loc 1 430 3 is_stmt 1 view .LVU146
 663              		.loc 1 430 11 is_stmt 0 view .LVU147
 664 0004 F8EEE77A 		vcvt.f32.s32	s15, s15
 665              		.loc 1 430 24 view .LVU148
 666 0008 9FED040A 		vldr.32	s0, .L41
 667 000c 67EE807A 		vmul.f32	s15, s15, s0
 431:Drivers/lsm303agr/Src/lsm303agr_reg.c **** }
 668              		.loc 1 431 1 view .LVU149
 669 0010 9FED030A 		vldr.32	s0, .L41+4
 670 0014 27EE800A 		vmul.f32	s0, s15, s0
ARM GAS  C:\Users\SF\AppData\Local\Temp\ccFGOSN0.s 			page 20


 671 0018 7047     		bx	lr
 672              	.L42:
 673 001a 00BF     		.align	2
 674              	.L41:
 675 001c 0000803C 		.word	1015021568
 676 0020 7B147A41 		.word	1098519675
 677              		.cfi_endproc
 678              	.LFE147:
 680              		.section	.text.lsm303agr_from_fs_16g_nm_to_mg,"ax",%progbits
 681              		.align	1
 682              		.global	lsm303agr_from_fs_16g_nm_to_mg
 683              		.syntax unified
 684              		.thumb
 685              		.thumb_func
 687              	lsm303agr_from_fs_16g_nm_to_mg:
 688              	.LVL44:
 689              	.LFB148:
 432:Drivers/lsm303agr/Src/lsm303agr_reg.c **** 
 433:Drivers/lsm303agr/Src/lsm303agr_reg.c **** float_t lsm303agr_from_fs_16g_nm_to_mg(int16_t lsb)
 434:Drivers/lsm303agr/Src/lsm303agr_reg.c **** {
 690              		.loc 1 434 1 is_stmt 1 view -0
 691              		.cfi_startproc
 692              		@ args = 0, pretend = 0, frame = 0
 693              		@ frame_needed = 0, uses_anonymous_args = 0
 694              		@ link register save eliminated.
 695              		.loc 1 434 1 is_stmt 0 view .LVU151
 696 0000 07EE900A 		vmov	s15, r0	@ int
 435:Drivers/lsm303agr/Src/lsm303agr_reg.c ****   return ((float_t)lsb / 64.0f) * 46.9f;
 697              		.loc 1 435 3 is_stmt 1 view .LVU152
 698              		.loc 1 435 11 is_stmt 0 view .LVU153
 699 0004 F8EEE77A 		vcvt.f32.s32	s15, s15
 700              		.loc 1 435 24 view .LVU154
 701 0008 9FED040A 		vldr.32	s0, .L44
 702 000c 67EE807A 		vmul.f32	s15, s15, s0
 436:Drivers/lsm303agr/Src/lsm303agr_reg.c **** }
 703              		.loc 1 436 1 view .LVU155
 704 0010 9FED030A 		vldr.32	s0, .L44+4
 705 0014 27EE800A 		vmul.f32	s0, s15, s0
 706 0018 7047     		bx	lr
 707              	.L45:
 708 001a 00BF     		.align	2
 709              	.L44:
 710 001c 0000803C 		.word	1015021568
 711 0020 9A993B42 		.word	1111202202
 712              		.cfi_endproc
 713              	.LFE148:
 715              		.section	.text.lsm303agr_from_lsb_nm_to_celsius,"ax",%progbits
 716              		.align	1
 717              		.global	lsm303agr_from_lsb_nm_to_celsius
 718              		.syntax unified
 719              		.thumb
 720              		.thumb_func
 722              	lsm303agr_from_lsb_nm_to_celsius:
 723              	.LVL45:
 724              	.LFB149:
 437:Drivers/lsm303agr/Src/lsm303agr_reg.c **** 
 438:Drivers/lsm303agr/Src/lsm303agr_reg.c **** float_t lsm303agr_from_lsb_nm_to_celsius(int16_t lsb)
ARM GAS  C:\Users\SF\AppData\Local\Temp\ccFGOSN0.s 			page 21


 439:Drivers/lsm303agr/Src/lsm303agr_reg.c **** {
 725              		.loc 1 439 1 is_stmt 1 view -0
 726              		.cfi_startproc
 727              		@ args = 0, pretend = 0, frame = 0
 728              		@ frame_needed = 0, uses_anonymous_args = 0
 729              		@ link register save eliminated.
 730              		.loc 1 439 1 is_stmt 0 view .LVU157
 731 0000 07EE900A 		vmov	s15, r0	@ int
 440:Drivers/lsm303agr/Src/lsm303agr_reg.c ****   return (((float_t)lsb / 64.0f) / 4.0f) + 25.0f;
 732              		.loc 1 440 3 is_stmt 1 view .LVU158
 733              		.loc 1 440 12 is_stmt 0 view .LVU159
 734 0004 F8EEE77A 		vcvt.f32.s32	s15, s15
 735              		.loc 1 440 25 view .LVU160
 736 0008 9FED060A 		vldr.32	s0, .L47
 737 000c 67EE807A 		vmul.f32	s15, s15, s0
 738              		.loc 1 440 34 view .LVU161
 739 0010 B5EE000A 		vmov.f32	s0, #2.5e-1
 740 0014 67EE807A 		vmul.f32	s15, s15, s0
 441:Drivers/lsm303agr/Src/lsm303agr_reg.c **** }
 741              		.loc 1 441 1 view .LVU162
 742 0018 B3EE090A 		vmov.f32	s0, #2.5e+1
 743 001c 37EE800A 		vadd.f32	s0, s15, s0
 744 0020 7047     		bx	lr
 745              	.L48:
 746 0022 00BF     		.align	2
 747              	.L47:
 748 0024 0000803C 		.word	1015021568
 749              		.cfi_endproc
 750              	.LFE149:
 752              		.section	.text.lsm303agr_from_fs_2g_lp_to_mg,"ax",%progbits
 753              		.align	1
 754              		.global	lsm303agr_from_fs_2g_lp_to_mg
 755              		.syntax unified
 756              		.thumb
 757              		.thumb_func
 759              	lsm303agr_from_fs_2g_lp_to_mg:
 760              	.LVL46:
 761              	.LFB150:
 442:Drivers/lsm303agr/Src/lsm303agr_reg.c **** 
 443:Drivers/lsm303agr/Src/lsm303agr_reg.c **** float_t lsm303agr_from_fs_2g_lp_to_mg(int16_t lsb)
 444:Drivers/lsm303agr/Src/lsm303agr_reg.c **** {
 762              		.loc 1 444 1 is_stmt 1 view -0
 763              		.cfi_startproc
 764              		@ args = 0, pretend = 0, frame = 0
 765              		@ frame_needed = 0, uses_anonymous_args = 0
 766              		@ link register save eliminated.
 767              		.loc 1 444 1 is_stmt 0 view .LVU164
 768 0000 07EE900A 		vmov	s15, r0	@ int
 445:Drivers/lsm303agr/Src/lsm303agr_reg.c ****   return ((float_t)lsb / 256.0f) * 15.63f;
 769              		.loc 1 445 3 is_stmt 1 view .LVU165
 770              		.loc 1 445 11 is_stmt 0 view .LVU166
 771 0004 F8EEE77A 		vcvt.f32.s32	s15, s15
 772              		.loc 1 445 24 view .LVU167
 773 0008 9FED040A 		vldr.32	s0, .L50
 774 000c 67EE807A 		vmul.f32	s15, s15, s0
 446:Drivers/lsm303agr/Src/lsm303agr_reg.c **** }
 775              		.loc 1 446 1 view .LVU168
ARM GAS  C:\Users\SF\AppData\Local\Temp\ccFGOSN0.s 			page 22


 776 0010 9FED030A 		vldr.32	s0, .L50+4
 777 0014 27EE800A 		vmul.f32	s0, s15, s0
 778 0018 7047     		bx	lr
 779              	.L51:
 780 001a 00BF     		.align	2
 781              	.L50:
 782 001c 0000803B 		.word	998244352
 783 0020 7B147A41 		.word	1098519675
 784              		.cfi_endproc
 785              	.LFE150:
 787              		.section	.text.lsm303agr_from_fs_4g_lp_to_mg,"ax",%progbits
 788              		.align	1
 789              		.global	lsm303agr_from_fs_4g_lp_to_mg
 790              		.syntax unified
 791              		.thumb
 792              		.thumb_func
 794              	lsm303agr_from_fs_4g_lp_to_mg:
 795              	.LVL47:
 796              	.LFB151:
 447:Drivers/lsm303agr/Src/lsm303agr_reg.c **** 
 448:Drivers/lsm303agr/Src/lsm303agr_reg.c **** float_t lsm303agr_from_fs_4g_lp_to_mg(int16_t lsb)
 449:Drivers/lsm303agr/Src/lsm303agr_reg.c **** {
 797              		.loc 1 449 1 is_stmt 1 view -0
 798              		.cfi_startproc
 799              		@ args = 0, pretend = 0, frame = 0
 800              		@ frame_needed = 0, uses_anonymous_args = 0
 801              		@ link register save eliminated.
 802              		.loc 1 449 1 is_stmt 0 view .LVU170
 803 0000 07EE900A 		vmov	s15, r0	@ int
 450:Drivers/lsm303agr/Src/lsm303agr_reg.c ****   return ((float_t)lsb / 256.0f) * 31.26f;
 804              		.loc 1 450 3 is_stmt 1 view .LVU171
 805              		.loc 1 450 11 is_stmt 0 view .LVU172
 806 0004 F8EEE77A 		vcvt.f32.s32	s15, s15
 807              		.loc 1 450 24 view .LVU173
 808 0008 9FED040A 		vldr.32	s0, .L53
 809 000c 67EE807A 		vmul.f32	s15, s15, s0
 451:Drivers/lsm303agr/Src/lsm303agr_reg.c **** }
 810              		.loc 1 451 1 view .LVU174
 811 0010 9FED030A 		vldr.32	s0, .L53+4
 812 0014 27EE800A 		vmul.f32	s0, s15, s0
 813 0018 7047     		bx	lr
 814              	.L54:
 815 001a 00BF     		.align	2
 816              	.L53:
 817 001c 0000803B 		.word	998244352
 818 0020 7B14FA41 		.word	1106908283
 819              		.cfi_endproc
 820              	.LFE151:
 822              		.section	.text.lsm303agr_from_fs_8g_lp_to_mg,"ax",%progbits
 823              		.align	1
 824              		.global	lsm303agr_from_fs_8g_lp_to_mg
 825              		.syntax unified
 826              		.thumb
 827              		.thumb_func
 829              	lsm303agr_from_fs_8g_lp_to_mg:
 830              	.LVL48:
 831              	.LFB152:
ARM GAS  C:\Users\SF\AppData\Local\Temp\ccFGOSN0.s 			page 23


 452:Drivers/lsm303agr/Src/lsm303agr_reg.c **** 
 453:Drivers/lsm303agr/Src/lsm303agr_reg.c **** float_t lsm303agr_from_fs_8g_lp_to_mg(int16_t lsb)
 454:Drivers/lsm303agr/Src/lsm303agr_reg.c **** {
 832              		.loc 1 454 1 is_stmt 1 view -0
 833              		.cfi_startproc
 834              		@ args = 0, pretend = 0, frame = 0
 835              		@ frame_needed = 0, uses_anonymous_args = 0
 836              		@ link register save eliminated.
 837              		.loc 1 454 1 is_stmt 0 view .LVU176
 838 0000 07EE900A 		vmov	s15, r0	@ int
 455:Drivers/lsm303agr/Src/lsm303agr_reg.c ****   return ((float_t)lsb / 256.0f) * 62.52f;
 839              		.loc 1 455 3 is_stmt 1 view .LVU177
 840              		.loc 1 455 11 is_stmt 0 view .LVU178
 841 0004 F8EEE77A 		vcvt.f32.s32	s15, s15
 842              		.loc 1 455 24 view .LVU179
 843 0008 9FED040A 		vldr.32	s0, .L56
 844 000c 67EE807A 		vmul.f32	s15, s15, s0
 456:Drivers/lsm303agr/Src/lsm303agr_reg.c **** }
 845              		.loc 1 456 1 view .LVU180
 846 0010 9FED030A 		vldr.32	s0, .L56+4
 847 0014 27EE800A 		vmul.f32	s0, s15, s0
 848 0018 7047     		bx	lr
 849              	.L57:
 850 001a 00BF     		.align	2
 851              	.L56:
 852 001c 0000803B 		.word	998244352
 853 0020 7B147A42 		.word	1115296891
 854              		.cfi_endproc
 855              	.LFE152:
 857              		.section	.text.lsm303agr_from_fs_16g_lp_to_mg,"ax",%progbits
 858              		.align	1
 859              		.global	lsm303agr_from_fs_16g_lp_to_mg
 860              		.syntax unified
 861              		.thumb
 862              		.thumb_func
 864              	lsm303agr_from_fs_16g_lp_to_mg:
 865              	.LVL49:
 866              	.LFB153:
 457:Drivers/lsm303agr/Src/lsm303agr_reg.c **** 
 458:Drivers/lsm303agr/Src/lsm303agr_reg.c **** float_t lsm303agr_from_fs_16g_lp_to_mg(int16_t lsb)
 459:Drivers/lsm303agr/Src/lsm303agr_reg.c **** {
 867              		.loc 1 459 1 is_stmt 1 view -0
 868              		.cfi_startproc
 869              		@ args = 0, pretend = 0, frame = 0
 870              		@ frame_needed = 0, uses_anonymous_args = 0
 871              		@ link register save eliminated.
 872              		.loc 1 459 1 is_stmt 0 view .LVU182
 873 0000 07EE900A 		vmov	s15, r0	@ int
 460:Drivers/lsm303agr/Src/lsm303agr_reg.c ****   return ((float_t)lsb / 256.0f) * 187.58f;
 874              		.loc 1 460 3 is_stmt 1 view .LVU183
 875              		.loc 1 460 11 is_stmt 0 view .LVU184
 876 0004 F8EEE77A 		vcvt.f32.s32	s15, s15
 877              		.loc 1 460 24 view .LVU185
 878 0008 9FED040A 		vldr.32	s0, .L59
 879 000c 67EE807A 		vmul.f32	s15, s15, s0
 461:Drivers/lsm303agr/Src/lsm303agr_reg.c **** }
 880              		.loc 1 461 1 view .LVU186
ARM GAS  C:\Users\SF\AppData\Local\Temp\ccFGOSN0.s 			page 24


 881 0010 9FED030A 		vldr.32	s0, .L59+4
 882 0014 27EE800A 		vmul.f32	s0, s15, s0
 883 0018 7047     		bx	lr
 884              	.L60:
 885 001a 00BF     		.align	2
 886              	.L59:
 887 001c 0000803B 		.word	998244352
 888 0020 7B943B43 		.word	1127978107
 889              		.cfi_endproc
 890              	.LFE153:
 892              		.section	.text.lsm303agr_from_lsb_lp_to_celsius,"ax",%progbits
 893              		.align	1
 894              		.global	lsm303agr_from_lsb_lp_to_celsius
 895              		.syntax unified
 896              		.thumb
 897              		.thumb_func
 899              	lsm303agr_from_lsb_lp_to_celsius:
 900              	.LVL50:
 901              	.LFB154:
 462:Drivers/lsm303agr/Src/lsm303agr_reg.c **** 
 463:Drivers/lsm303agr/Src/lsm303agr_reg.c **** float_t lsm303agr_from_lsb_lp_to_celsius(int16_t lsb)
 464:Drivers/lsm303agr/Src/lsm303agr_reg.c **** {
 902              		.loc 1 464 1 is_stmt 1 view -0
 903              		.cfi_startproc
 904              		@ args = 0, pretend = 0, frame = 0
 905              		@ frame_needed = 0, uses_anonymous_args = 0
 906              		@ link register save eliminated.
 907              		.loc 1 464 1 is_stmt 0 view .LVU188
 908 0000 07EE900A 		vmov	s15, r0	@ int
 465:Drivers/lsm303agr/Src/lsm303agr_reg.c ****   return (((float_t)lsb / 256.0f) * 1.0f) + 25.0f;
 909              		.loc 1 465 3 is_stmt 1 view .LVU189
 910              		.loc 1 465 12 is_stmt 0 view .LVU190
 911 0004 F8EEE77A 		vcvt.f32.s32	s15, s15
 912              		.loc 1 465 35 view .LVU191
 913 0008 9FED040A 		vldr.32	s0, .L62
 914 000c 67EE807A 		vmul.f32	s15, s15, s0
 466:Drivers/lsm303agr/Src/lsm303agr_reg.c **** }
 915              		.loc 1 466 1 view .LVU192
 916 0010 B3EE090A 		vmov.f32	s0, #2.5e+1
 917 0014 37EE800A 		vadd.f32	s0, s15, s0
 918 0018 7047     		bx	lr
 919              	.L63:
 920 001a 00BF     		.align	2
 921              	.L62:
 922 001c 0000803B 		.word	998244352
 923              		.cfi_endproc
 924              	.LFE154:
 926              		.section	.text.lsm303agr_from_lsb_to_mgauss,"ax",%progbits
 927              		.align	1
 928              		.global	lsm303agr_from_lsb_to_mgauss
 929              		.syntax unified
 930              		.thumb
 931              		.thumb_func
 933              	lsm303agr_from_lsb_to_mgauss:
 934              	.LVL51:
 935              	.LFB155:
 467:Drivers/lsm303agr/Src/lsm303agr_reg.c **** 
ARM GAS  C:\Users\SF\AppData\Local\Temp\ccFGOSN0.s 			page 25


 468:Drivers/lsm303agr/Src/lsm303agr_reg.c **** float_t lsm303agr_from_lsb_to_mgauss(int16_t lsb)
 469:Drivers/lsm303agr/Src/lsm303agr_reg.c **** {
 936              		.loc 1 469 1 is_stmt 1 view -0
 937              		.cfi_startproc
 938              		@ args = 0, pretend = 0, frame = 0
 939              		@ frame_needed = 0, uses_anonymous_args = 0
 940              		@ link register save eliminated.
 941              		.loc 1 469 1 is_stmt 0 view .LVU194
 942 0000 07EE900A 		vmov	s15, r0	@ int
 470:Drivers/lsm303agr/Src/lsm303agr_reg.c ****   return (float_t)lsb * 1.5f;
 943              		.loc 1 470 3 is_stmt 1 view .LVU195
 944              		.loc 1 470 10 is_stmt 0 view .LVU196
 945 0004 F8EEE77A 		vcvt.f32.s32	s15, s15
 471:Drivers/lsm303agr/Src/lsm303agr_reg.c **** }
 946              		.loc 1 471 1 view .LVU197
 947 0008 B7EE080A 		vmov.f32	s0, #1.5e+0
 948 000c 27EE800A 		vmul.f32	s0, s15, s0
 949 0010 7047     		bx	lr
 950              		.cfi_endproc
 951              	.LFE155:
 953              		.section	.text.lsm303agr_temp_status_reg_get,"ax",%progbits
 954              		.align	1
 955              		.global	lsm303agr_temp_status_reg_get
 956              		.syntax unified
 957              		.thumb
 958              		.thumb_func
 960              	lsm303agr_temp_status_reg_get:
 961              	.LVL52:
 962              	.LFB156:
 472:Drivers/lsm303agr/Src/lsm303agr_reg.c **** 
 473:Drivers/lsm303agr/Src/lsm303agr_reg.c **** /**
 474:Drivers/lsm303agr/Src/lsm303agr_reg.c ****   * @}
 475:Drivers/lsm303agr/Src/lsm303agr_reg.c ****   *
 476:Drivers/lsm303agr/Src/lsm303agr_reg.c ****   */
 477:Drivers/lsm303agr/Src/lsm303agr_reg.c **** 
 478:Drivers/lsm303agr/Src/lsm303agr_reg.c **** /**
 479:Drivers/lsm303agr/Src/lsm303agr_reg.c ****   * @defgroup   LSM303AGR_Data_generation
 480:Drivers/lsm303agr/Src/lsm303agr_reg.c ****   * @brief      This section group all the functions concerning data generation
 481:Drivers/lsm303agr/Src/lsm303agr_reg.c ****   * @{
 482:Drivers/lsm303agr/Src/lsm303agr_reg.c ****   *
 483:Drivers/lsm303agr/Src/lsm303agr_reg.c ****   */
 484:Drivers/lsm303agr/Src/lsm303agr_reg.c **** 
 485:Drivers/lsm303agr/Src/lsm303agr_reg.c **** /**
 486:Drivers/lsm303agr/Src/lsm303agr_reg.c ****   * @brief  Temperature status register.[get]
 487:Drivers/lsm303agr/Src/lsm303agr_reg.c ****   *
 488:Drivers/lsm303agr/Src/lsm303agr_reg.c ****   * @param  ctx    Read / write interface definitions.(ptr)
 489:Drivers/lsm303agr/Src/lsm303agr_reg.c ****   * @param  buff   Buffer that stores the data read.(ptr)
 490:Drivers/lsm303agr/Src/lsm303agr_reg.c ****   * @retval        Interface status (MANDATORY: return 0 -> no Error).
 491:Drivers/lsm303agr/Src/lsm303agr_reg.c ****   *
 492:Drivers/lsm303agr/Src/lsm303agr_reg.c ****   */
 493:Drivers/lsm303agr/Src/lsm303agr_reg.c **** int32_t lsm303agr_temp_status_reg_get(stmdev_ctx_t *ctx,
 494:Drivers/lsm303agr/Src/lsm303agr_reg.c ****                                       uint8_t *buff)
 495:Drivers/lsm303agr/Src/lsm303agr_reg.c **** {
 963              		.loc 1 495 1 is_stmt 1 view -0
 964              		.cfi_startproc
 965              		@ args = 0, pretend = 0, frame = 0
 966              		@ frame_needed = 0, uses_anonymous_args = 0
ARM GAS  C:\Users\SF\AppData\Local\Temp\ccFGOSN0.s 			page 26


 967              		.loc 1 495 1 is_stmt 0 view .LVU199
 968 0000 08B5     		push	{r3, lr}
 969              	.LCFI11:
 970              		.cfi_def_cfa_offset 8
 971              		.cfi_offset 3, -8
 972              		.cfi_offset 14, -4
 973 0002 0A46     		mov	r2, r1
 496:Drivers/lsm303agr/Src/lsm303agr_reg.c ****   int32_t ret;
 974              		.loc 1 496 3 is_stmt 1 view .LVU200
 497:Drivers/lsm303agr/Src/lsm303agr_reg.c **** 
 498:Drivers/lsm303agr/Src/lsm303agr_reg.c ****   ret = lsm303agr_read_reg(ctx, LSM303AGR_STATUS_REG_AUX_A, buff, 1);
 975              		.loc 1 498 3 view .LVU201
 976              		.loc 1 498 9 is_stmt 0 view .LVU202
 977 0004 0123     		movs	r3, #1
 978 0006 0721     		movs	r1, #7
 979              	.LVL53:
 980              		.loc 1 498 9 view .LVU203
 981 0008 FFF7FEFF 		bl	lsm303agr_read_reg
 982              	.LVL54:
 499:Drivers/lsm303agr/Src/lsm303agr_reg.c **** 
 500:Drivers/lsm303agr/Src/lsm303agr_reg.c ****   return ret;
 983              		.loc 1 500 3 is_stmt 1 view .LVU204
 501:Drivers/lsm303agr/Src/lsm303agr_reg.c **** }
 984              		.loc 1 501 1 is_stmt 0 view .LVU205
 985 000c 08BD     		pop	{r3, pc}
 986              		.cfi_endproc
 987              	.LFE156:
 989              		.section	.text.lsm303agr_temp_data_ready_get,"ax",%progbits
 990              		.align	1
 991              		.global	lsm303agr_temp_data_ready_get
 992              		.syntax unified
 993              		.thumb
 994              		.thumb_func
 996              	lsm303agr_temp_data_ready_get:
 997              	.LVL55:
 998              	.LFB157:
 502:Drivers/lsm303agr/Src/lsm303agr_reg.c **** 
 503:Drivers/lsm303agr/Src/lsm303agr_reg.c **** /**
 504:Drivers/lsm303agr/Src/lsm303agr_reg.c ****   * @brief  Temperature data available.[get]
 505:Drivers/lsm303agr/Src/lsm303agr_reg.c ****   *
 506:Drivers/lsm303agr/Src/lsm303agr_reg.c ****   * @param  ctx    Read / write interface definitions.(ptr)
 507:Drivers/lsm303agr/Src/lsm303agr_reg.c ****   * @param  val    Get the values of tda in reg STATUS_REG_AUX_A.(ptr)
 508:Drivers/lsm303agr/Src/lsm303agr_reg.c ****   * @retval        Interface status (MANDATORY: return 0 -> no Error).
 509:Drivers/lsm303agr/Src/lsm303agr_reg.c ****   *
 510:Drivers/lsm303agr/Src/lsm303agr_reg.c ****   */
 511:Drivers/lsm303agr/Src/lsm303agr_reg.c **** int32_t lsm303agr_temp_data_ready_get(stmdev_ctx_t *ctx, uint8_t *val)
 512:Drivers/lsm303agr/Src/lsm303agr_reg.c **** {
 999              		.loc 1 512 1 is_stmt 1 view -0
 1000              		.cfi_startproc
 1001              		@ args = 0, pretend = 0, frame = 8
 1002              		@ frame_needed = 0, uses_anonymous_args = 0
 1003              		.loc 1 512 1 is_stmt 0 view .LVU207
 1004 0000 10B5     		push	{r4, lr}
 1005              	.LCFI12:
 1006              		.cfi_def_cfa_offset 8
 1007              		.cfi_offset 4, -8
 1008              		.cfi_offset 14, -4
ARM GAS  C:\Users\SF\AppData\Local\Temp\ccFGOSN0.s 			page 27


 1009 0002 82B0     		sub	sp, sp, #8
 1010              	.LCFI13:
 1011              		.cfi_def_cfa_offset 16
 1012 0004 0C46     		mov	r4, r1
 513:Drivers/lsm303agr/Src/lsm303agr_reg.c ****   lsm303agr_status_reg_aux_a_t status_reg_aux_a;
 1013              		.loc 1 513 3 is_stmt 1 view .LVU208
 514:Drivers/lsm303agr/Src/lsm303agr_reg.c ****   int32_t ret;
 1014              		.loc 1 514 3 view .LVU209
 515:Drivers/lsm303agr/Src/lsm303agr_reg.c **** 
 516:Drivers/lsm303agr/Src/lsm303agr_reg.c ****   ret = lsm303agr_read_reg(ctx, LSM303AGR_STATUS_REG_AUX_A,
 1015              		.loc 1 516 3 view .LVU210
 1016              		.loc 1 516 9 is_stmt 0 view .LVU211
 1017 0006 0123     		movs	r3, #1
 1018 0008 01AA     		add	r2, sp, #4
 1019 000a 0721     		movs	r1, #7
 1020              	.LVL56:
 1021              		.loc 1 516 9 view .LVU212
 1022 000c FFF7FEFF 		bl	lsm303agr_read_reg
 1023              	.LVL57:
 517:Drivers/lsm303agr/Src/lsm303agr_reg.c ****                            (uint8_t *)&status_reg_aux_a, 1);
 518:Drivers/lsm303agr/Src/lsm303agr_reg.c ****   *val = status_reg_aux_a.tda;
 1024              		.loc 1 518 3 is_stmt 1 view .LVU213
 1025              		.loc 1 518 26 is_stmt 0 view .LVU214
 1026 0010 9DF80430 		ldrb	r3, [sp, #4]	@ zero_extendqisi2
 1027 0014 C3F38003 		ubfx	r3, r3, #2, #1
 1028              		.loc 1 518 8 view .LVU215
 1029 0018 2370     		strb	r3, [r4]
 519:Drivers/lsm303agr/Src/lsm303agr_reg.c **** 
 520:Drivers/lsm303agr/Src/lsm303agr_reg.c ****   return ret;
 1030              		.loc 1 520 3 is_stmt 1 view .LVU216
 521:Drivers/lsm303agr/Src/lsm303agr_reg.c **** }
 1031              		.loc 1 521 1 is_stmt 0 view .LVU217
 1032 001a 02B0     		add	sp, sp, #8
 1033              	.LCFI14:
 1034              		.cfi_def_cfa_offset 8
 1035              		@ sp needed
 1036 001c 10BD     		pop	{r4, pc}
 1037              		.loc 1 521 1 view .LVU218
 1038              		.cfi_endproc
 1039              	.LFE157:
 1041              		.section	.text.lsm303agr_temp_data_ovr_get,"ax",%progbits
 1042              		.align	1
 1043              		.global	lsm303agr_temp_data_ovr_get
 1044              		.syntax unified
 1045              		.thumb
 1046              		.thumb_func
 1048              	lsm303agr_temp_data_ovr_get:
 1049              	.LVL58:
 1050              	.LFB158:
 522:Drivers/lsm303agr/Src/lsm303agr_reg.c **** 
 523:Drivers/lsm303agr/Src/lsm303agr_reg.c **** /**
 524:Drivers/lsm303agr/Src/lsm303agr_reg.c ****   * @brief  Temperature data overrun.[get]
 525:Drivers/lsm303agr/Src/lsm303agr_reg.c ****   *
 526:Drivers/lsm303agr/Src/lsm303agr_reg.c ****   * @param  ctx    Read / write interface definitions.(ptr)
 527:Drivers/lsm303agr/Src/lsm303agr_reg.c ****   * @param  val    Get the values of tor in reg STATUS_REG_AUX_A.(ptr)
 528:Drivers/lsm303agr/Src/lsm303agr_reg.c ****   * @retval        Interface status (MANDATORY: return 0 -> no Error).
 529:Drivers/lsm303agr/Src/lsm303agr_reg.c ****   *
ARM GAS  C:\Users\SF\AppData\Local\Temp\ccFGOSN0.s 			page 28


 530:Drivers/lsm303agr/Src/lsm303agr_reg.c ****   */
 531:Drivers/lsm303agr/Src/lsm303agr_reg.c **** int32_t lsm303agr_temp_data_ovr_get(stmdev_ctx_t *ctx, uint8_t *val)
 532:Drivers/lsm303agr/Src/lsm303agr_reg.c **** {
 1051              		.loc 1 532 1 is_stmt 1 view -0
 1052              		.cfi_startproc
 1053              		@ args = 0, pretend = 0, frame = 8
 1054              		@ frame_needed = 0, uses_anonymous_args = 0
 1055              		.loc 1 532 1 is_stmt 0 view .LVU220
 1056 0000 10B5     		push	{r4, lr}
 1057              	.LCFI15:
 1058              		.cfi_def_cfa_offset 8
 1059              		.cfi_offset 4, -8
 1060              		.cfi_offset 14, -4
 1061 0002 82B0     		sub	sp, sp, #8
 1062              	.LCFI16:
 1063              		.cfi_def_cfa_offset 16
 1064 0004 0C46     		mov	r4, r1
 533:Drivers/lsm303agr/Src/lsm303agr_reg.c ****   lsm303agr_status_reg_aux_a_t status_reg_aux_a;
 1065              		.loc 1 533 3 is_stmt 1 view .LVU221
 534:Drivers/lsm303agr/Src/lsm303agr_reg.c ****   int32_t ret;
 1066              		.loc 1 534 3 view .LVU222
 535:Drivers/lsm303agr/Src/lsm303agr_reg.c **** 
 536:Drivers/lsm303agr/Src/lsm303agr_reg.c ****   ret = lsm303agr_read_reg(ctx, LSM303AGR_STATUS_REG_AUX_A,
 1067              		.loc 1 536 3 view .LVU223
 1068              		.loc 1 536 9 is_stmt 0 view .LVU224
 1069 0006 0123     		movs	r3, #1
 1070 0008 01AA     		add	r2, sp, #4
 1071 000a 0721     		movs	r1, #7
 1072              	.LVL59:
 1073              		.loc 1 536 9 view .LVU225
 1074 000c FFF7FEFF 		bl	lsm303agr_read_reg
 1075              	.LVL60:
 537:Drivers/lsm303agr/Src/lsm303agr_reg.c ****                            (uint8_t *)&status_reg_aux_a, 1);
 538:Drivers/lsm303agr/Src/lsm303agr_reg.c ****   *val = status_reg_aux_a.tor;
 1076              		.loc 1 538 3 is_stmt 1 view .LVU226
 1077              		.loc 1 538 26 is_stmt 0 view .LVU227
 1078 0010 9DF80430 		ldrb	r3, [sp, #4]	@ zero_extendqisi2
 1079 0014 C3F38013 		ubfx	r3, r3, #6, #1
 1080              		.loc 1 538 8 view .LVU228
 1081 0018 2370     		strb	r3, [r4]
 539:Drivers/lsm303agr/Src/lsm303agr_reg.c **** 
 540:Drivers/lsm303agr/Src/lsm303agr_reg.c ****   return ret;
 1082              		.loc 1 540 3 is_stmt 1 view .LVU229
 541:Drivers/lsm303agr/Src/lsm303agr_reg.c **** }
 1083              		.loc 1 541 1 is_stmt 0 view .LVU230
 1084 001a 02B0     		add	sp, sp, #8
 1085              	.LCFI17:
 1086              		.cfi_def_cfa_offset 8
 1087              		@ sp needed
 1088 001c 10BD     		pop	{r4, pc}
 1089              		.loc 1 541 1 view .LVU231
 1090              		.cfi_endproc
 1091              	.LFE158:
 1093              		.section	.text.lsm303agr_temperature_raw_get,"ax",%progbits
 1094              		.align	1
 1095              		.global	lsm303agr_temperature_raw_get
 1096              		.syntax unified
ARM GAS  C:\Users\SF\AppData\Local\Temp\ccFGOSN0.s 			page 29


 1097              		.thumb
 1098              		.thumb_func
 1100              	lsm303agr_temperature_raw_get:
 1101              	.LVL61:
 1102              	.LFB159:
 542:Drivers/lsm303agr/Src/lsm303agr_reg.c **** 
 543:Drivers/lsm303agr/Src/lsm303agr_reg.c **** /**
 544:Drivers/lsm303agr/Src/lsm303agr_reg.c ****   * @brief  Temperature output value.[get]
 545:Drivers/lsm303agr/Src/lsm303agr_reg.c ****   *
 546:Drivers/lsm303agr/Src/lsm303agr_reg.c ****   * @param  ctx    Read / write interface definitions.(ptr)
 547:Drivers/lsm303agr/Src/lsm303agr_reg.c ****   * @param  buff   Buffer that stores the data read.(ptr)
 548:Drivers/lsm303agr/Src/lsm303agr_reg.c ****   * @retval        Interface status (MANDATORY: return 0 -> no Error).
 549:Drivers/lsm303agr/Src/lsm303agr_reg.c ****   *
 550:Drivers/lsm303agr/Src/lsm303agr_reg.c ****   */
 551:Drivers/lsm303agr/Src/lsm303agr_reg.c **** int32_t lsm303agr_temperature_raw_get(stmdev_ctx_t *ctx, int16_t *val)
 552:Drivers/lsm303agr/Src/lsm303agr_reg.c **** {
 1103              		.loc 1 552 1 is_stmt 1 view -0
 1104              		.cfi_startproc
 1105              		@ args = 0, pretend = 0, frame = 8
 1106              		@ frame_needed = 0, uses_anonymous_args = 0
 1107              		.loc 1 552 1 is_stmt 0 view .LVU233
 1108 0000 10B5     		push	{r4, lr}
 1109              	.LCFI18:
 1110              		.cfi_def_cfa_offset 8
 1111              		.cfi_offset 4, -8
 1112              		.cfi_offset 14, -4
 1113 0002 82B0     		sub	sp, sp, #8
 1114              	.LCFI19:
 1115              		.cfi_def_cfa_offset 16
 1116 0004 0C46     		mov	r4, r1
 553:Drivers/lsm303agr/Src/lsm303agr_reg.c ****   uint8_t buff[2];
 1117              		.loc 1 553 3 is_stmt 1 view .LVU234
 554:Drivers/lsm303agr/Src/lsm303agr_reg.c ****   int32_t ret;
 1118              		.loc 1 554 3 view .LVU235
 555:Drivers/lsm303agr/Src/lsm303agr_reg.c **** 
 556:Drivers/lsm303agr/Src/lsm303agr_reg.c ****   ret = lsm303agr_read_reg(ctx, LSM303AGR_OUT_TEMP_L_A, buff, 2);
 1119              		.loc 1 556 3 view .LVU236
 1120              		.loc 1 556 9 is_stmt 0 view .LVU237
 1121 0006 0223     		movs	r3, #2
 1122 0008 01AA     		add	r2, sp, #4
 1123 000a 0C21     		movs	r1, #12
 1124              	.LVL62:
 1125              		.loc 1 556 9 view .LVU238
 1126 000c FFF7FEFF 		bl	lsm303agr_read_reg
 1127              	.LVL63:
 557:Drivers/lsm303agr/Src/lsm303agr_reg.c ****   val[0] = (int16_t)buff[1];
 1128              		.loc 1 557 3 is_stmt 1 view .LVU239
 1129              		.loc 1 557 12 is_stmt 0 view .LVU240
 1130 0010 9DF80520 		ldrb	r2, [sp, #5]	@ zero_extendqisi2
 1131              		.loc 1 557 10 view .LVU241
 1132 0014 2280     		strh	r2, [r4]	@ movhi
 558:Drivers/lsm303agr/Src/lsm303agr_reg.c ****   val[0] = (val[0] * 256) + (int16_t)buff[0];
 1133              		.loc 1 558 3 is_stmt 1 view .LVU242
 1134              		.loc 1 558 42 is_stmt 0 view .LVU243
 1135 0016 9DF80430 		ldrb	r3, [sp, #4]	@ zero_extendqisi2
 1136              		.loc 1 558 27 view .LVU244
 1137 001a 03EB0223 		add	r3, r3, r2, lsl #8
ARM GAS  C:\Users\SF\AppData\Local\Temp\ccFGOSN0.s 			page 30


 1138              		.loc 1 558 10 view .LVU245
 1139 001e 2380     		strh	r3, [r4]	@ movhi
 559:Drivers/lsm303agr/Src/lsm303agr_reg.c **** 
 560:Drivers/lsm303agr/Src/lsm303agr_reg.c ****   return ret;
 1140              		.loc 1 560 3 is_stmt 1 view .LVU246
 561:Drivers/lsm303agr/Src/lsm303agr_reg.c **** }
 1141              		.loc 1 561 1 is_stmt 0 view .LVU247
 1142 0020 02B0     		add	sp, sp, #8
 1143              	.LCFI20:
 1144              		.cfi_def_cfa_offset 8
 1145              		@ sp needed
 1146 0022 10BD     		pop	{r4, pc}
 1147              		.loc 1 561 1 view .LVU248
 1148              		.cfi_endproc
 1149              	.LFE159:
 1151              		.section	.text.lsm303agr_temperature_meas_set,"ax",%progbits
 1152              		.align	1
 1153              		.global	lsm303agr_temperature_meas_set
 1154              		.syntax unified
 1155              		.thumb
 1156              		.thumb_func
 1158              	lsm303agr_temperature_meas_set:
 1159              	.LVL64:
 1160              	.LFB160:
 562:Drivers/lsm303agr/Src/lsm303agr_reg.c **** 
 563:Drivers/lsm303agr/Src/lsm303agr_reg.c **** /**
 564:Drivers/lsm303agr/Src/lsm303agr_reg.c ****   * @brief  Temperature sensor enable.[set]
 565:Drivers/lsm303agr/Src/lsm303agr_reg.c ****   *
 566:Drivers/lsm303agr/Src/lsm303agr_reg.c ****   * @param  ctx    Read / write interface definitions.(ptr)
 567:Drivers/lsm303agr/Src/lsm303agr_reg.c ****   * @param  val    Change the values of temp_en in reg TEMP_CFG_REG_A.
 568:Drivers/lsm303agr/Src/lsm303agr_reg.c ****   * @retval        Interface status (MANDATORY: return 0 -> no Error).
 569:Drivers/lsm303agr/Src/lsm303agr_reg.c ****   *
 570:Drivers/lsm303agr/Src/lsm303agr_reg.c ****   */
 571:Drivers/lsm303agr/Src/lsm303agr_reg.c **** int32_t lsm303agr_temperature_meas_set(stmdev_ctx_t *ctx,
 572:Drivers/lsm303agr/Src/lsm303agr_reg.c ****                                        lsm303agr_temp_en_a_t val)
 573:Drivers/lsm303agr/Src/lsm303agr_reg.c **** {
 1161              		.loc 1 573 1 is_stmt 1 view -0
 1162              		.cfi_startproc
 1163              		@ args = 0, pretend = 0, frame = 8
 1164              		@ frame_needed = 0, uses_anonymous_args = 0
 1165              		.loc 1 573 1 is_stmt 0 view .LVU250
 1166 0000 30B5     		push	{r4, r5, lr}
 1167              	.LCFI21:
 1168              		.cfi_def_cfa_offset 12
 1169              		.cfi_offset 4, -12
 1170              		.cfi_offset 5, -8
 1171              		.cfi_offset 14, -4
 1172 0002 83B0     		sub	sp, sp, #12
 1173              	.LCFI22:
 1174              		.cfi_def_cfa_offset 24
 1175 0004 0446     		mov	r4, r0
 1176 0006 0D46     		mov	r5, r1
 574:Drivers/lsm303agr/Src/lsm303agr_reg.c ****   lsm303agr_temp_cfg_reg_a_t temp_cfg_reg_a;
 1177              		.loc 1 574 3 is_stmt 1 view .LVU251
 575:Drivers/lsm303agr/Src/lsm303agr_reg.c ****   int32_t ret;
 1178              		.loc 1 575 3 view .LVU252
 576:Drivers/lsm303agr/Src/lsm303agr_reg.c **** 
ARM GAS  C:\Users\SF\AppData\Local\Temp\ccFGOSN0.s 			page 31


 577:Drivers/lsm303agr/Src/lsm303agr_reg.c ****   ret = lsm303agr_read_reg(ctx, LSM303AGR_TEMP_CFG_REG_A,
 1179              		.loc 1 577 3 view .LVU253
 1180              		.loc 1 577 9 is_stmt 0 view .LVU254
 1181 0008 0123     		movs	r3, #1
 1182 000a 01AA     		add	r2, sp, #4
 1183 000c 1F21     		movs	r1, #31
 1184              	.LVL65:
 1185              		.loc 1 577 9 view .LVU255
 1186 000e FFF7FEFF 		bl	lsm303agr_read_reg
 1187              	.LVL66:
 578:Drivers/lsm303agr/Src/lsm303agr_reg.c ****                            (uint8_t *)&temp_cfg_reg_a, 1);
 579:Drivers/lsm303agr/Src/lsm303agr_reg.c **** 
 580:Drivers/lsm303agr/Src/lsm303agr_reg.c ****   if (ret == 0)
 1188              		.loc 1 580 3 is_stmt 1 view .LVU256
 1189              		.loc 1 580 6 is_stmt 0 view .LVU257
 1190 0012 08B1     		cbz	r0, .L76
 1191              	.LVL67:
 1192              	.L73:
 581:Drivers/lsm303agr/Src/lsm303agr_reg.c ****   {
 582:Drivers/lsm303agr/Src/lsm303agr_reg.c ****     temp_cfg_reg_a.temp_en = (uint8_t)val;
 583:Drivers/lsm303agr/Src/lsm303agr_reg.c ****     ret = lsm303agr_write_reg(ctx, LSM303AGR_TEMP_CFG_REG_A,
 584:Drivers/lsm303agr/Src/lsm303agr_reg.c ****                               (uint8_t *)&temp_cfg_reg_a, 1);
 585:Drivers/lsm303agr/Src/lsm303agr_reg.c ****   }
 586:Drivers/lsm303agr/Src/lsm303agr_reg.c **** 
 587:Drivers/lsm303agr/Src/lsm303agr_reg.c ****   return ret;
 588:Drivers/lsm303agr/Src/lsm303agr_reg.c **** }
 1193              		.loc 1 588 1 view .LVU258
 1194 0014 03B0     		add	sp, sp, #12
 1195              	.LCFI23:
 1196              		.cfi_remember_state
 1197              		.cfi_def_cfa_offset 12
 1198              		@ sp needed
 1199 0016 30BD     		pop	{r4, r5, pc}
 1200              	.LVL68:
 1201              	.L76:
 1202              	.LCFI24:
 1203              		.cfi_restore_state
 582:Drivers/lsm303agr/Src/lsm303agr_reg.c ****     ret = lsm303agr_write_reg(ctx, LSM303AGR_TEMP_CFG_REG_A,
 1204              		.loc 1 582 5 is_stmt 1 view .LVU259
 582:Drivers/lsm303agr/Src/lsm303agr_reg.c ****     ret = lsm303agr_write_reg(ctx, LSM303AGR_TEMP_CFG_REG_A,
 1205              		.loc 1 582 28 is_stmt 0 view .LVU260
 1206 0018 9DF80430 		ldrb	r3, [sp, #4]	@ zero_extendqisi2
 1207 001c 65F38713 		bfi	r3, r5, #6, #2
 1208 0020 8DF80430 		strb	r3, [sp, #4]
 583:Drivers/lsm303agr/Src/lsm303agr_reg.c ****                               (uint8_t *)&temp_cfg_reg_a, 1);
 1209              		.loc 1 583 5 is_stmt 1 view .LVU261
 583:Drivers/lsm303agr/Src/lsm303agr_reg.c ****                               (uint8_t *)&temp_cfg_reg_a, 1);
 1210              		.loc 1 583 11 is_stmt 0 view .LVU262
 1211 0024 0123     		movs	r3, #1
 1212              	.LVL69:
 583:Drivers/lsm303agr/Src/lsm303agr_reg.c ****                               (uint8_t *)&temp_cfg_reg_a, 1);
 1213              		.loc 1 583 11 view .LVU263
 1214 0026 01AA     		add	r2, sp, #4
 1215 0028 1F21     		movs	r1, #31
 1216 002a 2046     		mov	r0, r4
 1217 002c FFF7FEFF 		bl	lsm303agr_write_reg
 1218              	.LVL70:
ARM GAS  C:\Users\SF\AppData\Local\Temp\ccFGOSN0.s 			page 32


 587:Drivers/lsm303agr/Src/lsm303agr_reg.c **** }
 1219              		.loc 1 587 3 is_stmt 1 view .LVU264
 587:Drivers/lsm303agr/Src/lsm303agr_reg.c **** }
 1220              		.loc 1 587 10 is_stmt 0 view .LVU265
 1221 0030 F0E7     		b	.L73
 1222              		.cfi_endproc
 1223              	.LFE160:
 1225              		.section	.text.lsm303agr_temperature_meas_get,"ax",%progbits
 1226              		.align	1
 1227              		.global	lsm303agr_temperature_meas_get
 1228              		.syntax unified
 1229              		.thumb
 1230              		.thumb_func
 1232              	lsm303agr_temperature_meas_get:
 1233              	.LVL71:
 1234              	.LFB161:
 589:Drivers/lsm303agr/Src/lsm303agr_reg.c **** 
 590:Drivers/lsm303agr/Src/lsm303agr_reg.c **** /**
 591:Drivers/lsm303agr/Src/lsm303agr_reg.c ****   * @brief  Temperature sensor enable.[get]
 592:Drivers/lsm303agr/Src/lsm303agr_reg.c ****   *
 593:Drivers/lsm303agr/Src/lsm303agr_reg.c ****   * @param  ctx    Read / write interface definitions.(ptr)
 594:Drivers/lsm303agr/Src/lsm303agr_reg.c ****   * @param  val    Get the values of temp_en in reg TEMP_CFG_REG_A.(ptr)
 595:Drivers/lsm303agr/Src/lsm303agr_reg.c ****   * @retval        Interface status (MANDATORY: return 0 -> no Error).
 596:Drivers/lsm303agr/Src/lsm303agr_reg.c ****   *
 597:Drivers/lsm303agr/Src/lsm303agr_reg.c ****   */
 598:Drivers/lsm303agr/Src/lsm303agr_reg.c **** int32_t lsm303agr_temperature_meas_get(stmdev_ctx_t *ctx,
 599:Drivers/lsm303agr/Src/lsm303agr_reg.c ****                                        lsm303agr_temp_en_a_t *val)
 600:Drivers/lsm303agr/Src/lsm303agr_reg.c **** {
 1235              		.loc 1 600 1 is_stmt 1 view -0
 1236              		.cfi_startproc
 1237              		@ args = 0, pretend = 0, frame = 8
 1238              		@ frame_needed = 0, uses_anonymous_args = 0
 1239              		.loc 1 600 1 is_stmt 0 view .LVU267
 1240 0000 10B5     		push	{r4, lr}
 1241              	.LCFI25:
 1242              		.cfi_def_cfa_offset 8
 1243              		.cfi_offset 4, -8
 1244              		.cfi_offset 14, -4
 1245 0002 82B0     		sub	sp, sp, #8
 1246              	.LCFI26:
 1247              		.cfi_def_cfa_offset 16
 1248 0004 0C46     		mov	r4, r1
 601:Drivers/lsm303agr/Src/lsm303agr_reg.c ****   lsm303agr_temp_cfg_reg_a_t temp_cfg_reg_a;
 1249              		.loc 1 601 3 is_stmt 1 view .LVU268
 602:Drivers/lsm303agr/Src/lsm303agr_reg.c ****   int32_t ret;
 1250              		.loc 1 602 3 view .LVU269
 603:Drivers/lsm303agr/Src/lsm303agr_reg.c **** 
 604:Drivers/lsm303agr/Src/lsm303agr_reg.c ****   ret = lsm303agr_read_reg(ctx, LSM303AGR_TEMP_CFG_REG_A,
 1251              		.loc 1 604 3 view .LVU270
 1252              		.loc 1 604 9 is_stmt 0 view .LVU271
 1253 0006 0123     		movs	r3, #1
 1254 0008 01AA     		add	r2, sp, #4
 1255 000a 1F21     		movs	r1, #31
 1256              	.LVL72:
 1257              		.loc 1 604 9 view .LVU272
 1258 000c FFF7FEFF 		bl	lsm303agr_read_reg
 1259              	.LVL73:
ARM GAS  C:\Users\SF\AppData\Local\Temp\ccFGOSN0.s 			page 33


 605:Drivers/lsm303agr/Src/lsm303agr_reg.c ****                            (uint8_t *)&temp_cfg_reg_a, 1);
 606:Drivers/lsm303agr/Src/lsm303agr_reg.c **** 
 607:Drivers/lsm303agr/Src/lsm303agr_reg.c ****   switch (temp_cfg_reg_a.temp_en)
 1260              		.loc 1 607 3 is_stmt 1 view .LVU273
 1261              		.loc 1 607 25 is_stmt 0 view .LVU274
 1262 0010 9DF80430 		ldrb	r3, [sp, #4]	@ zero_extendqisi2
 1263              		.loc 1 607 3 view .LVU275
 1264 0014 9B09     		lsrs	r3, r3, #6
 1265 0016 04D0     		beq	.L78
 1266 0018 032B     		cmp	r3, #3
 1267 001a 06D0     		beq	.L79
 608:Drivers/lsm303agr/Src/lsm303agr_reg.c ****   {
 609:Drivers/lsm303agr/Src/lsm303agr_reg.c ****     case LSM303AGR_TEMP_DISABLE:
 610:Drivers/lsm303agr/Src/lsm303agr_reg.c ****       *val = LSM303AGR_TEMP_DISABLE;
 611:Drivers/lsm303agr/Src/lsm303agr_reg.c ****       break;
 612:Drivers/lsm303agr/Src/lsm303agr_reg.c **** 
 613:Drivers/lsm303agr/Src/lsm303agr_reg.c ****     case LSM303AGR_TEMP_ENABLE:
 614:Drivers/lsm303agr/Src/lsm303agr_reg.c ****       *val = LSM303AGR_TEMP_ENABLE;
 615:Drivers/lsm303agr/Src/lsm303agr_reg.c ****       break;
 616:Drivers/lsm303agr/Src/lsm303agr_reg.c **** 
 617:Drivers/lsm303agr/Src/lsm303agr_reg.c ****     default:
 618:Drivers/lsm303agr/Src/lsm303agr_reg.c ****       *val = LSM303AGR_TEMP_DISABLE;
 1268              		.loc 1 618 7 is_stmt 1 view .LVU276
 1269              		.loc 1 618 12 is_stmt 0 view .LVU277
 1270 001c 0023     		movs	r3, #0
 1271 001e 2370     		strb	r3, [r4]
 619:Drivers/lsm303agr/Src/lsm303agr_reg.c ****       break;
 1272              		.loc 1 619 7 is_stmt 1 view .LVU278
 620:Drivers/lsm303agr/Src/lsm303agr_reg.c ****   }
 621:Drivers/lsm303agr/Src/lsm303agr_reg.c **** 
 622:Drivers/lsm303agr/Src/lsm303agr_reg.c ****   return ret;
 1273              		.loc 1 622 3 view .LVU279
 1274              		.loc 1 622 10 is_stmt 0 view .LVU280
 1275 0020 01E0     		b	.L77
 1276              	.L78:
 610:Drivers/lsm303agr/Src/lsm303agr_reg.c ****       break;
 1277              		.loc 1 610 7 is_stmt 1 view .LVU281
 610:Drivers/lsm303agr/Src/lsm303agr_reg.c ****       break;
 1278              		.loc 1 610 12 is_stmt 0 view .LVU282
 1279 0022 0023     		movs	r3, #0
 1280 0024 2370     		strb	r3, [r4]
 611:Drivers/lsm303agr/Src/lsm303agr_reg.c **** 
 1281              		.loc 1 611 7 is_stmt 1 view .LVU283
 1282              	.L77:
 623:Drivers/lsm303agr/Src/lsm303agr_reg.c **** }
 1283              		.loc 1 623 1 is_stmt 0 view .LVU284
 1284 0026 02B0     		add	sp, sp, #8
 1285              	.LCFI27:
 1286              		.cfi_remember_state
 1287              		.cfi_def_cfa_offset 8
 1288              		@ sp needed
 1289 0028 10BD     		pop	{r4, pc}
 1290              	.LVL74:
 1291              	.L79:
 1292              	.LCFI28:
 1293              		.cfi_restore_state
 614:Drivers/lsm303agr/Src/lsm303agr_reg.c ****       break;
ARM GAS  C:\Users\SF\AppData\Local\Temp\ccFGOSN0.s 			page 34


 1294              		.loc 1 614 7 is_stmt 1 view .LVU285
 614:Drivers/lsm303agr/Src/lsm303agr_reg.c ****       break;
 1295              		.loc 1 614 12 is_stmt 0 view .LVU286
 1296 002a 0323     		movs	r3, #3
 1297 002c 2370     		strb	r3, [r4]
 615:Drivers/lsm303agr/Src/lsm303agr_reg.c **** 
 1298              		.loc 1 615 7 is_stmt 1 view .LVU287
 1299 002e FAE7     		b	.L77
 1300              		.cfi_endproc
 1301              	.LFE161:
 1303              		.section	.text.lsm303agr_xl_operating_mode_set,"ax",%progbits
 1304              		.align	1
 1305              		.global	lsm303agr_xl_operating_mode_set
 1306              		.syntax unified
 1307              		.thumb
 1308              		.thumb_func
 1310              	lsm303agr_xl_operating_mode_set:
 1311              	.LVL75:
 1312              	.LFB162:
 624:Drivers/lsm303agr/Src/lsm303agr_reg.c **** 
 625:Drivers/lsm303agr/Src/lsm303agr_reg.c **** /**
 626:Drivers/lsm303agr/Src/lsm303agr_reg.c ****   * @brief  Operating mode selection.[set]
 627:Drivers/lsm303agr/Src/lsm303agr_reg.c ****   *
 628:Drivers/lsm303agr/Src/lsm303agr_reg.c ****   * @param  ctx    Read / write interface definitions.(ptr)
 629:Drivers/lsm303agr/Src/lsm303agr_reg.c ****   * @param  val    Change the values of lpen in reg
 630:Drivers/lsm303agr/Src/lsm303agr_reg.c ****   *                CTRL_REG1_A and HR in reg CTRL_REG4_A
 631:Drivers/lsm303agr/Src/lsm303agr_reg.c ****   * @retval        Interface status (MANDATORY: return 0 -> no Error).
 632:Drivers/lsm303agr/Src/lsm303agr_reg.c ****   *
 633:Drivers/lsm303agr/Src/lsm303agr_reg.c ****   */
 634:Drivers/lsm303agr/Src/lsm303agr_reg.c **** int32_t lsm303agr_xl_operating_mode_set(stmdev_ctx_t *ctx,
 635:Drivers/lsm303agr/Src/lsm303agr_reg.c ****                                         lsm303agr_op_md_a_t val)
 636:Drivers/lsm303agr/Src/lsm303agr_reg.c **** {
 1313              		.loc 1 636 1 view -0
 1314              		.cfi_startproc
 1315              		@ args = 0, pretend = 0, frame = 8
 1316              		@ frame_needed = 0, uses_anonymous_args = 0
 1317              		.loc 1 636 1 is_stmt 0 view .LVU289
 1318 0000 70B5     		push	{r4, r5, r6, lr}
 1319              	.LCFI29:
 1320              		.cfi_def_cfa_offset 16
 1321              		.cfi_offset 4, -16
 1322              		.cfi_offset 5, -12
 1323              		.cfi_offset 6, -8
 1324              		.cfi_offset 14, -4
 1325 0002 82B0     		sub	sp, sp, #8
 1326              	.LCFI30:
 1327              		.cfi_def_cfa_offset 24
 1328 0004 0446     		mov	r4, r0
 637:Drivers/lsm303agr/Src/lsm303agr_reg.c ****   lsm303agr_ctrl_reg1_a_t ctrl_reg1_a;
 1329              		.loc 1 637 3 is_stmt 1 view .LVU290
 638:Drivers/lsm303agr/Src/lsm303agr_reg.c ****   lsm303agr_ctrl_reg4_a_t ctrl_reg4_a;
 1330              		.loc 1 638 3 view .LVU291
 639:Drivers/lsm303agr/Src/lsm303agr_reg.c ****   int32_t ret;
 1331              		.loc 1 639 3 view .LVU292
 640:Drivers/lsm303agr/Src/lsm303agr_reg.c **** 
 641:Drivers/lsm303agr/Src/lsm303agr_reg.c ****   uint8_t lpen, hr;
 1332              		.loc 1 641 3 view .LVU293
ARM GAS  C:\Users\SF\AppData\Local\Temp\ccFGOSN0.s 			page 35


 642:Drivers/lsm303agr/Src/lsm303agr_reg.c **** 
 643:Drivers/lsm303agr/Src/lsm303agr_reg.c ****   if (val == LSM303AGR_HR_12bit)
 1333              		.loc 1 643 3 view .LVU294
 1334              		.loc 1 643 6 is_stmt 0 view .LVU295
 1335 0006 0D46     		mov	r5, r1
 1336 0008 39B1     		cbz	r1, .L89
 644:Drivers/lsm303agr/Src/lsm303agr_reg.c ****   {
 645:Drivers/lsm303agr/Src/lsm303agr_reg.c ****     lpen = 0;
 646:Drivers/lsm303agr/Src/lsm303agr_reg.c ****     hr   = 1;
 647:Drivers/lsm303agr/Src/lsm303agr_reg.c ****   }
 648:Drivers/lsm303agr/Src/lsm303agr_reg.c **** 
 649:Drivers/lsm303agr/Src/lsm303agr_reg.c ****   else if (val == LSM303AGR_NM_10bit)
 1337              		.loc 1 649 8 is_stmt 1 view .LVU296
 1338              		.loc 1 649 11 is_stmt 0 view .LVU297
 1339 000a 0129     		cmp	r1, #1
 1340 000c 02D0     		beq	.L92
 650:Drivers/lsm303agr/Src/lsm303agr_reg.c ****   {
 651:Drivers/lsm303agr/Src/lsm303agr_reg.c ****     lpen = 0;
 652:Drivers/lsm303agr/Src/lsm303agr_reg.c ****     hr   = 0;
 653:Drivers/lsm303agr/Src/lsm303agr_reg.c ****   }
 654:Drivers/lsm303agr/Src/lsm303agr_reg.c **** 
 655:Drivers/lsm303agr/Src/lsm303agr_reg.c ****   else
 656:Drivers/lsm303agr/Src/lsm303agr_reg.c ****   {
 657:Drivers/lsm303agr/Src/lsm303agr_reg.c ****     lpen = 1;
 658:Drivers/lsm303agr/Src/lsm303agr_reg.c ****     hr   = 0;
 1341              		.loc 1 658 10 view .LVU298
 1342 000e 0026     		movs	r6, #0
 657:Drivers/lsm303agr/Src/lsm303agr_reg.c ****     hr   = 0;
 1343              		.loc 1 657 10 view .LVU299
 1344 0010 0125     		movs	r5, #1
 1345 0012 03E0     		b	.L85
 1346              	.L92:
 652:Drivers/lsm303agr/Src/lsm303agr_reg.c ****   }
 1347              		.loc 1 652 10 view .LVU300
 1348 0014 0026     		movs	r6, #0
 651:Drivers/lsm303agr/Src/lsm303agr_reg.c ****     hr   = 0;
 1349              		.loc 1 651 10 view .LVU301
 1350 0016 3546     		mov	r5, r6
 1351 0018 00E0     		b	.L85
 1352              	.L89:
 646:Drivers/lsm303agr/Src/lsm303agr_reg.c ****   }
 1353              		.loc 1 646 10 view .LVU302
 1354 001a 0126     		movs	r6, #1
 1355              	.L85:
 1356              	.LVL76:
 659:Drivers/lsm303agr/Src/lsm303agr_reg.c ****   }
 660:Drivers/lsm303agr/Src/lsm303agr_reg.c **** 
 661:Drivers/lsm303agr/Src/lsm303agr_reg.c ****   ret = lsm303agr_read_reg(ctx, LSM303AGR_CTRL_REG1_A,
 1357              		.loc 1 661 3 is_stmt 1 view .LVU303
 1358              		.loc 1 661 9 is_stmt 0 view .LVU304
 1359 001c 0123     		movs	r3, #1
 1360 001e 01AA     		add	r2, sp, #4
 1361 0020 2021     		movs	r1, #32
 1362              	.LVL77:
 1363              		.loc 1 661 9 view .LVU305
 1364 0022 2046     		mov	r0, r4
 1365              	.LVL78:
ARM GAS  C:\Users\SF\AppData\Local\Temp\ccFGOSN0.s 			page 36


 1366              		.loc 1 661 9 view .LVU306
 1367 0024 FFF7FEFF 		bl	lsm303agr_read_reg
 1368              	.LVL79:
 662:Drivers/lsm303agr/Src/lsm303agr_reg.c ****                            (uint8_t *)&ctrl_reg1_a, 1);
 663:Drivers/lsm303agr/Src/lsm303agr_reg.c ****   ctrl_reg1_a.lpen = (uint8_t)lpen;
 1369              		.loc 1 663 3 is_stmt 1 view .LVU307
 1370              		.loc 1 663 20 is_stmt 0 view .LVU308
 1371 0028 9DF80420 		ldrb	r2, [sp, #4]	@ zero_extendqisi2
 1372 002c 65F3C302 		bfi	r2, r5, #3, #1
 1373 0030 8DF80420 		strb	r2, [sp, #4]
 664:Drivers/lsm303agr/Src/lsm303agr_reg.c **** 
 665:Drivers/lsm303agr/Src/lsm303agr_reg.c ****   if (ret == 0)
 1374              		.loc 1 665 3 is_stmt 1 view .LVU309
 1375              		.loc 1 665 6 is_stmt 0 view .LVU310
 1376 0034 18B1     		cbz	r0, .L93
 1377              	.L86:
 666:Drivers/lsm303agr/Src/lsm303agr_reg.c ****   {
 667:Drivers/lsm303agr/Src/lsm303agr_reg.c ****     ret = lsm303agr_write_reg(ctx, LSM303AGR_CTRL_REG1_A,
 668:Drivers/lsm303agr/Src/lsm303agr_reg.c ****                               (uint8_t *)&ctrl_reg1_a, 1);
 669:Drivers/lsm303agr/Src/lsm303agr_reg.c ****   }
 670:Drivers/lsm303agr/Src/lsm303agr_reg.c **** 
 671:Drivers/lsm303agr/Src/lsm303agr_reg.c ****   if (ret == 0)
 1378              		.loc 1 671 3 is_stmt 1 view .LVU311
 1379              		.loc 1 671 6 is_stmt 0 view .LVU312
 1380 0036 48B1     		cbz	r0, .L94
 1381              	.L87:
 672:Drivers/lsm303agr/Src/lsm303agr_reg.c ****   {
 673:Drivers/lsm303agr/Src/lsm303agr_reg.c ****     ret = lsm303agr_read_reg(ctx, LSM303AGR_CTRL_REG4_A,
 674:Drivers/lsm303agr/Src/lsm303agr_reg.c ****                              (uint8_t *)&ctrl_reg4_a, 1);
 675:Drivers/lsm303agr/Src/lsm303agr_reg.c ****   }
 676:Drivers/lsm303agr/Src/lsm303agr_reg.c **** 
 677:Drivers/lsm303agr/Src/lsm303agr_reg.c ****   if (ret == 0)
 1382              		.loc 1 677 3 is_stmt 1 view .LVU313
 1383              		.loc 1 677 6 is_stmt 0 view .LVU314
 1384 0038 78B1     		cbz	r0, .L95
 1385              	.L84:
 678:Drivers/lsm303agr/Src/lsm303agr_reg.c ****   {
 679:Drivers/lsm303agr/Src/lsm303agr_reg.c ****     ctrl_reg4_a.hr = hr;
 680:Drivers/lsm303agr/Src/lsm303agr_reg.c ****     ret = lsm303agr_write_reg(ctx, LSM303AGR_CTRL_REG4_A,
 681:Drivers/lsm303agr/Src/lsm303agr_reg.c ****                               (uint8_t *)&ctrl_reg4_a, 1);
 682:Drivers/lsm303agr/Src/lsm303agr_reg.c ****   }
 683:Drivers/lsm303agr/Src/lsm303agr_reg.c **** 
 684:Drivers/lsm303agr/Src/lsm303agr_reg.c ****   return ret;
 685:Drivers/lsm303agr/Src/lsm303agr_reg.c **** }
 1386              		.loc 1 685 1 view .LVU315
 1387 003a 02B0     		add	sp, sp, #8
 1388              	.LCFI31:
 1389              		.cfi_remember_state
 1390              		.cfi_def_cfa_offset 16
 1391              		@ sp needed
 1392 003c 70BD     		pop	{r4, r5, r6, pc}
 1393              	.LVL80:
 1394              	.L93:
 1395              	.LCFI32:
 1396              		.cfi_restore_state
 667:Drivers/lsm303agr/Src/lsm303agr_reg.c ****                               (uint8_t *)&ctrl_reg1_a, 1);
 1397              		.loc 1 667 5 is_stmt 1 view .LVU316
ARM GAS  C:\Users\SF\AppData\Local\Temp\ccFGOSN0.s 			page 37


 667:Drivers/lsm303agr/Src/lsm303agr_reg.c ****                               (uint8_t *)&ctrl_reg1_a, 1);
 1398              		.loc 1 667 11 is_stmt 0 view .LVU317
 1399 003e 0123     		movs	r3, #1
 1400 0040 01AA     		add	r2, sp, #4
 1401 0042 2021     		movs	r1, #32
 1402 0044 2046     		mov	r0, r4
 1403              	.LVL81:
 667:Drivers/lsm303agr/Src/lsm303agr_reg.c ****                               (uint8_t *)&ctrl_reg1_a, 1);
 1404              		.loc 1 667 11 view .LVU318
 1405 0046 FFF7FEFF 		bl	lsm303agr_write_reg
 1406              	.LVL82:
 667:Drivers/lsm303agr/Src/lsm303agr_reg.c ****                               (uint8_t *)&ctrl_reg1_a, 1);
 1407              		.loc 1 667 11 view .LVU319
 1408 004a F4E7     		b	.L86
 1409              	.L94:
 673:Drivers/lsm303agr/Src/lsm303agr_reg.c ****                              (uint8_t *)&ctrl_reg4_a, 1);
 1410              		.loc 1 673 5 is_stmt 1 view .LVU320
 673:Drivers/lsm303agr/Src/lsm303agr_reg.c ****                              (uint8_t *)&ctrl_reg4_a, 1);
 1411              		.loc 1 673 11 is_stmt 0 view .LVU321
 1412 004c 0123     		movs	r3, #1
 1413 004e 6A46     		mov	r2, sp
 1414 0050 2321     		movs	r1, #35
 1415 0052 2046     		mov	r0, r4
 1416              	.LVL83:
 673:Drivers/lsm303agr/Src/lsm303agr_reg.c ****                              (uint8_t *)&ctrl_reg4_a, 1);
 1417              		.loc 1 673 11 view .LVU322
 1418 0054 FFF7FEFF 		bl	lsm303agr_read_reg
 1419              	.LVL84:
 673:Drivers/lsm303agr/Src/lsm303agr_reg.c ****                              (uint8_t *)&ctrl_reg4_a, 1);
 1420              		.loc 1 673 11 view .LVU323
 1421 0058 EEE7     		b	.L87
 1422              	.L95:
 679:Drivers/lsm303agr/Src/lsm303agr_reg.c ****     ret = lsm303agr_write_reg(ctx, LSM303AGR_CTRL_REG4_A,
 1423              		.loc 1 679 5 is_stmt 1 view .LVU324
 679:Drivers/lsm303agr/Src/lsm303agr_reg.c ****     ret = lsm303agr_write_reg(ctx, LSM303AGR_CTRL_REG4_A,
 1424              		.loc 1 679 20 is_stmt 0 view .LVU325
 1425 005a 9DF80030 		ldrb	r3, [sp]	@ zero_extendqisi2
 1426 005e 66F3C303 		bfi	r3, r6, #3, #1
 1427 0062 8DF80030 		strb	r3, [sp]
 680:Drivers/lsm303agr/Src/lsm303agr_reg.c ****                               (uint8_t *)&ctrl_reg4_a, 1);
 1428              		.loc 1 680 5 is_stmt 1 view .LVU326
 680:Drivers/lsm303agr/Src/lsm303agr_reg.c ****                               (uint8_t *)&ctrl_reg4_a, 1);
 1429              		.loc 1 680 11 is_stmt 0 view .LVU327
 1430 0066 0123     		movs	r3, #1
 1431 0068 6A46     		mov	r2, sp
 1432 006a 2321     		movs	r1, #35
 1433 006c 2046     		mov	r0, r4
 1434              	.LVL85:
 680:Drivers/lsm303agr/Src/lsm303agr_reg.c ****                               (uint8_t *)&ctrl_reg4_a, 1);
 1435              		.loc 1 680 11 view .LVU328
 1436 006e FFF7FEFF 		bl	lsm303agr_write_reg
 1437              	.LVL86:
 684:Drivers/lsm303agr/Src/lsm303agr_reg.c **** }
 1438              		.loc 1 684 3 is_stmt 1 view .LVU329
 684:Drivers/lsm303agr/Src/lsm303agr_reg.c **** }
 1439              		.loc 1 684 10 is_stmt 0 view .LVU330
 1440 0072 E2E7     		b	.L84
ARM GAS  C:\Users\SF\AppData\Local\Temp\ccFGOSN0.s 			page 38


 1441              		.cfi_endproc
 1442              	.LFE162:
 1444              		.section	.text.lsm303agr_xl_operating_mode_get,"ax",%progbits
 1445              		.align	1
 1446              		.global	lsm303agr_xl_operating_mode_get
 1447              		.syntax unified
 1448              		.thumb
 1449              		.thumb_func
 1451              	lsm303agr_xl_operating_mode_get:
 1452              	.LVL87:
 1453              	.LFB163:
 686:Drivers/lsm303agr/Src/lsm303agr_reg.c **** 
 687:Drivers/lsm303agr/Src/lsm303agr_reg.c **** /**
 688:Drivers/lsm303agr/Src/lsm303agr_reg.c ****   * @brief  Operating mode selection.[get]
 689:Drivers/lsm303agr/Src/lsm303agr_reg.c ****   *
 690:Drivers/lsm303agr/Src/lsm303agr_reg.c ****   * @param  ctx    Read / write interface definitions.(ptr)
 691:Drivers/lsm303agr/Src/lsm303agr_reg.c ****   * @param  val    Get the values of lpen in reg CTRL_REG1_A and HR in
 692:Drivers/lsm303agr/Src/lsm303agr_reg.c ****   *                reg CTRL_REG4_AG1_A.(ptr)
 693:Drivers/lsm303agr/Src/lsm303agr_reg.c ****   * @retval        Interface status (MANDATORY: return 0 -> no Error).
 694:Drivers/lsm303agr/Src/lsm303agr_reg.c ****   *
 695:Drivers/lsm303agr/Src/lsm303agr_reg.c ****   */
 696:Drivers/lsm303agr/Src/lsm303agr_reg.c **** int32_t lsm303agr_xl_operating_mode_get(stmdev_ctx_t *ctx,
 697:Drivers/lsm303agr/Src/lsm303agr_reg.c ****                                         lsm303agr_op_md_a_t *val)
 698:Drivers/lsm303agr/Src/lsm303agr_reg.c **** {
 1454              		.loc 1 698 1 is_stmt 1 view -0
 1455              		.cfi_startproc
 1456              		@ args = 0, pretend = 0, frame = 8
 1457              		@ frame_needed = 0, uses_anonymous_args = 0
 1458              		.loc 1 698 1 is_stmt 0 view .LVU332
 1459 0000 30B5     		push	{r4, r5, lr}
 1460              	.LCFI33:
 1461              		.cfi_def_cfa_offset 12
 1462              		.cfi_offset 4, -12
 1463              		.cfi_offset 5, -8
 1464              		.cfi_offset 14, -4
 1465 0002 83B0     		sub	sp, sp, #12
 1466              	.LCFI34:
 1467              		.cfi_def_cfa_offset 24
 1468 0004 0546     		mov	r5, r0
 1469 0006 0C46     		mov	r4, r1
 699:Drivers/lsm303agr/Src/lsm303agr_reg.c ****   lsm303agr_ctrl_reg4_a_t ctrl_reg4_a;
 1470              		.loc 1 699 3 is_stmt 1 view .LVU333
 700:Drivers/lsm303agr/Src/lsm303agr_reg.c ****   lsm303agr_ctrl_reg1_a_t ctrl_reg1_a;
 1471              		.loc 1 700 3 view .LVU334
 701:Drivers/lsm303agr/Src/lsm303agr_reg.c ****   int32_t ret;
 1472              		.loc 1 701 3 view .LVU335
 702:Drivers/lsm303agr/Src/lsm303agr_reg.c **** 
 703:Drivers/lsm303agr/Src/lsm303agr_reg.c ****   ret = lsm303agr_read_reg(ctx, LSM303AGR_CTRL_REG1_A,
 1473              		.loc 1 703 3 view .LVU336
 1474              		.loc 1 703 9 is_stmt 0 view .LVU337
 1475 0008 0123     		movs	r3, #1
 1476 000a 6A46     		mov	r2, sp
 1477 000c 2021     		movs	r1, #32
 1478              	.LVL88:
 1479              		.loc 1 703 9 view .LVU338
 1480 000e FFF7FEFF 		bl	lsm303agr_read_reg
 1481              	.LVL89:
ARM GAS  C:\Users\SF\AppData\Local\Temp\ccFGOSN0.s 			page 39


 704:Drivers/lsm303agr/Src/lsm303agr_reg.c ****                            (uint8_t *)&ctrl_reg1_a, 1);
 705:Drivers/lsm303agr/Src/lsm303agr_reg.c **** 
 706:Drivers/lsm303agr/Src/lsm303agr_reg.c ****   if (ret == 0)
 1482              		.loc 1 706 3 is_stmt 1 view .LVU339
 1483              		.loc 1 706 6 is_stmt 0 view .LVU340
 1484 0012 40B1     		cbz	r0, .L102
 1485              	.LVL90:
 1486              	.L97:
 707:Drivers/lsm303agr/Src/lsm303agr_reg.c ****   {
 708:Drivers/lsm303agr/Src/lsm303agr_reg.c ****     ret = lsm303agr_read_reg(ctx, LSM303AGR_CTRL_REG4_A,
 709:Drivers/lsm303agr/Src/lsm303agr_reg.c ****                              (uint8_t *)&ctrl_reg4_a, 1);
 710:Drivers/lsm303agr/Src/lsm303agr_reg.c ****   }
 711:Drivers/lsm303agr/Src/lsm303agr_reg.c **** 
 712:Drivers/lsm303agr/Src/lsm303agr_reg.c ****   if (ctrl_reg1_a.lpen != PROPERTY_DISABLE)
 1487              		.loc 1 712 3 is_stmt 1 view .LVU341
 1488              		.loc 1 712 24 is_stmt 0 view .LVU342
 1489 0014 9DF80030 		ldrb	r3, [sp]	@ zero_extendqisi2
 1490              		.loc 1 712 6 view .LVU343
 1491 0018 13F0080F 		tst	r3, #8
 1492 001c 0AD0     		beq	.L98
 713:Drivers/lsm303agr/Src/lsm303agr_reg.c ****   {
 714:Drivers/lsm303agr/Src/lsm303agr_reg.c ****     *val = LSM303AGR_LP_8bit;
 1493              		.loc 1 714 5 is_stmt 1 view .LVU344
 1494              		.loc 1 714 10 is_stmt 0 view .LVU345
 1495 001e 0223     		movs	r3, #2
 1496 0020 2370     		strb	r3, [r4]
 1497              	.L96:
 715:Drivers/lsm303agr/Src/lsm303agr_reg.c ****   }
 716:Drivers/lsm303agr/Src/lsm303agr_reg.c **** 
 717:Drivers/lsm303agr/Src/lsm303agr_reg.c ****   else if (ctrl_reg4_a.hr  != PROPERTY_DISABLE)
 718:Drivers/lsm303agr/Src/lsm303agr_reg.c ****   {
 719:Drivers/lsm303agr/Src/lsm303agr_reg.c ****     *val = LSM303AGR_HR_12bit;
 720:Drivers/lsm303agr/Src/lsm303agr_reg.c ****   }
 721:Drivers/lsm303agr/Src/lsm303agr_reg.c **** 
 722:Drivers/lsm303agr/Src/lsm303agr_reg.c ****   else
 723:Drivers/lsm303agr/Src/lsm303agr_reg.c ****   {
 724:Drivers/lsm303agr/Src/lsm303agr_reg.c ****     *val = LSM303AGR_NM_10bit;
 725:Drivers/lsm303agr/Src/lsm303agr_reg.c ****   }
 726:Drivers/lsm303agr/Src/lsm303agr_reg.c **** 
 727:Drivers/lsm303agr/Src/lsm303agr_reg.c ****   return ret;
 728:Drivers/lsm303agr/Src/lsm303agr_reg.c **** }
 1498              		.loc 1 728 1 view .LVU346
 1499 0022 03B0     		add	sp, sp, #12
 1500              	.LCFI35:
 1501              		.cfi_remember_state
 1502              		.cfi_def_cfa_offset 12
 1503              		@ sp needed
 1504 0024 30BD     		pop	{r4, r5, pc}
 1505              	.LVL91:
 1506              	.L102:
 1507              	.LCFI36:
 1508              		.cfi_restore_state
 708:Drivers/lsm303agr/Src/lsm303agr_reg.c ****                              (uint8_t *)&ctrl_reg4_a, 1);
 1509              		.loc 1 708 5 is_stmt 1 view .LVU347
 708:Drivers/lsm303agr/Src/lsm303agr_reg.c ****                              (uint8_t *)&ctrl_reg4_a, 1);
 1510              		.loc 1 708 11 is_stmt 0 view .LVU348
 1511 0026 0123     		movs	r3, #1
ARM GAS  C:\Users\SF\AppData\Local\Temp\ccFGOSN0.s 			page 40


 1512              	.LVL92:
 708:Drivers/lsm303agr/Src/lsm303agr_reg.c ****                              (uint8_t *)&ctrl_reg4_a, 1);
 1513              		.loc 1 708 11 view .LVU349
 1514 0028 01AA     		add	r2, sp, #4
 1515 002a 2321     		movs	r1, #35
 1516 002c 2846     		mov	r0, r5
 1517 002e FFF7FEFF 		bl	lsm303agr_read_reg
 1518              	.LVL93:
 708:Drivers/lsm303agr/Src/lsm303agr_reg.c ****                              (uint8_t *)&ctrl_reg4_a, 1);
 1519              		.loc 1 708 11 view .LVU350
 1520 0032 EFE7     		b	.L97
 1521              	.L98:
 717:Drivers/lsm303agr/Src/lsm303agr_reg.c ****   {
 1522              		.loc 1 717 8 is_stmt 1 view .LVU351
 717:Drivers/lsm303agr/Src/lsm303agr_reg.c ****   {
 1523              		.loc 1 717 28 is_stmt 0 view .LVU352
 1524 0034 9DF80430 		ldrb	r3, [sp, #4]	@ zero_extendqisi2
 717:Drivers/lsm303agr/Src/lsm303agr_reg.c ****   {
 1525              		.loc 1 717 11 view .LVU353
 1526 0038 13F0080F 		tst	r3, #8
 1527 003c 02D0     		beq	.L100
 719:Drivers/lsm303agr/Src/lsm303agr_reg.c ****   }
 1528              		.loc 1 719 5 is_stmt 1 view .LVU354
 719:Drivers/lsm303agr/Src/lsm303agr_reg.c ****   }
 1529              		.loc 1 719 10 is_stmt 0 view .LVU355
 1530 003e 0023     		movs	r3, #0
 1531 0040 2370     		strb	r3, [r4]
 1532 0042 EEE7     		b	.L96
 1533              	.L100:
 724:Drivers/lsm303agr/Src/lsm303agr_reg.c ****   }
 1534              		.loc 1 724 5 is_stmt 1 view .LVU356
 724:Drivers/lsm303agr/Src/lsm303agr_reg.c ****   }
 1535              		.loc 1 724 10 is_stmt 0 view .LVU357
 1536 0044 0123     		movs	r3, #1
 1537 0046 2370     		strb	r3, [r4]
 727:Drivers/lsm303agr/Src/lsm303agr_reg.c **** }
 1538              		.loc 1 727 3 is_stmt 1 view .LVU358
 727:Drivers/lsm303agr/Src/lsm303agr_reg.c **** }
 1539              		.loc 1 727 10 is_stmt 0 view .LVU359
 1540 0048 EBE7     		b	.L96
 1541              		.cfi_endproc
 1542              	.LFE163:
 1544              		.section	.text.lsm303agr_xl_data_rate_set,"ax",%progbits
 1545              		.align	1
 1546              		.global	lsm303agr_xl_data_rate_set
 1547              		.syntax unified
 1548              		.thumb
 1549              		.thumb_func
 1551              	lsm303agr_xl_data_rate_set:
 1552              	.LVL94:
 1553              	.LFB164:
 729:Drivers/lsm303agr/Src/lsm303agr_reg.c **** 
 730:Drivers/lsm303agr/Src/lsm303agr_reg.c **** /**
 731:Drivers/lsm303agr/Src/lsm303agr_reg.c ****   * @brief  Output data rate selection.[set]
 732:Drivers/lsm303agr/Src/lsm303agr_reg.c ****   *
 733:Drivers/lsm303agr/Src/lsm303agr_reg.c ****   * @param  ctx    Read / write interface definitions.(ptr)
 734:Drivers/lsm303agr/Src/lsm303agr_reg.c ****   * @param  val    Change the values of odr in reg CTRL_REG1_A
ARM GAS  C:\Users\SF\AppData\Local\Temp\ccFGOSN0.s 			page 41


 735:Drivers/lsm303agr/Src/lsm303agr_reg.c ****   * @retval        Interface status (MANDATORY: return 0 -> no Error).
 736:Drivers/lsm303agr/Src/lsm303agr_reg.c ****   *
 737:Drivers/lsm303agr/Src/lsm303agr_reg.c ****   */
 738:Drivers/lsm303agr/Src/lsm303agr_reg.c **** int32_t lsm303agr_xl_data_rate_set(stmdev_ctx_t *ctx,
 739:Drivers/lsm303agr/Src/lsm303agr_reg.c ****                                    lsm303agr_odr_a_t val)
 740:Drivers/lsm303agr/Src/lsm303agr_reg.c **** {
 1554              		.loc 1 740 1 is_stmt 1 view -0
 1555              		.cfi_startproc
 1556              		@ args = 0, pretend = 0, frame = 8
 1557              		@ frame_needed = 0, uses_anonymous_args = 0
 1558              		.loc 1 740 1 is_stmt 0 view .LVU361
 1559 0000 30B5     		push	{r4, r5, lr}
 1560              	.LCFI37:
 1561              		.cfi_def_cfa_offset 12
 1562              		.cfi_offset 4, -12
 1563              		.cfi_offset 5, -8
 1564              		.cfi_offset 14, -4
 1565 0002 83B0     		sub	sp, sp, #12
 1566              	.LCFI38:
 1567              		.cfi_def_cfa_offset 24
 1568 0004 0446     		mov	r4, r0
 1569 0006 0D46     		mov	r5, r1
 741:Drivers/lsm303agr/Src/lsm303agr_reg.c ****   lsm303agr_ctrl_reg1_a_t ctrl_reg1_a;
 1570              		.loc 1 741 3 is_stmt 1 view .LVU362
 742:Drivers/lsm303agr/Src/lsm303agr_reg.c ****   int32_t ret;
 1571              		.loc 1 742 3 view .LVU363
 743:Drivers/lsm303agr/Src/lsm303agr_reg.c **** 
 744:Drivers/lsm303agr/Src/lsm303agr_reg.c ****   ret = lsm303agr_read_reg(ctx, LSM303AGR_CTRL_REG1_A,
 1572              		.loc 1 744 3 view .LVU364
 1573              		.loc 1 744 9 is_stmt 0 view .LVU365
 1574 0008 0123     		movs	r3, #1
 1575 000a 01AA     		add	r2, sp, #4
 1576 000c 2021     		movs	r1, #32
 1577              	.LVL95:
 1578              		.loc 1 744 9 view .LVU366
 1579 000e FFF7FEFF 		bl	lsm303agr_read_reg
 1580              	.LVL96:
 745:Drivers/lsm303agr/Src/lsm303agr_reg.c ****                            (uint8_t *)&ctrl_reg1_a, 1);
 746:Drivers/lsm303agr/Src/lsm303agr_reg.c **** 
 747:Drivers/lsm303agr/Src/lsm303agr_reg.c ****   if (ret == 0)
 1581              		.loc 1 747 3 is_stmt 1 view .LVU367
 1582              		.loc 1 747 6 is_stmt 0 view .LVU368
 1583 0012 08B1     		cbz	r0, .L106
 1584              	.LVL97:
 1585              	.L103:
 748:Drivers/lsm303agr/Src/lsm303agr_reg.c ****   {
 749:Drivers/lsm303agr/Src/lsm303agr_reg.c ****     ctrl_reg1_a.odr = (uint8_t)val;
 750:Drivers/lsm303agr/Src/lsm303agr_reg.c ****     ret = lsm303agr_write_reg(ctx, LSM303AGR_CTRL_REG1_A,
 751:Drivers/lsm303agr/Src/lsm303agr_reg.c ****                               (uint8_t *)&ctrl_reg1_a, 1);
 752:Drivers/lsm303agr/Src/lsm303agr_reg.c ****   }
 753:Drivers/lsm303agr/Src/lsm303agr_reg.c **** 
 754:Drivers/lsm303agr/Src/lsm303agr_reg.c ****   return ret;
 755:Drivers/lsm303agr/Src/lsm303agr_reg.c **** }
 1586              		.loc 1 755 1 view .LVU369
 1587 0014 03B0     		add	sp, sp, #12
 1588              	.LCFI39:
 1589              		.cfi_remember_state
ARM GAS  C:\Users\SF\AppData\Local\Temp\ccFGOSN0.s 			page 42


 1590              		.cfi_def_cfa_offset 12
 1591              		@ sp needed
 1592 0016 30BD     		pop	{r4, r5, pc}
 1593              	.LVL98:
 1594              	.L106:
 1595              	.LCFI40:
 1596              		.cfi_restore_state
 749:Drivers/lsm303agr/Src/lsm303agr_reg.c ****     ret = lsm303agr_write_reg(ctx, LSM303AGR_CTRL_REG1_A,
 1597              		.loc 1 749 5 is_stmt 1 view .LVU370
 749:Drivers/lsm303agr/Src/lsm303agr_reg.c ****     ret = lsm303agr_write_reg(ctx, LSM303AGR_CTRL_REG1_A,
 1598              		.loc 1 749 21 is_stmt 0 view .LVU371
 1599 0018 9DF80430 		ldrb	r3, [sp, #4]	@ zero_extendqisi2
 1600 001c 65F30713 		bfi	r3, r5, #4, #4
 1601 0020 8DF80430 		strb	r3, [sp, #4]
 750:Drivers/lsm303agr/Src/lsm303agr_reg.c ****                               (uint8_t *)&ctrl_reg1_a, 1);
 1602              		.loc 1 750 5 is_stmt 1 view .LVU372
 750:Drivers/lsm303agr/Src/lsm303agr_reg.c ****                               (uint8_t *)&ctrl_reg1_a, 1);
 1603              		.loc 1 750 11 is_stmt 0 view .LVU373
 1604 0024 0123     		movs	r3, #1
 1605              	.LVL99:
 750:Drivers/lsm303agr/Src/lsm303agr_reg.c ****                               (uint8_t *)&ctrl_reg1_a, 1);
 1606              		.loc 1 750 11 view .LVU374
 1607 0026 01AA     		add	r2, sp, #4
 1608 0028 2021     		movs	r1, #32
 1609 002a 2046     		mov	r0, r4
 1610 002c FFF7FEFF 		bl	lsm303agr_write_reg
 1611              	.LVL100:
 754:Drivers/lsm303agr/Src/lsm303agr_reg.c **** }
 1612              		.loc 1 754 3 is_stmt 1 view .LVU375
 754:Drivers/lsm303agr/Src/lsm303agr_reg.c **** }
 1613              		.loc 1 754 10 is_stmt 0 view .LVU376
 1614 0030 F0E7     		b	.L103
 1615              		.cfi_endproc
 1616              	.LFE164:
 1618              		.section	.text.lsm303agr_xl_data_rate_get,"ax",%progbits
 1619              		.align	1
 1620              		.global	lsm303agr_xl_data_rate_get
 1621              		.syntax unified
 1622              		.thumb
 1623              		.thumb_func
 1625              	lsm303agr_xl_data_rate_get:
 1626              	.LVL101:
 1627              	.LFB165:
 756:Drivers/lsm303agr/Src/lsm303agr_reg.c **** 
 757:Drivers/lsm303agr/Src/lsm303agr_reg.c **** /**
 758:Drivers/lsm303agr/Src/lsm303agr_reg.c ****   * @brief  Output data rate selection.[get]
 759:Drivers/lsm303agr/Src/lsm303agr_reg.c ****   *
 760:Drivers/lsm303agr/Src/lsm303agr_reg.c ****   * @param  ctx    Read / write interface definitions.(ptr)
 761:Drivers/lsm303agr/Src/lsm303agr_reg.c ****   * @param  val    Get the values of odr in reg CTRL_REG1_A.(ptr)
 762:Drivers/lsm303agr/Src/lsm303agr_reg.c ****   * @retval        Interface status (MANDATORY: return 0 -> no Error).
 763:Drivers/lsm303agr/Src/lsm303agr_reg.c ****   *
 764:Drivers/lsm303agr/Src/lsm303agr_reg.c ****   */
 765:Drivers/lsm303agr/Src/lsm303agr_reg.c **** int32_t lsm303agr_xl_data_rate_get(stmdev_ctx_t *ctx,
 766:Drivers/lsm303agr/Src/lsm303agr_reg.c ****                                    lsm303agr_odr_a_t *val)
 767:Drivers/lsm303agr/Src/lsm303agr_reg.c **** {
 1628              		.loc 1 767 1 is_stmt 1 view -0
 1629              		.cfi_startproc
ARM GAS  C:\Users\SF\AppData\Local\Temp\ccFGOSN0.s 			page 43


 1630              		@ args = 0, pretend = 0, frame = 8
 1631              		@ frame_needed = 0, uses_anonymous_args = 0
 1632              		.loc 1 767 1 is_stmt 0 view .LVU378
 1633 0000 10B5     		push	{r4, lr}
 1634              	.LCFI41:
 1635              		.cfi_def_cfa_offset 8
 1636              		.cfi_offset 4, -8
 1637              		.cfi_offset 14, -4
 1638 0002 82B0     		sub	sp, sp, #8
 1639              	.LCFI42:
 1640              		.cfi_def_cfa_offset 16
 1641 0004 0C46     		mov	r4, r1
 768:Drivers/lsm303agr/Src/lsm303agr_reg.c ****   lsm303agr_ctrl_reg1_a_t ctrl_reg1_a;
 1642              		.loc 1 768 3 is_stmt 1 view .LVU379
 769:Drivers/lsm303agr/Src/lsm303agr_reg.c ****   int32_t ret;
 1643              		.loc 1 769 3 view .LVU380
 770:Drivers/lsm303agr/Src/lsm303agr_reg.c **** 
 771:Drivers/lsm303agr/Src/lsm303agr_reg.c ****   ret = lsm303agr_read_reg(ctx, LSM303AGR_CTRL_REG1_A,
 1644              		.loc 1 771 3 view .LVU381
 1645              		.loc 1 771 9 is_stmt 0 view .LVU382
 1646 0006 0123     		movs	r3, #1
 1647 0008 01AA     		add	r2, sp, #4
 1648 000a 2021     		movs	r1, #32
 1649              	.LVL102:
 1650              		.loc 1 771 9 view .LVU383
 1651 000c FFF7FEFF 		bl	lsm303agr_read_reg
 1652              	.LVL103:
 772:Drivers/lsm303agr/Src/lsm303agr_reg.c ****                            (uint8_t *)&ctrl_reg1_a, 1);
 773:Drivers/lsm303agr/Src/lsm303agr_reg.c **** 
 774:Drivers/lsm303agr/Src/lsm303agr_reg.c ****   switch (ctrl_reg1_a.odr)
 1653              		.loc 1 774 3 is_stmt 1 view .LVU384
 1654              		.loc 1 774 22 is_stmt 0 view .LVU385
 1655 0010 9DF80430 		ldrb	r3, [sp, #4]	@ zero_extendqisi2
 1656 0014 1B09     		lsrs	r3, r3, #4
 1657              		.loc 1 774 3 view .LVU386
 1658 0016 092B     		cmp	r3, #9
 1659 0018 25D8     		bhi	.L108
 1660 001a DFE803F0 		tbb	[pc, r3]
 1661              	.L110:
 1662 001e 05       		.byte	(.L119-.L110)/2
 1663 001f 09       		.byte	(.L118-.L110)/2
 1664 0020 0C       		.byte	(.L117-.L110)/2
 1665 0021 0F       		.byte	(.L116-.L110)/2
 1666 0022 12       		.byte	(.L115-.L110)/2
 1667 0023 15       		.byte	(.L114-.L110)/2
 1668 0024 18       		.byte	(.L113-.L110)/2
 1669 0025 1B       		.byte	(.L112-.L110)/2
 1670 0026 1E       		.byte	(.L111-.L110)/2
 1671 0027 21       		.byte	(.L109-.L110)/2
 1672              		.p2align 1
 1673              	.L119:
 775:Drivers/lsm303agr/Src/lsm303agr_reg.c ****   {
 776:Drivers/lsm303agr/Src/lsm303agr_reg.c ****     case LSM303AGR_XL_POWER_DOWN:
 777:Drivers/lsm303agr/Src/lsm303agr_reg.c ****       *val = LSM303AGR_XL_POWER_DOWN;
 1674              		.loc 1 777 7 is_stmt 1 view .LVU387
 1675              		.loc 1 777 12 is_stmt 0 view .LVU388
 1676 0028 0023     		movs	r3, #0
ARM GAS  C:\Users\SF\AppData\Local\Temp\ccFGOSN0.s 			page 44


 1677 002a 2370     		strb	r3, [r4]
 778:Drivers/lsm303agr/Src/lsm303agr_reg.c ****       break;
 1678              		.loc 1 778 7 is_stmt 1 view .LVU389
 1679              	.L107:
 779:Drivers/lsm303agr/Src/lsm303agr_reg.c **** 
 780:Drivers/lsm303agr/Src/lsm303agr_reg.c ****     case LSM303AGR_XL_ODR_1Hz:
 781:Drivers/lsm303agr/Src/lsm303agr_reg.c ****       *val = LSM303AGR_XL_ODR_1Hz;
 782:Drivers/lsm303agr/Src/lsm303agr_reg.c ****       break;
 783:Drivers/lsm303agr/Src/lsm303agr_reg.c **** 
 784:Drivers/lsm303agr/Src/lsm303agr_reg.c ****     case LSM303AGR_XL_ODR_10Hz:
 785:Drivers/lsm303agr/Src/lsm303agr_reg.c ****       *val = LSM303AGR_XL_ODR_10Hz;
 786:Drivers/lsm303agr/Src/lsm303agr_reg.c ****       break;
 787:Drivers/lsm303agr/Src/lsm303agr_reg.c **** 
 788:Drivers/lsm303agr/Src/lsm303agr_reg.c ****     case LSM303AGR_XL_ODR_25Hz:
 789:Drivers/lsm303agr/Src/lsm303agr_reg.c ****       *val = LSM303AGR_XL_ODR_25Hz;
 790:Drivers/lsm303agr/Src/lsm303agr_reg.c ****       break;
 791:Drivers/lsm303agr/Src/lsm303agr_reg.c **** 
 792:Drivers/lsm303agr/Src/lsm303agr_reg.c ****     case LSM303AGR_XL_ODR_50Hz:
 793:Drivers/lsm303agr/Src/lsm303agr_reg.c ****       *val = LSM303AGR_XL_ODR_50Hz;
 794:Drivers/lsm303agr/Src/lsm303agr_reg.c ****       break;
 795:Drivers/lsm303agr/Src/lsm303agr_reg.c **** 
 796:Drivers/lsm303agr/Src/lsm303agr_reg.c ****     case LSM303AGR_XL_ODR_100Hz:
 797:Drivers/lsm303agr/Src/lsm303agr_reg.c ****       *val = LSM303AGR_XL_ODR_100Hz;
 798:Drivers/lsm303agr/Src/lsm303agr_reg.c ****       break;
 799:Drivers/lsm303agr/Src/lsm303agr_reg.c **** 
 800:Drivers/lsm303agr/Src/lsm303agr_reg.c ****     case LSM303AGR_XL_ODR_200Hz:
 801:Drivers/lsm303agr/Src/lsm303agr_reg.c ****       *val = LSM303AGR_XL_ODR_200Hz;
 802:Drivers/lsm303agr/Src/lsm303agr_reg.c ****       break;
 803:Drivers/lsm303agr/Src/lsm303agr_reg.c **** 
 804:Drivers/lsm303agr/Src/lsm303agr_reg.c ****     case LSM303AGR_XL_ODR_400Hz:
 805:Drivers/lsm303agr/Src/lsm303agr_reg.c ****       *val = LSM303AGR_XL_ODR_400Hz;
 806:Drivers/lsm303agr/Src/lsm303agr_reg.c ****       break;
 807:Drivers/lsm303agr/Src/lsm303agr_reg.c **** 
 808:Drivers/lsm303agr/Src/lsm303agr_reg.c ****     case LSM303AGR_XL_ODR_1kHz620_LP:
 809:Drivers/lsm303agr/Src/lsm303agr_reg.c ****       *val = LSM303AGR_XL_ODR_1kHz620_LP;
 810:Drivers/lsm303agr/Src/lsm303agr_reg.c ****       break;
 811:Drivers/lsm303agr/Src/lsm303agr_reg.c **** 
 812:Drivers/lsm303agr/Src/lsm303agr_reg.c ****     case LSM303AGR_XL_ODR_1kHz344_NM_HP_5kHz376_LP:
 813:Drivers/lsm303agr/Src/lsm303agr_reg.c ****       *val = LSM303AGR_XL_ODR_1kHz344_NM_HP_5kHz376_LP;
 814:Drivers/lsm303agr/Src/lsm303agr_reg.c ****       break;
 815:Drivers/lsm303agr/Src/lsm303agr_reg.c **** 
 816:Drivers/lsm303agr/Src/lsm303agr_reg.c ****     default:
 817:Drivers/lsm303agr/Src/lsm303agr_reg.c ****       *val = LSM303AGR_XL_POWER_DOWN;
 818:Drivers/lsm303agr/Src/lsm303agr_reg.c ****       break;
 819:Drivers/lsm303agr/Src/lsm303agr_reg.c ****   }
 820:Drivers/lsm303agr/Src/lsm303agr_reg.c **** 
 821:Drivers/lsm303agr/Src/lsm303agr_reg.c ****   return ret;
 822:Drivers/lsm303agr/Src/lsm303agr_reg.c **** }
 1680              		.loc 1 822 1 is_stmt 0 view .LVU390
 1681 002c 02B0     		add	sp, sp, #8
 1682              	.LCFI43:
 1683              		.cfi_remember_state
 1684              		.cfi_def_cfa_offset 8
 1685              		@ sp needed
 1686 002e 10BD     		pop	{r4, pc}
 1687              	.LVL104:
 1688              	.L118:
ARM GAS  C:\Users\SF\AppData\Local\Temp\ccFGOSN0.s 			page 45


 1689              	.LCFI44:
 1690              		.cfi_restore_state
 781:Drivers/lsm303agr/Src/lsm303agr_reg.c ****       break;
 1691              		.loc 1 781 7 is_stmt 1 view .LVU391
 781:Drivers/lsm303agr/Src/lsm303agr_reg.c ****       break;
 1692              		.loc 1 781 12 is_stmt 0 view .LVU392
 1693 0030 0123     		movs	r3, #1
 1694 0032 2370     		strb	r3, [r4]
 782:Drivers/lsm303agr/Src/lsm303agr_reg.c **** 
 1695              		.loc 1 782 7 is_stmt 1 view .LVU393
 1696 0034 FAE7     		b	.L107
 1697              	.L117:
 785:Drivers/lsm303agr/Src/lsm303agr_reg.c ****       break;
 1698              		.loc 1 785 7 view .LVU394
 785:Drivers/lsm303agr/Src/lsm303agr_reg.c ****       break;
 1699              		.loc 1 785 12 is_stmt 0 view .LVU395
 1700 0036 0223     		movs	r3, #2
 1701 0038 2370     		strb	r3, [r4]
 786:Drivers/lsm303agr/Src/lsm303agr_reg.c **** 
 1702              		.loc 1 786 7 is_stmt 1 view .LVU396
 1703 003a F7E7     		b	.L107
 1704              	.L116:
 789:Drivers/lsm303agr/Src/lsm303agr_reg.c ****       break;
 1705              		.loc 1 789 7 view .LVU397
 789:Drivers/lsm303agr/Src/lsm303agr_reg.c ****       break;
 1706              		.loc 1 789 12 is_stmt 0 view .LVU398
 1707 003c 0323     		movs	r3, #3
 1708 003e 2370     		strb	r3, [r4]
 790:Drivers/lsm303agr/Src/lsm303agr_reg.c **** 
 1709              		.loc 1 790 7 is_stmt 1 view .LVU399
 1710 0040 F4E7     		b	.L107
 1711              	.L115:
 793:Drivers/lsm303agr/Src/lsm303agr_reg.c ****       break;
 1712              		.loc 1 793 7 view .LVU400
 793:Drivers/lsm303agr/Src/lsm303agr_reg.c ****       break;
 1713              		.loc 1 793 12 is_stmt 0 view .LVU401
 1714 0042 0423     		movs	r3, #4
 1715 0044 2370     		strb	r3, [r4]
 794:Drivers/lsm303agr/Src/lsm303agr_reg.c **** 
 1716              		.loc 1 794 7 is_stmt 1 view .LVU402
 1717 0046 F1E7     		b	.L107
 1718              	.L114:
 797:Drivers/lsm303agr/Src/lsm303agr_reg.c ****       break;
 1719              		.loc 1 797 7 view .LVU403
 797:Drivers/lsm303agr/Src/lsm303agr_reg.c ****       break;
 1720              		.loc 1 797 12 is_stmt 0 view .LVU404
 1721 0048 0523     		movs	r3, #5
 1722 004a 2370     		strb	r3, [r4]
 798:Drivers/lsm303agr/Src/lsm303agr_reg.c **** 
 1723              		.loc 1 798 7 is_stmt 1 view .LVU405
 1724 004c EEE7     		b	.L107
 1725              	.L113:
 801:Drivers/lsm303agr/Src/lsm303agr_reg.c ****       break;
 1726              		.loc 1 801 7 view .LVU406
 801:Drivers/lsm303agr/Src/lsm303agr_reg.c ****       break;
 1727              		.loc 1 801 12 is_stmt 0 view .LVU407
 1728 004e 0623     		movs	r3, #6
ARM GAS  C:\Users\SF\AppData\Local\Temp\ccFGOSN0.s 			page 46


 1729 0050 2370     		strb	r3, [r4]
 802:Drivers/lsm303agr/Src/lsm303agr_reg.c **** 
 1730              		.loc 1 802 7 is_stmt 1 view .LVU408
 1731 0052 EBE7     		b	.L107
 1732              	.L112:
 805:Drivers/lsm303agr/Src/lsm303agr_reg.c ****       break;
 1733              		.loc 1 805 7 view .LVU409
 805:Drivers/lsm303agr/Src/lsm303agr_reg.c ****       break;
 1734              		.loc 1 805 12 is_stmt 0 view .LVU410
 1735 0054 0723     		movs	r3, #7
 1736 0056 2370     		strb	r3, [r4]
 806:Drivers/lsm303agr/Src/lsm303agr_reg.c **** 
 1737              		.loc 1 806 7 is_stmt 1 view .LVU411
 1738 0058 E8E7     		b	.L107
 1739              	.L111:
 809:Drivers/lsm303agr/Src/lsm303agr_reg.c ****       break;
 1740              		.loc 1 809 7 view .LVU412
 809:Drivers/lsm303agr/Src/lsm303agr_reg.c ****       break;
 1741              		.loc 1 809 12 is_stmt 0 view .LVU413
 1742 005a 0823     		movs	r3, #8
 1743 005c 2370     		strb	r3, [r4]
 810:Drivers/lsm303agr/Src/lsm303agr_reg.c **** 
 1744              		.loc 1 810 7 is_stmt 1 view .LVU414
 1745 005e E5E7     		b	.L107
 1746              	.L109:
 813:Drivers/lsm303agr/Src/lsm303agr_reg.c ****       break;
 1747              		.loc 1 813 7 view .LVU415
 813:Drivers/lsm303agr/Src/lsm303agr_reg.c ****       break;
 1748              		.loc 1 813 12 is_stmt 0 view .LVU416
 1749 0060 0923     		movs	r3, #9
 1750 0062 2370     		strb	r3, [r4]
 814:Drivers/lsm303agr/Src/lsm303agr_reg.c **** 
 1751              		.loc 1 814 7 is_stmt 1 view .LVU417
 1752 0064 E2E7     		b	.L107
 1753              	.L108:
 817:Drivers/lsm303agr/Src/lsm303agr_reg.c ****       break;
 1754              		.loc 1 817 7 view .LVU418
 817:Drivers/lsm303agr/Src/lsm303agr_reg.c ****       break;
 1755              		.loc 1 817 12 is_stmt 0 view .LVU419
 1756 0066 0023     		movs	r3, #0
 1757 0068 2370     		strb	r3, [r4]
 818:Drivers/lsm303agr/Src/lsm303agr_reg.c ****   }
 1758              		.loc 1 818 7 is_stmt 1 view .LVU420
 821:Drivers/lsm303agr/Src/lsm303agr_reg.c **** }
 1759              		.loc 1 821 3 view .LVU421
 821:Drivers/lsm303agr/Src/lsm303agr_reg.c **** }
 1760              		.loc 1 821 10 is_stmt 0 view .LVU422
 1761 006a DFE7     		b	.L107
 1762              		.cfi_endproc
 1763              	.LFE165:
 1765              		.section	.text.lsm303agr_xl_high_pass_on_outputs_set,"ax",%progbits
 1766              		.align	1
 1767              		.global	lsm303agr_xl_high_pass_on_outputs_set
 1768              		.syntax unified
 1769              		.thumb
 1770              		.thumb_func
 1772              	lsm303agr_xl_high_pass_on_outputs_set:
ARM GAS  C:\Users\SF\AppData\Local\Temp\ccFGOSN0.s 			page 47


 1773              	.LVL105:
 1774              	.LFB166:
 823:Drivers/lsm303agr/Src/lsm303agr_reg.c **** 
 824:Drivers/lsm303agr/Src/lsm303agr_reg.c **** /**
 825:Drivers/lsm303agr/Src/lsm303agr_reg.c ****   * @brief   High pass data from internal filter sent to output register and FIFO.[set]
 826:Drivers/lsm303agr/Src/lsm303agr_reg.c ****   *
 827:Drivers/lsm303agr/Src/lsm303agr_reg.c ****   * @param  ctx    Read / write interface definitions.(ptr)
 828:Drivers/lsm303agr/Src/lsm303agr_reg.c ****   * @param  val    Change the values of fds in reg CTRL_REG2_A
 829:Drivers/lsm303agr/Src/lsm303agr_reg.c ****   * @retval        Interface status (MANDATORY: return 0 -> no Error).
 830:Drivers/lsm303agr/Src/lsm303agr_reg.c ****   *
 831:Drivers/lsm303agr/Src/lsm303agr_reg.c ****   */
 832:Drivers/lsm303agr/Src/lsm303agr_reg.c **** int32_t lsm303agr_xl_high_pass_on_outputs_set(stmdev_ctx_t *ctx,
 833:Drivers/lsm303agr/Src/lsm303agr_reg.c ****                                               uint8_t val)
 834:Drivers/lsm303agr/Src/lsm303agr_reg.c **** {
 1775              		.loc 1 834 1 is_stmt 1 view -0
 1776              		.cfi_startproc
 1777              		@ args = 0, pretend = 0, frame = 8
 1778              		@ frame_needed = 0, uses_anonymous_args = 0
 1779              		.loc 1 834 1 is_stmt 0 view .LVU424
 1780 0000 30B5     		push	{r4, r5, lr}
 1781              	.LCFI45:
 1782              		.cfi_def_cfa_offset 12
 1783              		.cfi_offset 4, -12
 1784              		.cfi_offset 5, -8
 1785              		.cfi_offset 14, -4
 1786 0002 83B0     		sub	sp, sp, #12
 1787              	.LCFI46:
 1788              		.cfi_def_cfa_offset 24
 1789 0004 0446     		mov	r4, r0
 1790 0006 0D46     		mov	r5, r1
 835:Drivers/lsm303agr/Src/lsm303agr_reg.c ****   lsm303agr_ctrl_reg2_a_t ctrl_reg2_a;
 1791              		.loc 1 835 3 is_stmt 1 view .LVU425
 836:Drivers/lsm303agr/Src/lsm303agr_reg.c ****   int32_t ret;
 1792              		.loc 1 836 3 view .LVU426
 837:Drivers/lsm303agr/Src/lsm303agr_reg.c **** 
 838:Drivers/lsm303agr/Src/lsm303agr_reg.c ****   ret = lsm303agr_read_reg(ctx, LSM303AGR_CTRL_REG2_A,
 1793              		.loc 1 838 3 view .LVU427
 1794              		.loc 1 838 9 is_stmt 0 view .LVU428
 1795 0008 0123     		movs	r3, #1
 1796 000a 01AA     		add	r2, sp, #4
 1797 000c 2121     		movs	r1, #33
 1798              	.LVL106:
 1799              		.loc 1 838 9 view .LVU429
 1800 000e FFF7FEFF 		bl	lsm303agr_read_reg
 1801              	.LVL107:
 839:Drivers/lsm303agr/Src/lsm303agr_reg.c ****                            (uint8_t *)&ctrl_reg2_a, 1);
 840:Drivers/lsm303agr/Src/lsm303agr_reg.c **** 
 841:Drivers/lsm303agr/Src/lsm303agr_reg.c ****   if (ret == 0)
 1802              		.loc 1 841 3 is_stmt 1 view .LVU430
 1803              		.loc 1 841 6 is_stmt 0 view .LVU431
 1804 0012 08B1     		cbz	r0, .L125
 1805              	.LVL108:
 1806              	.L122:
 842:Drivers/lsm303agr/Src/lsm303agr_reg.c ****   {
 843:Drivers/lsm303agr/Src/lsm303agr_reg.c ****     ctrl_reg2_a.fds = (uint8_t)val;
 844:Drivers/lsm303agr/Src/lsm303agr_reg.c ****     ret = lsm303agr_write_reg(ctx, LSM303AGR_CTRL_REG2_A,
 845:Drivers/lsm303agr/Src/lsm303agr_reg.c ****                               (uint8_t *)&ctrl_reg2_a, 1);
ARM GAS  C:\Users\SF\AppData\Local\Temp\ccFGOSN0.s 			page 48


 846:Drivers/lsm303agr/Src/lsm303agr_reg.c ****   }
 847:Drivers/lsm303agr/Src/lsm303agr_reg.c **** 
 848:Drivers/lsm303agr/Src/lsm303agr_reg.c ****   return ret;
 849:Drivers/lsm303agr/Src/lsm303agr_reg.c **** }
 1807              		.loc 1 849 1 view .LVU432
 1808 0014 03B0     		add	sp, sp, #12
 1809              	.LCFI47:
 1810              		.cfi_remember_state
 1811              		.cfi_def_cfa_offset 12
 1812              		@ sp needed
 1813 0016 30BD     		pop	{r4, r5, pc}
 1814              	.LVL109:
 1815              	.L125:
 1816              	.LCFI48:
 1817              		.cfi_restore_state
 843:Drivers/lsm303agr/Src/lsm303agr_reg.c ****     ret = lsm303agr_write_reg(ctx, LSM303AGR_CTRL_REG2_A,
 1818              		.loc 1 843 5 is_stmt 1 view .LVU433
 843:Drivers/lsm303agr/Src/lsm303agr_reg.c ****     ret = lsm303agr_write_reg(ctx, LSM303AGR_CTRL_REG2_A,
 1819              		.loc 1 843 21 is_stmt 0 view .LVU434
 1820 0018 9DF80430 		ldrb	r3, [sp, #4]	@ zero_extendqisi2
 1821 001c 65F3C303 		bfi	r3, r5, #3, #1
 1822 0020 8DF80430 		strb	r3, [sp, #4]
 844:Drivers/lsm303agr/Src/lsm303agr_reg.c ****                               (uint8_t *)&ctrl_reg2_a, 1);
 1823              		.loc 1 844 5 is_stmt 1 view .LVU435
 844:Drivers/lsm303agr/Src/lsm303agr_reg.c ****                               (uint8_t *)&ctrl_reg2_a, 1);
 1824              		.loc 1 844 11 is_stmt 0 view .LVU436
 1825 0024 0123     		movs	r3, #1
 1826              	.LVL110:
 844:Drivers/lsm303agr/Src/lsm303agr_reg.c ****                               (uint8_t *)&ctrl_reg2_a, 1);
 1827              		.loc 1 844 11 view .LVU437
 1828 0026 01AA     		add	r2, sp, #4
 1829 0028 2121     		movs	r1, #33
 1830 002a 2046     		mov	r0, r4
 1831 002c FFF7FEFF 		bl	lsm303agr_write_reg
 1832              	.LVL111:
 848:Drivers/lsm303agr/Src/lsm303agr_reg.c **** }
 1833              		.loc 1 848 3 is_stmt 1 view .LVU438
 848:Drivers/lsm303agr/Src/lsm303agr_reg.c **** }
 1834              		.loc 1 848 10 is_stmt 0 view .LVU439
 1835 0030 F0E7     		b	.L122
 1836              		.cfi_endproc
 1837              	.LFE166:
 1839              		.section	.text.lsm303agr_xl_high_pass_on_outputs_get,"ax",%progbits
 1840              		.align	1
 1841              		.global	lsm303agr_xl_high_pass_on_outputs_get
 1842              		.syntax unified
 1843              		.thumb
 1844              		.thumb_func
 1846              	lsm303agr_xl_high_pass_on_outputs_get:
 1847              	.LVL112:
 1848              	.LFB167:
 850:Drivers/lsm303agr/Src/lsm303agr_reg.c **** 
 851:Drivers/lsm303agr/Src/lsm303agr_reg.c **** /**
 852:Drivers/lsm303agr/Src/lsm303agr_reg.c ****   * @brief  High pass data from internal filter sent to output
 853:Drivers/lsm303agr/Src/lsm303agr_reg.c ****   *         register and FIFO.[get]
 854:Drivers/lsm303agr/Src/lsm303agr_reg.c ****   *
 855:Drivers/lsm303agr/Src/lsm303agr_reg.c ****   * @param  ctx    Read / write interface definitions.(ptr)
ARM GAS  C:\Users\SF\AppData\Local\Temp\ccFGOSN0.s 			page 49


 856:Drivers/lsm303agr/Src/lsm303agr_reg.c ****   * @param  val    Get the values of fds in reg CTRL_REG2_A.(ptr)
 857:Drivers/lsm303agr/Src/lsm303agr_reg.c ****   * @retval        Interface status (MANDATORY: return 0 -> no Error).
 858:Drivers/lsm303agr/Src/lsm303agr_reg.c ****   *
 859:Drivers/lsm303agr/Src/lsm303agr_reg.c ****   */
 860:Drivers/lsm303agr/Src/lsm303agr_reg.c **** int32_t lsm303agr_xl_high_pass_on_outputs_get(stmdev_ctx_t *ctx,
 861:Drivers/lsm303agr/Src/lsm303agr_reg.c ****                                               uint8_t *val)
 862:Drivers/lsm303agr/Src/lsm303agr_reg.c **** {
 1849              		.loc 1 862 1 is_stmt 1 view -0
 1850              		.cfi_startproc
 1851              		@ args = 0, pretend = 0, frame = 8
 1852              		@ frame_needed = 0, uses_anonymous_args = 0
 1853              		.loc 1 862 1 is_stmt 0 view .LVU441
 1854 0000 10B5     		push	{r4, lr}
 1855              	.LCFI49:
 1856              		.cfi_def_cfa_offset 8
 1857              		.cfi_offset 4, -8
 1858              		.cfi_offset 14, -4
 1859 0002 82B0     		sub	sp, sp, #8
 1860              	.LCFI50:
 1861              		.cfi_def_cfa_offset 16
 1862 0004 0C46     		mov	r4, r1
 863:Drivers/lsm303agr/Src/lsm303agr_reg.c ****   lsm303agr_ctrl_reg2_a_t ctrl_reg2_a;
 1863              		.loc 1 863 3 is_stmt 1 view .LVU442
 864:Drivers/lsm303agr/Src/lsm303agr_reg.c ****   int32_t ret;
 1864              		.loc 1 864 3 view .LVU443
 865:Drivers/lsm303agr/Src/lsm303agr_reg.c **** 
 866:Drivers/lsm303agr/Src/lsm303agr_reg.c ****   ret = lsm303agr_read_reg(ctx, LSM303AGR_CTRL_REG2_A,
 1865              		.loc 1 866 3 view .LVU444
 1866              		.loc 1 866 9 is_stmt 0 view .LVU445
 1867 0006 0123     		movs	r3, #1
 1868 0008 01AA     		add	r2, sp, #4
 1869 000a 2121     		movs	r1, #33
 1870              	.LVL113:
 1871              		.loc 1 866 9 view .LVU446
 1872 000c FFF7FEFF 		bl	lsm303agr_read_reg
 1873              	.LVL114:
 867:Drivers/lsm303agr/Src/lsm303agr_reg.c ****                            (uint8_t *)&ctrl_reg2_a, 1);
 868:Drivers/lsm303agr/Src/lsm303agr_reg.c ****   *val = ctrl_reg2_a.fds;
 1874              		.loc 1 868 3 is_stmt 1 view .LVU447
 1875              		.loc 1 868 21 is_stmt 0 view .LVU448
 1876 0010 9DF80430 		ldrb	r3, [sp, #4]	@ zero_extendqisi2
 1877 0014 C3F3C003 		ubfx	r3, r3, #3, #1
 1878              		.loc 1 868 8 view .LVU449
 1879 0018 2370     		strb	r3, [r4]
 869:Drivers/lsm303agr/Src/lsm303agr_reg.c **** 
 870:Drivers/lsm303agr/Src/lsm303agr_reg.c ****   return ret;
 1880              		.loc 1 870 3 is_stmt 1 view .LVU450
 871:Drivers/lsm303agr/Src/lsm303agr_reg.c **** }
 1881              		.loc 1 871 1 is_stmt 0 view .LVU451
 1882 001a 02B0     		add	sp, sp, #8
 1883              	.LCFI51:
 1884              		.cfi_def_cfa_offset 8
 1885              		@ sp needed
 1886 001c 10BD     		pop	{r4, pc}
 1887              		.loc 1 871 1 view .LVU452
 1888              		.cfi_endproc
 1889              	.LFE167:
ARM GAS  C:\Users\SF\AppData\Local\Temp\ccFGOSN0.s 			page 50


 1891              		.section	.text.lsm303agr_xl_high_pass_bandwidth_set,"ax",%progbits
 1892              		.align	1
 1893              		.global	lsm303agr_xl_high_pass_bandwidth_set
 1894              		.syntax unified
 1895              		.thumb
 1896              		.thumb_func
 1898              	lsm303agr_xl_high_pass_bandwidth_set:
 1899              	.LVL115:
 1900              	.LFB168:
 872:Drivers/lsm303agr/Src/lsm303agr_reg.c **** 
 873:Drivers/lsm303agr/Src/lsm303agr_reg.c **** /**
 874:Drivers/lsm303agr/Src/lsm303agr_reg.c ****   * @brief  High-pass filter cutoff frequency selection.[set]
 875:Drivers/lsm303agr/Src/lsm303agr_reg.c ****   *
 876:Drivers/lsm303agr/Src/lsm303agr_reg.c ****   *
 877:Drivers/lsm303agr/Src/lsm303agr_reg.c ****   * @param  ctx    Read / write interface definitions.(ptr)
 878:Drivers/lsm303agr/Src/lsm303agr_reg.c ****   * @param  val    Change the values of hpcf in reg CTRL_REG2_A
 879:Drivers/lsm303agr/Src/lsm303agr_reg.c ****   *
 880:Drivers/lsm303agr/Src/lsm303agr_reg.c ****   * HPCF[2:1]\ft @1Hz    @10Hz  @25Hz  @50Hz @100Hz @200Hz @400Hz @1kHz6 ft@5kHz
 881:Drivers/lsm303agr/Src/lsm303agr_reg.c ****   * AGGRESSIVE   0.02Hz  0.2Hz  0.5Hz  1Hz   2Hz    4Hz    8Hz    32Hz   100Hz
 882:Drivers/lsm303agr/Src/lsm303agr_reg.c ****   * STRONG       0.008Hz 0.08Hz 0.2Hz  0.5Hz 1Hz    2Hz    4Hz    16Hz   50Hz
 883:Drivers/lsm303agr/Src/lsm303agr_reg.c ****   * MEDIUM       0.004Hz 0.04Hz 0.1Hz  0.2Hz 0.5Hz  1Hz    2Hz    8Hz    25Hz
 884:Drivers/lsm303agr/Src/lsm303agr_reg.c ****   * LIGHT        0.002Hz 0.02Hz 0.05Hz 0.1Hz 0.2Hz  0.5Hz  1Hz    4Hz    12Hz
 885:Drivers/lsm303agr/Src/lsm303agr_reg.c ****   * @retval        Interface status (MANDATORY: return 0 -> no Error).
 886:Drivers/lsm303agr/Src/lsm303agr_reg.c ****   *
 887:Drivers/lsm303agr/Src/lsm303agr_reg.c ****   */
 888:Drivers/lsm303agr/Src/lsm303agr_reg.c **** int32_t lsm303agr_xl_high_pass_bandwidth_set(stmdev_ctx_t *ctx,
 889:Drivers/lsm303agr/Src/lsm303agr_reg.c ****                                              lsm303agr_hpcf_a_t val)
 890:Drivers/lsm303agr/Src/lsm303agr_reg.c **** {
 1901              		.loc 1 890 1 is_stmt 1 view -0
 1902              		.cfi_startproc
 1903              		@ args = 0, pretend = 0, frame = 8
 1904              		@ frame_needed = 0, uses_anonymous_args = 0
 1905              		.loc 1 890 1 is_stmt 0 view .LVU454
 1906 0000 30B5     		push	{r4, r5, lr}
 1907              	.LCFI52:
 1908              		.cfi_def_cfa_offset 12
 1909              		.cfi_offset 4, -12
 1910              		.cfi_offset 5, -8
 1911              		.cfi_offset 14, -4
 1912 0002 83B0     		sub	sp, sp, #12
 1913              	.LCFI53:
 1914              		.cfi_def_cfa_offset 24
 1915 0004 0446     		mov	r4, r0
 1916 0006 0D46     		mov	r5, r1
 891:Drivers/lsm303agr/Src/lsm303agr_reg.c ****   lsm303agr_ctrl_reg2_a_t ctrl_reg2_a;
 1917              		.loc 1 891 3 is_stmt 1 view .LVU455
 892:Drivers/lsm303agr/Src/lsm303agr_reg.c ****   int32_t ret;
 1918              		.loc 1 892 3 view .LVU456
 893:Drivers/lsm303agr/Src/lsm303agr_reg.c **** 
 894:Drivers/lsm303agr/Src/lsm303agr_reg.c ****   ret = lsm303agr_read_reg(ctx, LSM303AGR_CTRL_REG2_A,
 1919              		.loc 1 894 3 view .LVU457
 1920              		.loc 1 894 9 is_stmt 0 view .LVU458
 1921 0008 0123     		movs	r3, #1
 1922 000a 01AA     		add	r2, sp, #4
 1923 000c 2121     		movs	r1, #33
 1924              	.LVL116:
 1925              		.loc 1 894 9 view .LVU459
ARM GAS  C:\Users\SF\AppData\Local\Temp\ccFGOSN0.s 			page 51


 1926 000e FFF7FEFF 		bl	lsm303agr_read_reg
 1927              	.LVL117:
 895:Drivers/lsm303agr/Src/lsm303agr_reg.c ****                            (uint8_t *)&ctrl_reg2_a, 1);
 896:Drivers/lsm303agr/Src/lsm303agr_reg.c **** 
 897:Drivers/lsm303agr/Src/lsm303agr_reg.c ****   if (ret == 0)
 1928              		.loc 1 897 3 is_stmt 1 view .LVU460
 1929              		.loc 1 897 6 is_stmt 0 view .LVU461
 1930 0012 08B1     		cbz	r0, .L131
 1931              	.LVL118:
 1932              	.L128:
 898:Drivers/lsm303agr/Src/lsm303agr_reg.c ****   {
 899:Drivers/lsm303agr/Src/lsm303agr_reg.c ****     ctrl_reg2_a.hpcf = (uint8_t)val;
 900:Drivers/lsm303agr/Src/lsm303agr_reg.c ****     ret = lsm303agr_write_reg(ctx, LSM303AGR_CTRL_REG2_A,
 901:Drivers/lsm303agr/Src/lsm303agr_reg.c ****                               (uint8_t *)&ctrl_reg2_a, 1);
 902:Drivers/lsm303agr/Src/lsm303agr_reg.c ****   }
 903:Drivers/lsm303agr/Src/lsm303agr_reg.c **** 
 904:Drivers/lsm303agr/Src/lsm303agr_reg.c ****   return ret;
 905:Drivers/lsm303agr/Src/lsm303agr_reg.c **** }
 1933              		.loc 1 905 1 view .LVU462
 1934 0014 03B0     		add	sp, sp, #12
 1935              	.LCFI54:
 1936              		.cfi_remember_state
 1937              		.cfi_def_cfa_offset 12
 1938              		@ sp needed
 1939 0016 30BD     		pop	{r4, r5, pc}
 1940              	.LVL119:
 1941              	.L131:
 1942              	.LCFI55:
 1943              		.cfi_restore_state
 899:Drivers/lsm303agr/Src/lsm303agr_reg.c ****     ret = lsm303agr_write_reg(ctx, LSM303AGR_CTRL_REG2_A,
 1944              		.loc 1 899 5 is_stmt 1 view .LVU463
 899:Drivers/lsm303agr/Src/lsm303agr_reg.c ****     ret = lsm303agr_write_reg(ctx, LSM303AGR_CTRL_REG2_A,
 1945              		.loc 1 899 22 is_stmt 0 view .LVU464
 1946 0018 9DF80430 		ldrb	r3, [sp, #4]	@ zero_extendqisi2
 1947 001c 65F30513 		bfi	r3, r5, #4, #2
 1948 0020 8DF80430 		strb	r3, [sp, #4]
 900:Drivers/lsm303agr/Src/lsm303agr_reg.c ****                               (uint8_t *)&ctrl_reg2_a, 1);
 1949              		.loc 1 900 5 is_stmt 1 view .LVU465
 900:Drivers/lsm303agr/Src/lsm303agr_reg.c ****                               (uint8_t *)&ctrl_reg2_a, 1);
 1950              		.loc 1 900 11 is_stmt 0 view .LVU466
 1951 0024 0123     		movs	r3, #1
 1952              	.LVL120:
 900:Drivers/lsm303agr/Src/lsm303agr_reg.c ****                               (uint8_t *)&ctrl_reg2_a, 1);
 1953              		.loc 1 900 11 view .LVU467
 1954 0026 01AA     		add	r2, sp, #4
 1955 0028 2121     		movs	r1, #33
 1956 002a 2046     		mov	r0, r4
 1957 002c FFF7FEFF 		bl	lsm303agr_write_reg
 1958              	.LVL121:
 904:Drivers/lsm303agr/Src/lsm303agr_reg.c **** }
 1959              		.loc 1 904 3 is_stmt 1 view .LVU468
 904:Drivers/lsm303agr/Src/lsm303agr_reg.c **** }
 1960              		.loc 1 904 10 is_stmt 0 view .LVU469
 1961 0030 F0E7     		b	.L128
 1962              		.cfi_endproc
 1963              	.LFE168:
 1965              		.section	.text.lsm303agr_xl_high_pass_bandwidth_get,"ax",%progbits
ARM GAS  C:\Users\SF\AppData\Local\Temp\ccFGOSN0.s 			page 52


 1966              		.align	1
 1967              		.global	lsm303agr_xl_high_pass_bandwidth_get
 1968              		.syntax unified
 1969              		.thumb
 1970              		.thumb_func
 1972              	lsm303agr_xl_high_pass_bandwidth_get:
 1973              	.LVL122:
 1974              	.LFB169:
 906:Drivers/lsm303agr/Src/lsm303agr_reg.c **** 
 907:Drivers/lsm303agr/Src/lsm303agr_reg.c **** /**
 908:Drivers/lsm303agr/Src/lsm303agr_reg.c ****   * @brief  High-pass filter cutoff frequency selection.[get]
 909:Drivers/lsm303agr/Src/lsm303agr_reg.c ****   *
 910:Drivers/lsm303agr/Src/lsm303agr_reg.c ****   * @param  ctx    Read / write interface definitions.(ptr)
 911:Drivers/lsm303agr/Src/lsm303agr_reg.c ****   * @param  val    Get the values of hpcf in reg CTRL_REG2_A.(ptr)
 912:Drivers/lsm303agr/Src/lsm303agr_reg.c ****   *
 913:Drivers/lsm303agr/Src/lsm303agr_reg.c ****   * HPCF[2:1]\ft @1Hz    @10Hz  @25Hz  @50Hz @100Hz @200Hz @400Hz @1kHz6 ft@5kHz
 914:Drivers/lsm303agr/Src/lsm303agr_reg.c ****   * AGGRESSIVE   0.02Hz  0.2Hz  0.5Hz  1Hz   2Hz    4Hz    8Hz    32Hz   100Hz
 915:Drivers/lsm303agr/Src/lsm303agr_reg.c ****   * STRONG       0.008Hz 0.08Hz 0.2Hz  0.5Hz 1Hz    2Hz    4Hz    16Hz   50Hz
 916:Drivers/lsm303agr/Src/lsm303agr_reg.c ****   * MEDIUM       0.004Hz 0.04Hz 0.1Hz  0.2Hz 0.5Hz  1Hz    2Hz    8Hz    25Hz
 917:Drivers/lsm303agr/Src/lsm303agr_reg.c ****   * LIGHT        0.002Hz 0.02Hz 0.05Hz 0.1Hz 0.2Hz  0.5Hz  1Hz    4Hz    12Hz
 918:Drivers/lsm303agr/Src/lsm303agr_reg.c ****   *
 919:Drivers/lsm303agr/Src/lsm303agr_reg.c ****   * @retval        Interface status (MANDATORY: return 0 -> no Error).
 920:Drivers/lsm303agr/Src/lsm303agr_reg.c ****   *
 921:Drivers/lsm303agr/Src/lsm303agr_reg.c ****   */
 922:Drivers/lsm303agr/Src/lsm303agr_reg.c **** int32_t lsm303agr_xl_high_pass_bandwidth_get(stmdev_ctx_t *ctx,
 923:Drivers/lsm303agr/Src/lsm303agr_reg.c ****                                              lsm303agr_hpcf_a_t *val)
 924:Drivers/lsm303agr/Src/lsm303agr_reg.c **** {
 1975              		.loc 1 924 1 is_stmt 1 view -0
 1976              		.cfi_startproc
 1977              		@ args = 0, pretend = 0, frame = 8
 1978              		@ frame_needed = 0, uses_anonymous_args = 0
 1979              		.loc 1 924 1 is_stmt 0 view .LVU471
 1980 0000 10B5     		push	{r4, lr}
 1981              	.LCFI56:
 1982              		.cfi_def_cfa_offset 8
 1983              		.cfi_offset 4, -8
 1984              		.cfi_offset 14, -4
 1985 0002 82B0     		sub	sp, sp, #8
 1986              	.LCFI57:
 1987              		.cfi_def_cfa_offset 16
 1988 0004 0C46     		mov	r4, r1
 925:Drivers/lsm303agr/Src/lsm303agr_reg.c ****   lsm303agr_ctrl_reg2_a_t ctrl_reg2_a;
 1989              		.loc 1 925 3 is_stmt 1 view .LVU472
 926:Drivers/lsm303agr/Src/lsm303agr_reg.c ****   int32_t ret;
 1990              		.loc 1 926 3 view .LVU473
 927:Drivers/lsm303agr/Src/lsm303agr_reg.c **** 
 928:Drivers/lsm303agr/Src/lsm303agr_reg.c ****   ret = lsm303agr_read_reg(ctx, LSM303AGR_CTRL_REG2_A,
 1991              		.loc 1 928 3 view .LVU474
 1992              		.loc 1 928 9 is_stmt 0 view .LVU475
 1993 0006 0123     		movs	r3, #1
 1994 0008 01AA     		add	r2, sp, #4
 1995 000a 2121     		movs	r1, #33
 1996              	.LVL123:
 1997              		.loc 1 928 9 view .LVU476
 1998 000c FFF7FEFF 		bl	lsm303agr_read_reg
 1999              	.LVL124:
 929:Drivers/lsm303agr/Src/lsm303agr_reg.c ****                            (uint8_t *)&ctrl_reg2_a, 1);
ARM GAS  C:\Users\SF\AppData\Local\Temp\ccFGOSN0.s 			page 53


 930:Drivers/lsm303agr/Src/lsm303agr_reg.c **** 
 931:Drivers/lsm303agr/Src/lsm303agr_reg.c ****   switch (ctrl_reg2_a.hpcf)
 2000              		.loc 1 931 3 is_stmt 1 view .LVU477
 2001              		.loc 1 931 22 is_stmt 0 view .LVU478
 2002 0010 9DF80430 		ldrb	r3, [sp, #4]	@ zero_extendqisi2
 2003 0014 C3F30113 		ubfx	r3, r3, #4, #2
 2004              		.loc 1 931 3 view .LVU479
 2005 0018 032B     		cmp	r3, #3
 2006 001a 10D8     		bhi	.L133
 2007 001c DFE803F0 		tbb	[pc, r3]
 2008              	.L135:
 2009 0020 02       		.byte	(.L138-.L135)/2
 2010 0021 06       		.byte	(.L137-.L135)/2
 2011 0022 09       		.byte	(.L136-.L135)/2
 2012 0023 0C       		.byte	(.L134-.L135)/2
 2013              		.p2align 1
 2014              	.L138:
 932:Drivers/lsm303agr/Src/lsm303agr_reg.c ****   {
 933:Drivers/lsm303agr/Src/lsm303agr_reg.c ****     case LSM303AGR_AGGRESSIVE:
 934:Drivers/lsm303agr/Src/lsm303agr_reg.c ****       *val = LSM303AGR_AGGRESSIVE;
 2015              		.loc 1 934 7 is_stmt 1 view .LVU480
 2016              		.loc 1 934 12 is_stmt 0 view .LVU481
 2017 0024 0023     		movs	r3, #0
 2018 0026 2370     		strb	r3, [r4]
 935:Drivers/lsm303agr/Src/lsm303agr_reg.c ****       break;
 2019              		.loc 1 935 7 is_stmt 1 view .LVU482
 2020              	.L132:
 936:Drivers/lsm303agr/Src/lsm303agr_reg.c **** 
 937:Drivers/lsm303agr/Src/lsm303agr_reg.c ****     case LSM303AGR_STRONG:
 938:Drivers/lsm303agr/Src/lsm303agr_reg.c ****       *val = LSM303AGR_STRONG;
 939:Drivers/lsm303agr/Src/lsm303agr_reg.c ****       break;
 940:Drivers/lsm303agr/Src/lsm303agr_reg.c **** 
 941:Drivers/lsm303agr/Src/lsm303agr_reg.c ****     case LSM303AGR_MEDIUM:
 942:Drivers/lsm303agr/Src/lsm303agr_reg.c ****       *val = LSM303AGR_MEDIUM;
 943:Drivers/lsm303agr/Src/lsm303agr_reg.c ****       break;
 944:Drivers/lsm303agr/Src/lsm303agr_reg.c **** 
 945:Drivers/lsm303agr/Src/lsm303agr_reg.c ****     case LSM303AGR_LIGHT:
 946:Drivers/lsm303agr/Src/lsm303agr_reg.c ****       *val = LSM303AGR_LIGHT;
 947:Drivers/lsm303agr/Src/lsm303agr_reg.c ****       break;
 948:Drivers/lsm303agr/Src/lsm303agr_reg.c **** 
 949:Drivers/lsm303agr/Src/lsm303agr_reg.c ****     default:
 950:Drivers/lsm303agr/Src/lsm303agr_reg.c ****       *val = LSM303AGR_AGGRESSIVE;
 951:Drivers/lsm303agr/Src/lsm303agr_reg.c ****       break;
 952:Drivers/lsm303agr/Src/lsm303agr_reg.c ****   }
 953:Drivers/lsm303agr/Src/lsm303agr_reg.c **** 
 954:Drivers/lsm303agr/Src/lsm303agr_reg.c ****   return ret;
 955:Drivers/lsm303agr/Src/lsm303agr_reg.c **** }
 2021              		.loc 1 955 1 is_stmt 0 view .LVU483
 2022 0028 02B0     		add	sp, sp, #8
 2023              	.LCFI58:
 2024              		.cfi_remember_state
 2025              		.cfi_def_cfa_offset 8
 2026              		@ sp needed
 2027 002a 10BD     		pop	{r4, pc}
 2028              	.LVL125:
 2029              	.L137:
 2030              	.LCFI59:
ARM GAS  C:\Users\SF\AppData\Local\Temp\ccFGOSN0.s 			page 54


 2031              		.cfi_restore_state
 938:Drivers/lsm303agr/Src/lsm303agr_reg.c ****       break;
 2032              		.loc 1 938 7 is_stmt 1 view .LVU484
 938:Drivers/lsm303agr/Src/lsm303agr_reg.c ****       break;
 2033              		.loc 1 938 12 is_stmt 0 view .LVU485
 2034 002c 0123     		movs	r3, #1
 2035 002e 2370     		strb	r3, [r4]
 939:Drivers/lsm303agr/Src/lsm303agr_reg.c **** 
 2036              		.loc 1 939 7 is_stmt 1 view .LVU486
 2037 0030 FAE7     		b	.L132
 2038              	.L136:
 942:Drivers/lsm303agr/Src/lsm303agr_reg.c ****       break;
 2039              		.loc 1 942 7 view .LVU487
 942:Drivers/lsm303agr/Src/lsm303agr_reg.c ****       break;
 2040              		.loc 1 942 12 is_stmt 0 view .LVU488
 2041 0032 0223     		movs	r3, #2
 2042 0034 2370     		strb	r3, [r4]
 943:Drivers/lsm303agr/Src/lsm303agr_reg.c **** 
 2043              		.loc 1 943 7 is_stmt 1 view .LVU489
 2044 0036 F7E7     		b	.L132
 2045              	.L134:
 946:Drivers/lsm303agr/Src/lsm303agr_reg.c ****       break;
 2046              		.loc 1 946 7 view .LVU490
 946:Drivers/lsm303agr/Src/lsm303agr_reg.c ****       break;
 2047              		.loc 1 946 12 is_stmt 0 view .LVU491
 2048 0038 0323     		movs	r3, #3
 2049 003a 2370     		strb	r3, [r4]
 947:Drivers/lsm303agr/Src/lsm303agr_reg.c **** 
 2050              		.loc 1 947 7 is_stmt 1 view .LVU492
 2051 003c F4E7     		b	.L132
 2052              	.L133:
 950:Drivers/lsm303agr/Src/lsm303agr_reg.c ****       break;
 2053              		.loc 1 950 7 view .LVU493
 950:Drivers/lsm303agr/Src/lsm303agr_reg.c ****       break;
 2054              		.loc 1 950 12 is_stmt 0 view .LVU494
 2055 003e 0023     		movs	r3, #0
 2056 0040 2370     		strb	r3, [r4]
 951:Drivers/lsm303agr/Src/lsm303agr_reg.c ****   }
 2057              		.loc 1 951 7 is_stmt 1 view .LVU495
 954:Drivers/lsm303agr/Src/lsm303agr_reg.c **** }
 2058              		.loc 1 954 3 view .LVU496
 954:Drivers/lsm303agr/Src/lsm303agr_reg.c **** }
 2059              		.loc 1 954 10 is_stmt 0 view .LVU497
 2060 0042 F1E7     		b	.L132
 2061              		.cfi_endproc
 2062              	.LFE169:
 2064              		.section	.text.lsm303agr_xl_high_pass_mode_set,"ax",%progbits
 2065              		.align	1
 2066              		.global	lsm303agr_xl_high_pass_mode_set
 2067              		.syntax unified
 2068              		.thumb
 2069              		.thumb_func
 2071              	lsm303agr_xl_high_pass_mode_set:
 2072              	.LVL126:
 2073              	.LFB170:
 956:Drivers/lsm303agr/Src/lsm303agr_reg.c **** 
 957:Drivers/lsm303agr/Src/lsm303agr_reg.c **** /**
ARM GAS  C:\Users\SF\AppData\Local\Temp\ccFGOSN0.s 			page 55


 958:Drivers/lsm303agr/Src/lsm303agr_reg.c ****   * @brief  High-pass filter mode selection.[set]
 959:Drivers/lsm303agr/Src/lsm303agr_reg.c ****   *
 960:Drivers/lsm303agr/Src/lsm303agr_reg.c ****   * @param  ctx    Read / write interface definitions.(ptr)
 961:Drivers/lsm303agr/Src/lsm303agr_reg.c ****   * @param  val    Change the values of hpm in reg CTRL_REG2_A
 962:Drivers/lsm303agr/Src/lsm303agr_reg.c ****   * @retval        Interface status (MANDATORY: return 0 -> no Error).
 963:Drivers/lsm303agr/Src/lsm303agr_reg.c ****   *
 964:Drivers/lsm303agr/Src/lsm303agr_reg.c ****   */
 965:Drivers/lsm303agr/Src/lsm303agr_reg.c **** int32_t lsm303agr_xl_high_pass_mode_set(stmdev_ctx_t *ctx,
 966:Drivers/lsm303agr/Src/lsm303agr_reg.c ****                                         lsm303agr_hpm_a_t val)
 967:Drivers/lsm303agr/Src/lsm303agr_reg.c **** {
 2074              		.loc 1 967 1 is_stmt 1 view -0
 2075              		.cfi_startproc
 2076              		@ args = 0, pretend = 0, frame = 8
 2077              		@ frame_needed = 0, uses_anonymous_args = 0
 2078              		.loc 1 967 1 is_stmt 0 view .LVU499
 2079 0000 30B5     		push	{r4, r5, lr}
 2080              	.LCFI60:
 2081              		.cfi_def_cfa_offset 12
 2082              		.cfi_offset 4, -12
 2083              		.cfi_offset 5, -8
 2084              		.cfi_offset 14, -4
 2085 0002 83B0     		sub	sp, sp, #12
 2086              	.LCFI61:
 2087              		.cfi_def_cfa_offset 24
 2088 0004 0446     		mov	r4, r0
 2089 0006 0D46     		mov	r5, r1
 968:Drivers/lsm303agr/Src/lsm303agr_reg.c ****   lsm303agr_ctrl_reg2_a_t ctrl_reg2_a;
 2090              		.loc 1 968 3 is_stmt 1 view .LVU500
 969:Drivers/lsm303agr/Src/lsm303agr_reg.c ****   int32_t ret;
 2091              		.loc 1 969 3 view .LVU501
 970:Drivers/lsm303agr/Src/lsm303agr_reg.c **** 
 971:Drivers/lsm303agr/Src/lsm303agr_reg.c ****   ret = lsm303agr_read_reg(ctx, LSM303AGR_CTRL_REG2_A,
 2092              		.loc 1 971 3 view .LVU502
 2093              		.loc 1 971 9 is_stmt 0 view .LVU503
 2094 0008 0123     		movs	r3, #1
 2095 000a 01AA     		add	r2, sp, #4
 2096 000c 2121     		movs	r1, #33
 2097              	.LVL127:
 2098              		.loc 1 971 9 view .LVU504
 2099 000e FFF7FEFF 		bl	lsm303agr_read_reg
 2100              	.LVL128:
 972:Drivers/lsm303agr/Src/lsm303agr_reg.c ****                            (uint8_t *)&ctrl_reg2_a, 1);
 973:Drivers/lsm303agr/Src/lsm303agr_reg.c **** 
 974:Drivers/lsm303agr/Src/lsm303agr_reg.c ****   if (ret == 0)
 2101              		.loc 1 974 3 is_stmt 1 view .LVU505
 2102              		.loc 1 974 6 is_stmt 0 view .LVU506
 2103 0012 08B1     		cbz	r0, .L144
 2104              	.LVL129:
 2105              	.L141:
 975:Drivers/lsm303agr/Src/lsm303agr_reg.c ****   {
 976:Drivers/lsm303agr/Src/lsm303agr_reg.c ****     ctrl_reg2_a.hpm = (uint8_t)val;
 977:Drivers/lsm303agr/Src/lsm303agr_reg.c ****     ret = lsm303agr_write_reg(ctx, LSM303AGR_CTRL_REG2_A,
 978:Drivers/lsm303agr/Src/lsm303agr_reg.c ****                               (uint8_t *)&ctrl_reg2_a, 1);
 979:Drivers/lsm303agr/Src/lsm303agr_reg.c ****   }
 980:Drivers/lsm303agr/Src/lsm303agr_reg.c **** 
 981:Drivers/lsm303agr/Src/lsm303agr_reg.c ****   return ret;
 982:Drivers/lsm303agr/Src/lsm303agr_reg.c **** }
ARM GAS  C:\Users\SF\AppData\Local\Temp\ccFGOSN0.s 			page 56


 2106              		.loc 1 982 1 view .LVU507
 2107 0014 03B0     		add	sp, sp, #12
 2108              	.LCFI62:
 2109              		.cfi_remember_state
 2110              		.cfi_def_cfa_offset 12
 2111              		@ sp needed
 2112 0016 30BD     		pop	{r4, r5, pc}
 2113              	.LVL130:
 2114              	.L144:
 2115              	.LCFI63:
 2116              		.cfi_restore_state
 976:Drivers/lsm303agr/Src/lsm303agr_reg.c ****     ret = lsm303agr_write_reg(ctx, LSM303AGR_CTRL_REG2_A,
 2117              		.loc 1 976 5 is_stmt 1 view .LVU508
 976:Drivers/lsm303agr/Src/lsm303agr_reg.c ****     ret = lsm303agr_write_reg(ctx, LSM303AGR_CTRL_REG2_A,
 2118              		.loc 1 976 21 is_stmt 0 view .LVU509
 2119 0018 9DF80430 		ldrb	r3, [sp, #4]	@ zero_extendqisi2
 2120 001c 65F38713 		bfi	r3, r5, #6, #2
 2121 0020 8DF80430 		strb	r3, [sp, #4]
 977:Drivers/lsm303agr/Src/lsm303agr_reg.c ****                               (uint8_t *)&ctrl_reg2_a, 1);
 2122              		.loc 1 977 5 is_stmt 1 view .LVU510
 977:Drivers/lsm303agr/Src/lsm303agr_reg.c ****                               (uint8_t *)&ctrl_reg2_a, 1);
 2123              		.loc 1 977 11 is_stmt 0 view .LVU511
 2124 0024 0123     		movs	r3, #1
 2125              	.LVL131:
 977:Drivers/lsm303agr/Src/lsm303agr_reg.c ****                               (uint8_t *)&ctrl_reg2_a, 1);
 2126              		.loc 1 977 11 view .LVU512
 2127 0026 01AA     		add	r2, sp, #4
 2128 0028 2121     		movs	r1, #33
 2129 002a 2046     		mov	r0, r4
 2130 002c FFF7FEFF 		bl	lsm303agr_write_reg
 2131              	.LVL132:
 981:Drivers/lsm303agr/Src/lsm303agr_reg.c **** }
 2132              		.loc 1 981 3 is_stmt 1 view .LVU513
 981:Drivers/lsm303agr/Src/lsm303agr_reg.c **** }
 2133              		.loc 1 981 10 is_stmt 0 view .LVU514
 2134 0030 F0E7     		b	.L141
 2135              		.cfi_endproc
 2136              	.LFE170:
 2138              		.section	.text.lsm303agr_xl_high_pass_mode_get,"ax",%progbits
 2139              		.align	1
 2140              		.global	lsm303agr_xl_high_pass_mode_get
 2141              		.syntax unified
 2142              		.thumb
 2143              		.thumb_func
 2145              	lsm303agr_xl_high_pass_mode_get:
 2146              	.LVL133:
 2147              	.LFB171:
 983:Drivers/lsm303agr/Src/lsm303agr_reg.c **** 
 984:Drivers/lsm303agr/Src/lsm303agr_reg.c **** /**
 985:Drivers/lsm303agr/Src/lsm303agr_reg.c ****   * @brief  High-pass filter mode selection.[get]
 986:Drivers/lsm303agr/Src/lsm303agr_reg.c ****   *
 987:Drivers/lsm303agr/Src/lsm303agr_reg.c ****   * @param  ctx    Read / write interface definitions.(ptr)
 988:Drivers/lsm303agr/Src/lsm303agr_reg.c ****   * @param  val    Get the values of hpm in reg CTRL_REG2_A.(ptr)
 989:Drivers/lsm303agr/Src/lsm303agr_reg.c ****   * @retval        Interface status (MANDATORY: return 0 -> no Error).
 990:Drivers/lsm303agr/Src/lsm303agr_reg.c ****   *
 991:Drivers/lsm303agr/Src/lsm303agr_reg.c ****   */
 992:Drivers/lsm303agr/Src/lsm303agr_reg.c **** int32_t lsm303agr_xl_high_pass_mode_get(stmdev_ctx_t *ctx,
ARM GAS  C:\Users\SF\AppData\Local\Temp\ccFGOSN0.s 			page 57


 993:Drivers/lsm303agr/Src/lsm303agr_reg.c ****                                         lsm303agr_hpm_a_t *val)
 994:Drivers/lsm303agr/Src/lsm303agr_reg.c **** {
 2148              		.loc 1 994 1 is_stmt 1 view -0
 2149              		.cfi_startproc
 2150              		@ args = 0, pretend = 0, frame = 8
 2151              		@ frame_needed = 0, uses_anonymous_args = 0
 2152              		.loc 1 994 1 is_stmt 0 view .LVU516
 2153 0000 10B5     		push	{r4, lr}
 2154              	.LCFI64:
 2155              		.cfi_def_cfa_offset 8
 2156              		.cfi_offset 4, -8
 2157              		.cfi_offset 14, -4
 2158 0002 82B0     		sub	sp, sp, #8
 2159              	.LCFI65:
 2160              		.cfi_def_cfa_offset 16
 2161 0004 0C46     		mov	r4, r1
 995:Drivers/lsm303agr/Src/lsm303agr_reg.c ****   lsm303agr_ctrl_reg2_a_t ctrl_reg2_a;
 2162              		.loc 1 995 3 is_stmt 1 view .LVU517
 996:Drivers/lsm303agr/Src/lsm303agr_reg.c ****   int32_t ret;
 2163              		.loc 1 996 3 view .LVU518
 997:Drivers/lsm303agr/Src/lsm303agr_reg.c **** 
 998:Drivers/lsm303agr/Src/lsm303agr_reg.c ****   ret = lsm303agr_read_reg(ctx, LSM303AGR_CTRL_REG2_A,
 2164              		.loc 1 998 3 view .LVU519
 2165              		.loc 1 998 9 is_stmt 0 view .LVU520
 2166 0006 0123     		movs	r3, #1
 2167 0008 01AA     		add	r2, sp, #4
 2168 000a 2121     		movs	r1, #33
 2169              	.LVL134:
 2170              		.loc 1 998 9 view .LVU521
 2171 000c FFF7FEFF 		bl	lsm303agr_read_reg
 2172              	.LVL135:
 999:Drivers/lsm303agr/Src/lsm303agr_reg.c ****                            (uint8_t *)&ctrl_reg2_a, 1);
1000:Drivers/lsm303agr/Src/lsm303agr_reg.c **** 
1001:Drivers/lsm303agr/Src/lsm303agr_reg.c ****   switch (ctrl_reg2_a.hpm)
 2173              		.loc 1 1001 3 is_stmt 1 view .LVU522
 2174              		.loc 1 1001 22 is_stmt 0 view .LVU523
 2175 0010 9DF80430 		ldrb	r3, [sp, #4]	@ zero_extendqisi2
 2176 0014 9B09     		lsrs	r3, r3, #6
 2177              		.loc 1 1001 3 view .LVU524
 2178 0016 032B     		cmp	r3, #3
 2179 0018 10D8     		bhi	.L146
 2180 001a DFE803F0 		tbb	[pc, r3]
 2181              	.L148:
 2182 001e 02       		.byte	(.L151-.L148)/2
 2183 001f 06       		.byte	(.L150-.L148)/2
 2184 0020 09       		.byte	(.L149-.L148)/2
 2185 0021 0C       		.byte	(.L147-.L148)/2
 2186              		.p2align 1
 2187              	.L151:
1002:Drivers/lsm303agr/Src/lsm303agr_reg.c ****   {
1003:Drivers/lsm303agr/Src/lsm303agr_reg.c ****     case LSM303AGR_NORMAL_WITH_RST:
1004:Drivers/lsm303agr/Src/lsm303agr_reg.c ****       *val = LSM303AGR_NORMAL_WITH_RST;
 2188              		.loc 1 1004 7 is_stmt 1 view .LVU525
 2189              		.loc 1 1004 12 is_stmt 0 view .LVU526
 2190 0022 0023     		movs	r3, #0
 2191 0024 2370     		strb	r3, [r4]
1005:Drivers/lsm303agr/Src/lsm303agr_reg.c ****       break;
ARM GAS  C:\Users\SF\AppData\Local\Temp\ccFGOSN0.s 			page 58


 2192              		.loc 1 1005 7 is_stmt 1 view .LVU527
 2193              	.L145:
1006:Drivers/lsm303agr/Src/lsm303agr_reg.c **** 
1007:Drivers/lsm303agr/Src/lsm303agr_reg.c ****     case LSM303AGR_REFERENCE_MODE:
1008:Drivers/lsm303agr/Src/lsm303agr_reg.c ****       *val = LSM303AGR_REFERENCE_MODE;
1009:Drivers/lsm303agr/Src/lsm303agr_reg.c ****       break;
1010:Drivers/lsm303agr/Src/lsm303agr_reg.c **** 
1011:Drivers/lsm303agr/Src/lsm303agr_reg.c ****     case LSM303AGR_NORMAL:
1012:Drivers/lsm303agr/Src/lsm303agr_reg.c ****       *val = LSM303AGR_NORMAL;
1013:Drivers/lsm303agr/Src/lsm303agr_reg.c ****       break;
1014:Drivers/lsm303agr/Src/lsm303agr_reg.c **** 
1015:Drivers/lsm303agr/Src/lsm303agr_reg.c ****     case LSM303AGR_AUTORST_ON_INT:
1016:Drivers/lsm303agr/Src/lsm303agr_reg.c ****       *val = LSM303AGR_AUTORST_ON_INT;
1017:Drivers/lsm303agr/Src/lsm303agr_reg.c ****       break;
1018:Drivers/lsm303agr/Src/lsm303agr_reg.c **** 
1019:Drivers/lsm303agr/Src/lsm303agr_reg.c ****     default:
1020:Drivers/lsm303agr/Src/lsm303agr_reg.c ****       *val = LSM303AGR_NORMAL_WITH_RST;
1021:Drivers/lsm303agr/Src/lsm303agr_reg.c ****       break;
1022:Drivers/lsm303agr/Src/lsm303agr_reg.c ****   }
1023:Drivers/lsm303agr/Src/lsm303agr_reg.c **** 
1024:Drivers/lsm303agr/Src/lsm303agr_reg.c ****   return ret;
1025:Drivers/lsm303agr/Src/lsm303agr_reg.c **** }
 2194              		.loc 1 1025 1 is_stmt 0 view .LVU528
 2195 0026 02B0     		add	sp, sp, #8
 2196              	.LCFI66:
 2197              		.cfi_remember_state
 2198              		.cfi_def_cfa_offset 8
 2199              		@ sp needed
 2200 0028 10BD     		pop	{r4, pc}
 2201              	.LVL136:
 2202              	.L150:
 2203              	.LCFI67:
 2204              		.cfi_restore_state
1008:Drivers/lsm303agr/Src/lsm303agr_reg.c ****       break;
 2205              		.loc 1 1008 7 is_stmt 1 view .LVU529
1008:Drivers/lsm303agr/Src/lsm303agr_reg.c ****       break;
 2206              		.loc 1 1008 12 is_stmt 0 view .LVU530
 2207 002a 0123     		movs	r3, #1
 2208 002c 2370     		strb	r3, [r4]
1009:Drivers/lsm303agr/Src/lsm303agr_reg.c **** 
 2209              		.loc 1 1009 7 is_stmt 1 view .LVU531
 2210 002e FAE7     		b	.L145
 2211              	.L149:
1012:Drivers/lsm303agr/Src/lsm303agr_reg.c ****       break;
 2212              		.loc 1 1012 7 view .LVU532
1012:Drivers/lsm303agr/Src/lsm303agr_reg.c ****       break;
 2213              		.loc 1 1012 12 is_stmt 0 view .LVU533
 2214 0030 0223     		movs	r3, #2
 2215 0032 2370     		strb	r3, [r4]
1013:Drivers/lsm303agr/Src/lsm303agr_reg.c **** 
 2216              		.loc 1 1013 7 is_stmt 1 view .LVU534
 2217 0034 F7E7     		b	.L145
 2218              	.L147:
1016:Drivers/lsm303agr/Src/lsm303agr_reg.c ****       break;
 2219              		.loc 1 1016 7 view .LVU535
1016:Drivers/lsm303agr/Src/lsm303agr_reg.c ****       break;
 2220              		.loc 1 1016 12 is_stmt 0 view .LVU536
ARM GAS  C:\Users\SF\AppData\Local\Temp\ccFGOSN0.s 			page 59


 2221 0036 0323     		movs	r3, #3
 2222 0038 2370     		strb	r3, [r4]
1017:Drivers/lsm303agr/Src/lsm303agr_reg.c **** 
 2223              		.loc 1 1017 7 is_stmt 1 view .LVU537
 2224 003a F4E7     		b	.L145
 2225              	.L146:
1020:Drivers/lsm303agr/Src/lsm303agr_reg.c ****       break;
 2226              		.loc 1 1020 7 view .LVU538
1020:Drivers/lsm303agr/Src/lsm303agr_reg.c ****       break;
 2227              		.loc 1 1020 12 is_stmt 0 view .LVU539
 2228 003c 0023     		movs	r3, #0
 2229 003e 2370     		strb	r3, [r4]
1021:Drivers/lsm303agr/Src/lsm303agr_reg.c ****   }
 2230              		.loc 1 1021 7 is_stmt 1 view .LVU540
1024:Drivers/lsm303agr/Src/lsm303agr_reg.c **** }
 2231              		.loc 1 1024 3 view .LVU541
1024:Drivers/lsm303agr/Src/lsm303agr_reg.c **** }
 2232              		.loc 1 1024 10 is_stmt 0 view .LVU542
 2233 0040 F1E7     		b	.L145
 2234              		.cfi_endproc
 2235              	.LFE171:
 2237              		.section	.text.lsm303agr_xl_full_scale_set,"ax",%progbits
 2238              		.align	1
 2239              		.global	lsm303agr_xl_full_scale_set
 2240              		.syntax unified
 2241              		.thumb
 2242              		.thumb_func
 2244              	lsm303agr_xl_full_scale_set:
 2245              	.LVL137:
 2246              	.LFB172:
1026:Drivers/lsm303agr/Src/lsm303agr_reg.c **** 
1027:Drivers/lsm303agr/Src/lsm303agr_reg.c **** /**
1028:Drivers/lsm303agr/Src/lsm303agr_reg.c ****   * @brief  Full-scale configuration.[set]
1029:Drivers/lsm303agr/Src/lsm303agr_reg.c ****   *
1030:Drivers/lsm303agr/Src/lsm303agr_reg.c ****   * @param  ctx    Read / write interface definitions.(ptr)
1031:Drivers/lsm303agr/Src/lsm303agr_reg.c ****   * @param  val    Change the values of fs in reg CTRL_REG4_A
1032:Drivers/lsm303agr/Src/lsm303agr_reg.c ****   * @retval        Interface status (MANDATORY: return 0 -> no Error).
1033:Drivers/lsm303agr/Src/lsm303agr_reg.c ****   *
1034:Drivers/lsm303agr/Src/lsm303agr_reg.c ****   */
1035:Drivers/lsm303agr/Src/lsm303agr_reg.c **** int32_t lsm303agr_xl_full_scale_set(stmdev_ctx_t *ctx,
1036:Drivers/lsm303agr/Src/lsm303agr_reg.c ****                                     lsm303agr_fs_a_t val)
1037:Drivers/lsm303agr/Src/lsm303agr_reg.c **** {
 2247              		.loc 1 1037 1 is_stmt 1 view -0
 2248              		.cfi_startproc
 2249              		@ args = 0, pretend = 0, frame = 8
 2250              		@ frame_needed = 0, uses_anonymous_args = 0
 2251              		.loc 1 1037 1 is_stmt 0 view .LVU544
 2252 0000 30B5     		push	{r4, r5, lr}
 2253              	.LCFI68:
 2254              		.cfi_def_cfa_offset 12
 2255              		.cfi_offset 4, -12
 2256              		.cfi_offset 5, -8
 2257              		.cfi_offset 14, -4
 2258 0002 83B0     		sub	sp, sp, #12
 2259              	.LCFI69:
 2260              		.cfi_def_cfa_offset 24
 2261 0004 0446     		mov	r4, r0
ARM GAS  C:\Users\SF\AppData\Local\Temp\ccFGOSN0.s 			page 60


 2262 0006 0D46     		mov	r5, r1
1038:Drivers/lsm303agr/Src/lsm303agr_reg.c ****   lsm303agr_ctrl_reg4_a_t ctrl_reg4_a;
 2263              		.loc 1 1038 3 is_stmt 1 view .LVU545
1039:Drivers/lsm303agr/Src/lsm303agr_reg.c ****   int32_t ret;
 2264              		.loc 1 1039 3 view .LVU546
1040:Drivers/lsm303agr/Src/lsm303agr_reg.c **** 
1041:Drivers/lsm303agr/Src/lsm303agr_reg.c ****   ret = lsm303agr_read_reg(ctx, LSM303AGR_CTRL_REG4_A,
 2265              		.loc 1 1041 3 view .LVU547
 2266              		.loc 1 1041 9 is_stmt 0 view .LVU548
 2267 0008 0123     		movs	r3, #1
 2268 000a 01AA     		add	r2, sp, #4
 2269 000c 2321     		movs	r1, #35
 2270              	.LVL138:
 2271              		.loc 1 1041 9 view .LVU549
 2272 000e FFF7FEFF 		bl	lsm303agr_read_reg
 2273              	.LVL139:
1042:Drivers/lsm303agr/Src/lsm303agr_reg.c ****                            (uint8_t *)&ctrl_reg4_a, 1);
1043:Drivers/lsm303agr/Src/lsm303agr_reg.c **** 
1044:Drivers/lsm303agr/Src/lsm303agr_reg.c ****   if (ret == 0)
 2274              		.loc 1 1044 3 is_stmt 1 view .LVU550
 2275              		.loc 1 1044 6 is_stmt 0 view .LVU551
 2276 0012 08B1     		cbz	r0, .L157
 2277              	.LVL140:
 2278              	.L154:
1045:Drivers/lsm303agr/Src/lsm303agr_reg.c ****   {
1046:Drivers/lsm303agr/Src/lsm303agr_reg.c ****     ctrl_reg4_a.fs = (uint8_t)val;
1047:Drivers/lsm303agr/Src/lsm303agr_reg.c ****     ret = lsm303agr_write_reg(ctx, LSM303AGR_CTRL_REG4_A,
1048:Drivers/lsm303agr/Src/lsm303agr_reg.c ****                               (uint8_t *)&ctrl_reg4_a, 1);
1049:Drivers/lsm303agr/Src/lsm303agr_reg.c ****   }
1050:Drivers/lsm303agr/Src/lsm303agr_reg.c **** 
1051:Drivers/lsm303agr/Src/lsm303agr_reg.c ****   return ret;
1052:Drivers/lsm303agr/Src/lsm303agr_reg.c **** }
 2279              		.loc 1 1052 1 view .LVU552
 2280 0014 03B0     		add	sp, sp, #12
 2281              	.LCFI70:
 2282              		.cfi_remember_state
 2283              		.cfi_def_cfa_offset 12
 2284              		@ sp needed
 2285 0016 30BD     		pop	{r4, r5, pc}
 2286              	.LVL141:
 2287              	.L157:
 2288              	.LCFI71:
 2289              		.cfi_restore_state
1046:Drivers/lsm303agr/Src/lsm303agr_reg.c ****     ret = lsm303agr_write_reg(ctx, LSM303AGR_CTRL_REG4_A,
 2290              		.loc 1 1046 5 is_stmt 1 view .LVU553
1046:Drivers/lsm303agr/Src/lsm303agr_reg.c ****     ret = lsm303agr_write_reg(ctx, LSM303AGR_CTRL_REG4_A,
 2291              		.loc 1 1046 20 is_stmt 0 view .LVU554
 2292 0018 9DF80430 		ldrb	r3, [sp, #4]	@ zero_extendqisi2
 2293 001c 65F30513 		bfi	r3, r5, #4, #2
 2294 0020 8DF80430 		strb	r3, [sp, #4]
1047:Drivers/lsm303agr/Src/lsm303agr_reg.c ****                               (uint8_t *)&ctrl_reg4_a, 1);
 2295              		.loc 1 1047 5 is_stmt 1 view .LVU555
1047:Drivers/lsm303agr/Src/lsm303agr_reg.c ****                               (uint8_t *)&ctrl_reg4_a, 1);
 2296              		.loc 1 1047 11 is_stmt 0 view .LVU556
 2297 0024 0123     		movs	r3, #1
 2298              	.LVL142:
1047:Drivers/lsm303agr/Src/lsm303agr_reg.c ****                               (uint8_t *)&ctrl_reg4_a, 1);
ARM GAS  C:\Users\SF\AppData\Local\Temp\ccFGOSN0.s 			page 61


 2299              		.loc 1 1047 11 view .LVU557
 2300 0026 01AA     		add	r2, sp, #4
 2301 0028 2321     		movs	r1, #35
 2302 002a 2046     		mov	r0, r4
 2303 002c FFF7FEFF 		bl	lsm303agr_write_reg
 2304              	.LVL143:
1051:Drivers/lsm303agr/Src/lsm303agr_reg.c **** }
 2305              		.loc 1 1051 3 is_stmt 1 view .LVU558
1051:Drivers/lsm303agr/Src/lsm303agr_reg.c **** }
 2306              		.loc 1 1051 10 is_stmt 0 view .LVU559
 2307 0030 F0E7     		b	.L154
 2308              		.cfi_endproc
 2309              	.LFE172:
 2311              		.section	.text.lsm303agr_xl_full_scale_get,"ax",%progbits
 2312              		.align	1
 2313              		.global	lsm303agr_xl_full_scale_get
 2314              		.syntax unified
 2315              		.thumb
 2316              		.thumb_func
 2318              	lsm303agr_xl_full_scale_get:
 2319              	.LVL144:
 2320              	.LFB173:
1053:Drivers/lsm303agr/Src/lsm303agr_reg.c **** 
1054:Drivers/lsm303agr/Src/lsm303agr_reg.c **** /**
1055:Drivers/lsm303agr/Src/lsm303agr_reg.c ****   * @brief  Full-scale configuration.[get]
1056:Drivers/lsm303agr/Src/lsm303agr_reg.c ****   *
1057:Drivers/lsm303agr/Src/lsm303agr_reg.c ****   * @param  ctx    Read / write interface definitions.(ptr)
1058:Drivers/lsm303agr/Src/lsm303agr_reg.c ****   * @param  val    Get the values of fs in reg CTRL_REG4_A.(ptr)
1059:Drivers/lsm303agr/Src/lsm303agr_reg.c ****   * @retval        Interface status (MANDATORY: return 0 -> no Error).
1060:Drivers/lsm303agr/Src/lsm303agr_reg.c ****   *
1061:Drivers/lsm303agr/Src/lsm303agr_reg.c ****   */
1062:Drivers/lsm303agr/Src/lsm303agr_reg.c **** int32_t lsm303agr_xl_full_scale_get(stmdev_ctx_t *ctx,
1063:Drivers/lsm303agr/Src/lsm303agr_reg.c ****                                     lsm303agr_fs_a_t *val)
1064:Drivers/lsm303agr/Src/lsm303agr_reg.c **** {
 2321              		.loc 1 1064 1 is_stmt 1 view -0
 2322              		.cfi_startproc
 2323              		@ args = 0, pretend = 0, frame = 8
 2324              		@ frame_needed = 0, uses_anonymous_args = 0
 2325              		.loc 1 1064 1 is_stmt 0 view .LVU561
 2326 0000 10B5     		push	{r4, lr}
 2327              	.LCFI72:
 2328              		.cfi_def_cfa_offset 8
 2329              		.cfi_offset 4, -8
 2330              		.cfi_offset 14, -4
 2331 0002 82B0     		sub	sp, sp, #8
 2332              	.LCFI73:
 2333              		.cfi_def_cfa_offset 16
 2334 0004 0C46     		mov	r4, r1
1065:Drivers/lsm303agr/Src/lsm303agr_reg.c ****   lsm303agr_ctrl_reg4_a_t ctrl_reg4_a;
 2335              		.loc 1 1065 3 is_stmt 1 view .LVU562
1066:Drivers/lsm303agr/Src/lsm303agr_reg.c ****   int32_t ret;
 2336              		.loc 1 1066 3 view .LVU563
1067:Drivers/lsm303agr/Src/lsm303agr_reg.c **** 
1068:Drivers/lsm303agr/Src/lsm303agr_reg.c ****   ret = lsm303agr_read_reg(ctx, LSM303AGR_CTRL_REG4_A,
 2337              		.loc 1 1068 3 view .LVU564
 2338              		.loc 1 1068 9 is_stmt 0 view .LVU565
 2339 0006 0123     		movs	r3, #1
ARM GAS  C:\Users\SF\AppData\Local\Temp\ccFGOSN0.s 			page 62


 2340 0008 01AA     		add	r2, sp, #4
 2341 000a 2321     		movs	r1, #35
 2342              	.LVL145:
 2343              		.loc 1 1068 9 view .LVU566
 2344 000c FFF7FEFF 		bl	lsm303agr_read_reg
 2345              	.LVL146:
1069:Drivers/lsm303agr/Src/lsm303agr_reg.c ****                            (uint8_t *)&ctrl_reg4_a, 1);
1070:Drivers/lsm303agr/Src/lsm303agr_reg.c **** 
1071:Drivers/lsm303agr/Src/lsm303agr_reg.c ****   switch (ctrl_reg4_a.fs)
 2346              		.loc 1 1071 3 is_stmt 1 view .LVU567
 2347              		.loc 1 1071 22 is_stmt 0 view .LVU568
 2348 0010 9DF80430 		ldrb	r3, [sp, #4]	@ zero_extendqisi2
 2349 0014 C3F30113 		ubfx	r3, r3, #4, #2
 2350              		.loc 1 1071 3 view .LVU569
 2351 0018 032B     		cmp	r3, #3
 2352 001a 10D8     		bhi	.L159
 2353 001c DFE803F0 		tbb	[pc, r3]
 2354              	.L161:
 2355 0020 02       		.byte	(.L164-.L161)/2
 2356 0021 06       		.byte	(.L163-.L161)/2
 2357 0022 09       		.byte	(.L162-.L161)/2
 2358 0023 0C       		.byte	(.L160-.L161)/2
 2359              		.p2align 1
 2360              	.L164:
1072:Drivers/lsm303agr/Src/lsm303agr_reg.c ****   {
1073:Drivers/lsm303agr/Src/lsm303agr_reg.c ****     case LSM303AGR_2g:
1074:Drivers/lsm303agr/Src/lsm303agr_reg.c ****       *val = LSM303AGR_2g;
 2361              		.loc 1 1074 7 is_stmt 1 view .LVU570
 2362              		.loc 1 1074 12 is_stmt 0 view .LVU571
 2363 0024 0023     		movs	r3, #0
 2364 0026 2370     		strb	r3, [r4]
1075:Drivers/lsm303agr/Src/lsm303agr_reg.c ****       break;
 2365              		.loc 1 1075 7 is_stmt 1 view .LVU572
 2366              	.L158:
1076:Drivers/lsm303agr/Src/lsm303agr_reg.c **** 
1077:Drivers/lsm303agr/Src/lsm303agr_reg.c ****     case LSM303AGR_4g:
1078:Drivers/lsm303agr/Src/lsm303agr_reg.c ****       *val = LSM303AGR_4g;
1079:Drivers/lsm303agr/Src/lsm303agr_reg.c ****       break;
1080:Drivers/lsm303agr/Src/lsm303agr_reg.c **** 
1081:Drivers/lsm303agr/Src/lsm303agr_reg.c ****     case LSM303AGR_8g:
1082:Drivers/lsm303agr/Src/lsm303agr_reg.c ****       *val = LSM303AGR_8g;
1083:Drivers/lsm303agr/Src/lsm303agr_reg.c ****       break;
1084:Drivers/lsm303agr/Src/lsm303agr_reg.c **** 
1085:Drivers/lsm303agr/Src/lsm303agr_reg.c ****     case LSM303AGR_16g:
1086:Drivers/lsm303agr/Src/lsm303agr_reg.c ****       *val = LSM303AGR_16g;
1087:Drivers/lsm303agr/Src/lsm303agr_reg.c ****       break;
1088:Drivers/lsm303agr/Src/lsm303agr_reg.c **** 
1089:Drivers/lsm303agr/Src/lsm303agr_reg.c ****     default:
1090:Drivers/lsm303agr/Src/lsm303agr_reg.c ****       *val = LSM303AGR_2g;
1091:Drivers/lsm303agr/Src/lsm303agr_reg.c ****       break;
1092:Drivers/lsm303agr/Src/lsm303agr_reg.c ****   }
1093:Drivers/lsm303agr/Src/lsm303agr_reg.c **** 
1094:Drivers/lsm303agr/Src/lsm303agr_reg.c ****   return ret;
1095:Drivers/lsm303agr/Src/lsm303agr_reg.c **** }
 2367              		.loc 1 1095 1 is_stmt 0 view .LVU573
 2368 0028 02B0     		add	sp, sp, #8
 2369              	.LCFI74:
ARM GAS  C:\Users\SF\AppData\Local\Temp\ccFGOSN0.s 			page 63


 2370              		.cfi_remember_state
 2371              		.cfi_def_cfa_offset 8
 2372              		@ sp needed
 2373 002a 10BD     		pop	{r4, pc}
 2374              	.LVL147:
 2375              	.L163:
 2376              	.LCFI75:
 2377              		.cfi_restore_state
1078:Drivers/lsm303agr/Src/lsm303agr_reg.c ****       break;
 2378              		.loc 1 1078 7 is_stmt 1 view .LVU574
1078:Drivers/lsm303agr/Src/lsm303agr_reg.c ****       break;
 2379              		.loc 1 1078 12 is_stmt 0 view .LVU575
 2380 002c 0123     		movs	r3, #1
 2381 002e 2370     		strb	r3, [r4]
1079:Drivers/lsm303agr/Src/lsm303agr_reg.c **** 
 2382              		.loc 1 1079 7 is_stmt 1 view .LVU576
 2383 0030 FAE7     		b	.L158
 2384              	.L162:
1082:Drivers/lsm303agr/Src/lsm303agr_reg.c ****       break;
 2385              		.loc 1 1082 7 view .LVU577
1082:Drivers/lsm303agr/Src/lsm303agr_reg.c ****       break;
 2386              		.loc 1 1082 12 is_stmt 0 view .LVU578
 2387 0032 0223     		movs	r3, #2
 2388 0034 2370     		strb	r3, [r4]
1083:Drivers/lsm303agr/Src/lsm303agr_reg.c **** 
 2389              		.loc 1 1083 7 is_stmt 1 view .LVU579
 2390 0036 F7E7     		b	.L158
 2391              	.L160:
1086:Drivers/lsm303agr/Src/lsm303agr_reg.c ****       break;
 2392              		.loc 1 1086 7 view .LVU580
1086:Drivers/lsm303agr/Src/lsm303agr_reg.c ****       break;
 2393              		.loc 1 1086 12 is_stmt 0 view .LVU581
 2394 0038 0323     		movs	r3, #3
 2395 003a 2370     		strb	r3, [r4]
1087:Drivers/lsm303agr/Src/lsm303agr_reg.c **** 
 2396              		.loc 1 1087 7 is_stmt 1 view .LVU582
 2397 003c F4E7     		b	.L158
 2398              	.L159:
1090:Drivers/lsm303agr/Src/lsm303agr_reg.c ****       break;
 2399              		.loc 1 1090 7 view .LVU583
1090:Drivers/lsm303agr/Src/lsm303agr_reg.c ****       break;
 2400              		.loc 1 1090 12 is_stmt 0 view .LVU584
 2401 003e 0023     		movs	r3, #0
 2402 0040 2370     		strb	r3, [r4]
1091:Drivers/lsm303agr/Src/lsm303agr_reg.c ****   }
 2403              		.loc 1 1091 7 is_stmt 1 view .LVU585
1094:Drivers/lsm303agr/Src/lsm303agr_reg.c **** }
 2404              		.loc 1 1094 3 view .LVU586
1094:Drivers/lsm303agr/Src/lsm303agr_reg.c **** }
 2405              		.loc 1 1094 10 is_stmt 0 view .LVU587
 2406 0042 F1E7     		b	.L158
 2407              		.cfi_endproc
 2408              	.LFE173:
 2410              		.section	.text.lsm303agr_xl_block_data_update_set,"ax",%progbits
 2411              		.align	1
 2412              		.global	lsm303agr_xl_block_data_update_set
 2413              		.syntax unified
ARM GAS  C:\Users\SF\AppData\Local\Temp\ccFGOSN0.s 			page 64


 2414              		.thumb
 2415              		.thumb_func
 2417              	lsm303agr_xl_block_data_update_set:
 2418              	.LVL148:
 2419              	.LFB174:
1096:Drivers/lsm303agr/Src/lsm303agr_reg.c **** 
1097:Drivers/lsm303agr/Src/lsm303agr_reg.c **** /**
1098:Drivers/lsm303agr/Src/lsm303agr_reg.c ****   * @brief  Block data update.[set]
1099:Drivers/lsm303agr/Src/lsm303agr_reg.c ****   *
1100:Drivers/lsm303agr/Src/lsm303agr_reg.c ****   * @param  ctx    Read / write interface definitions.(ptr)
1101:Drivers/lsm303agr/Src/lsm303agr_reg.c ****   * @param  val    Change the values of bdu in reg CTRL_REG4_A
1102:Drivers/lsm303agr/Src/lsm303agr_reg.c ****   * @retval        Interface status (MANDATORY: return 0 -> no Error).
1103:Drivers/lsm303agr/Src/lsm303agr_reg.c ****   *
1104:Drivers/lsm303agr/Src/lsm303agr_reg.c ****   */
1105:Drivers/lsm303agr/Src/lsm303agr_reg.c **** int32_t lsm303agr_xl_block_data_update_set(stmdev_ctx_t *ctx,
1106:Drivers/lsm303agr/Src/lsm303agr_reg.c ****                                            uint8_t val)
1107:Drivers/lsm303agr/Src/lsm303agr_reg.c **** {
 2420              		.loc 1 1107 1 is_stmt 1 view -0
 2421              		.cfi_startproc
 2422              		@ args = 0, pretend = 0, frame = 8
 2423              		@ frame_needed = 0, uses_anonymous_args = 0
 2424              		.loc 1 1107 1 is_stmt 0 view .LVU589
 2425 0000 30B5     		push	{r4, r5, lr}
 2426              	.LCFI76:
 2427              		.cfi_def_cfa_offset 12
 2428              		.cfi_offset 4, -12
 2429              		.cfi_offset 5, -8
 2430              		.cfi_offset 14, -4
 2431 0002 83B0     		sub	sp, sp, #12
 2432              	.LCFI77:
 2433              		.cfi_def_cfa_offset 24
 2434 0004 0446     		mov	r4, r0
 2435 0006 0D46     		mov	r5, r1
1108:Drivers/lsm303agr/Src/lsm303agr_reg.c ****   lsm303agr_ctrl_reg4_a_t ctrl_reg4_a;
 2436              		.loc 1 1108 3 is_stmt 1 view .LVU590
1109:Drivers/lsm303agr/Src/lsm303agr_reg.c ****   int32_t ret;
 2437              		.loc 1 1109 3 view .LVU591
1110:Drivers/lsm303agr/Src/lsm303agr_reg.c **** 
1111:Drivers/lsm303agr/Src/lsm303agr_reg.c ****   ret = lsm303agr_read_reg(ctx, LSM303AGR_CTRL_REG4_A,
 2438              		.loc 1 1111 3 view .LVU592
 2439              		.loc 1 1111 9 is_stmt 0 view .LVU593
 2440 0008 0123     		movs	r3, #1
 2441 000a 01AA     		add	r2, sp, #4
 2442 000c 2321     		movs	r1, #35
 2443              	.LVL149:
 2444              		.loc 1 1111 9 view .LVU594
 2445 000e FFF7FEFF 		bl	lsm303agr_read_reg
 2446              	.LVL150:
1112:Drivers/lsm303agr/Src/lsm303agr_reg.c ****                            (uint8_t *)&ctrl_reg4_a, 1);
1113:Drivers/lsm303agr/Src/lsm303agr_reg.c **** 
1114:Drivers/lsm303agr/Src/lsm303agr_reg.c ****   if (ret == 0)
 2447              		.loc 1 1114 3 is_stmt 1 view .LVU595
 2448              		.loc 1 1114 6 is_stmt 0 view .LVU596
 2449 0012 08B1     		cbz	r0, .L170
 2450              	.LVL151:
 2451              	.L167:
1115:Drivers/lsm303agr/Src/lsm303agr_reg.c ****   {
ARM GAS  C:\Users\SF\AppData\Local\Temp\ccFGOSN0.s 			page 65


1116:Drivers/lsm303agr/Src/lsm303agr_reg.c ****     ctrl_reg4_a.bdu = (uint8_t)val;
1117:Drivers/lsm303agr/Src/lsm303agr_reg.c ****     ret = lsm303agr_write_reg(ctx, LSM303AGR_CTRL_REG4_A,
1118:Drivers/lsm303agr/Src/lsm303agr_reg.c ****                               (uint8_t *)&ctrl_reg4_a, 1);
1119:Drivers/lsm303agr/Src/lsm303agr_reg.c ****   }
1120:Drivers/lsm303agr/Src/lsm303agr_reg.c **** 
1121:Drivers/lsm303agr/Src/lsm303agr_reg.c ****   return ret;
1122:Drivers/lsm303agr/Src/lsm303agr_reg.c **** }
 2452              		.loc 1 1122 1 view .LVU597
 2453 0014 03B0     		add	sp, sp, #12
 2454              	.LCFI78:
 2455              		.cfi_remember_state
 2456              		.cfi_def_cfa_offset 12
 2457              		@ sp needed
 2458 0016 30BD     		pop	{r4, r5, pc}
 2459              	.LVL152:
 2460              	.L170:
 2461              	.LCFI79:
 2462              		.cfi_restore_state
1116:Drivers/lsm303agr/Src/lsm303agr_reg.c ****     ret = lsm303agr_write_reg(ctx, LSM303AGR_CTRL_REG4_A,
 2463              		.loc 1 1116 5 is_stmt 1 view .LVU598
1116:Drivers/lsm303agr/Src/lsm303agr_reg.c ****     ret = lsm303agr_write_reg(ctx, LSM303AGR_CTRL_REG4_A,
 2464              		.loc 1 1116 21 is_stmt 0 view .LVU599
 2465 0018 9DF80430 		ldrb	r3, [sp, #4]	@ zero_extendqisi2
 2466 001c 65F3C713 		bfi	r3, r5, #7, #1
 2467 0020 8DF80430 		strb	r3, [sp, #4]
1117:Drivers/lsm303agr/Src/lsm303agr_reg.c ****                               (uint8_t *)&ctrl_reg4_a, 1);
 2468              		.loc 1 1117 5 is_stmt 1 view .LVU600
1117:Drivers/lsm303agr/Src/lsm303agr_reg.c ****                               (uint8_t *)&ctrl_reg4_a, 1);
 2469              		.loc 1 1117 11 is_stmt 0 view .LVU601
 2470 0024 0123     		movs	r3, #1
 2471              	.LVL153:
1117:Drivers/lsm303agr/Src/lsm303agr_reg.c ****                               (uint8_t *)&ctrl_reg4_a, 1);
 2472              		.loc 1 1117 11 view .LVU602
 2473 0026 01AA     		add	r2, sp, #4
 2474 0028 2321     		movs	r1, #35
 2475 002a 2046     		mov	r0, r4
 2476 002c FFF7FEFF 		bl	lsm303agr_write_reg
 2477              	.LVL154:
1121:Drivers/lsm303agr/Src/lsm303agr_reg.c **** }
 2478              		.loc 1 1121 3 is_stmt 1 view .LVU603
1121:Drivers/lsm303agr/Src/lsm303agr_reg.c **** }
 2479              		.loc 1 1121 10 is_stmt 0 view .LVU604
 2480 0030 F0E7     		b	.L167
 2481              		.cfi_endproc
 2482              	.LFE174:
 2484              		.section	.text.lsm303agr_xl_block_data_update_get,"ax",%progbits
 2485              		.align	1
 2486              		.global	lsm303agr_xl_block_data_update_get
 2487              		.syntax unified
 2488              		.thumb
 2489              		.thumb_func
 2491              	lsm303agr_xl_block_data_update_get:
 2492              	.LVL155:
 2493              	.LFB175:
1123:Drivers/lsm303agr/Src/lsm303agr_reg.c **** 
1124:Drivers/lsm303agr/Src/lsm303agr_reg.c **** /**
1125:Drivers/lsm303agr/Src/lsm303agr_reg.c ****   * @brief  Block data update.[get]
ARM GAS  C:\Users\SF\AppData\Local\Temp\ccFGOSN0.s 			page 66


1126:Drivers/lsm303agr/Src/lsm303agr_reg.c ****   *
1127:Drivers/lsm303agr/Src/lsm303agr_reg.c ****   * @param  ctx    Read / write interface definitions.(ptr)
1128:Drivers/lsm303agr/Src/lsm303agr_reg.c ****   * @param  val    Get the values of bdu in reg CTRL_REG4_A.(ptr)
1129:Drivers/lsm303agr/Src/lsm303agr_reg.c ****   * @retval        Interface status (MANDATORY: return 0 -> no Error).
1130:Drivers/lsm303agr/Src/lsm303agr_reg.c ****   *
1131:Drivers/lsm303agr/Src/lsm303agr_reg.c ****   */
1132:Drivers/lsm303agr/Src/lsm303agr_reg.c **** int32_t lsm303agr_xl_block_data_update_get(stmdev_ctx_t *ctx,
1133:Drivers/lsm303agr/Src/lsm303agr_reg.c ****                                            uint8_t *val)
1134:Drivers/lsm303agr/Src/lsm303agr_reg.c **** {
 2494              		.loc 1 1134 1 is_stmt 1 view -0
 2495              		.cfi_startproc
 2496              		@ args = 0, pretend = 0, frame = 8
 2497              		@ frame_needed = 0, uses_anonymous_args = 0
 2498              		.loc 1 1134 1 is_stmt 0 view .LVU606
 2499 0000 10B5     		push	{r4, lr}
 2500              	.LCFI80:
 2501              		.cfi_def_cfa_offset 8
 2502              		.cfi_offset 4, -8
 2503              		.cfi_offset 14, -4
 2504 0002 82B0     		sub	sp, sp, #8
 2505              	.LCFI81:
 2506              		.cfi_def_cfa_offset 16
 2507 0004 0C46     		mov	r4, r1
1135:Drivers/lsm303agr/Src/lsm303agr_reg.c ****   lsm303agr_ctrl_reg4_a_t ctrl_reg4_a;
 2508              		.loc 1 1135 3 is_stmt 1 view .LVU607
1136:Drivers/lsm303agr/Src/lsm303agr_reg.c ****   int32_t ret;
 2509              		.loc 1 1136 3 view .LVU608
1137:Drivers/lsm303agr/Src/lsm303agr_reg.c **** 
1138:Drivers/lsm303agr/Src/lsm303agr_reg.c ****   ret = lsm303agr_read_reg(ctx, LSM303AGR_CTRL_REG4_A,
 2510              		.loc 1 1138 3 view .LVU609
 2511              		.loc 1 1138 9 is_stmt 0 view .LVU610
 2512 0006 0123     		movs	r3, #1
 2513 0008 01AA     		add	r2, sp, #4
 2514 000a 2321     		movs	r1, #35
 2515              	.LVL156:
 2516              		.loc 1 1138 9 view .LVU611
 2517 000c FFF7FEFF 		bl	lsm303agr_read_reg
 2518              	.LVL157:
1139:Drivers/lsm303agr/Src/lsm303agr_reg.c ****                            (uint8_t *)&ctrl_reg4_a, 1);
1140:Drivers/lsm303agr/Src/lsm303agr_reg.c ****   *val = ctrl_reg4_a.bdu;
 2519              		.loc 1 1140 3 is_stmt 1 view .LVU612
 2520              		.loc 1 1140 21 is_stmt 0 view .LVU613
 2521 0010 9DF80430 		ldrb	r3, [sp, #4]	@ zero_extendqisi2
 2522 0014 C3F3C013 		ubfx	r3, r3, #7, #1
 2523              		.loc 1 1140 8 view .LVU614
 2524 0018 2370     		strb	r3, [r4]
1141:Drivers/lsm303agr/Src/lsm303agr_reg.c **** 
1142:Drivers/lsm303agr/Src/lsm303agr_reg.c ****   return ret;
 2525              		.loc 1 1142 3 is_stmt 1 view .LVU615
1143:Drivers/lsm303agr/Src/lsm303agr_reg.c **** }
 2526              		.loc 1 1143 1 is_stmt 0 view .LVU616
 2527 001a 02B0     		add	sp, sp, #8
 2528              	.LCFI82:
 2529              		.cfi_def_cfa_offset 8
 2530              		@ sp needed
 2531 001c 10BD     		pop	{r4, pc}
 2532              		.loc 1 1143 1 view .LVU617
ARM GAS  C:\Users\SF\AppData\Local\Temp\ccFGOSN0.s 			page 67


 2533              		.cfi_endproc
 2534              	.LFE175:
 2536              		.section	.text.lsm303agr_xl_filter_reference_set,"ax",%progbits
 2537              		.align	1
 2538              		.global	lsm303agr_xl_filter_reference_set
 2539              		.syntax unified
 2540              		.thumb
 2541              		.thumb_func
 2543              	lsm303agr_xl_filter_reference_set:
 2544              	.LVL158:
 2545              	.LFB176:
1144:Drivers/lsm303agr/Src/lsm303agr_reg.c **** 
1145:Drivers/lsm303agr/Src/lsm303agr_reg.c **** /**
1146:Drivers/lsm303agr/Src/lsm303agr_reg.c ****   * @brief  Reference value for interrupt generation.[set]
1147:Drivers/lsm303agr/Src/lsm303agr_reg.c ****   *         LSB = ~16@2g / ~31@4g / ~63@8g / ~127@16g
1148:Drivers/lsm303agr/Src/lsm303agr_reg.c ****   *
1149:Drivers/lsm303agr/Src/lsm303agr_reg.c ****   * @param  ctx    Read / write interface definitions.(ptr)
1150:Drivers/lsm303agr/Src/lsm303agr_reg.c ****   * @param  buff   Buffer that contains data to write.(ptr)
1151:Drivers/lsm303agr/Src/lsm303agr_reg.c ****   * @retval        Interface status (MANDATORY: return 0 -> no Error).
1152:Drivers/lsm303agr/Src/lsm303agr_reg.c ****   *
1153:Drivers/lsm303agr/Src/lsm303agr_reg.c ****   */
1154:Drivers/lsm303agr/Src/lsm303agr_reg.c **** int32_t lsm303agr_xl_filter_reference_set(stmdev_ctx_t *ctx,
1155:Drivers/lsm303agr/Src/lsm303agr_reg.c ****                                           uint8_t *buff)
1156:Drivers/lsm303agr/Src/lsm303agr_reg.c **** {
 2546              		.loc 1 1156 1 is_stmt 1 view -0
 2547              		.cfi_startproc
 2548              		@ args = 0, pretend = 0, frame = 0
 2549              		@ frame_needed = 0, uses_anonymous_args = 0
 2550              		.loc 1 1156 1 is_stmt 0 view .LVU619
 2551 0000 08B5     		push	{r3, lr}
 2552              	.LCFI83:
 2553              		.cfi_def_cfa_offset 8
 2554              		.cfi_offset 3, -8
 2555              		.cfi_offset 14, -4
 2556 0002 0A46     		mov	r2, r1
1157:Drivers/lsm303agr/Src/lsm303agr_reg.c ****   int32_t ret;
 2557              		.loc 1 1157 3 is_stmt 1 view .LVU620
1158:Drivers/lsm303agr/Src/lsm303agr_reg.c **** 
1159:Drivers/lsm303agr/Src/lsm303agr_reg.c ****   ret = lsm303agr_write_reg(ctx, LSM303AGR_REFERENCE_A, buff, 1);
 2558              		.loc 1 1159 3 view .LVU621
 2559              		.loc 1 1159 9 is_stmt 0 view .LVU622
 2560 0004 0123     		movs	r3, #1
 2561 0006 2621     		movs	r1, #38
 2562              	.LVL159:
 2563              		.loc 1 1159 9 view .LVU623
 2564 0008 FFF7FEFF 		bl	lsm303agr_write_reg
 2565              	.LVL160:
1160:Drivers/lsm303agr/Src/lsm303agr_reg.c **** 
1161:Drivers/lsm303agr/Src/lsm303agr_reg.c ****   return ret;
 2566              		.loc 1 1161 3 is_stmt 1 view .LVU624
1162:Drivers/lsm303agr/Src/lsm303agr_reg.c **** }
 2567              		.loc 1 1162 1 is_stmt 0 view .LVU625
 2568 000c 08BD     		pop	{r3, pc}
 2569              		.cfi_endproc
 2570              	.LFE176:
 2572              		.section	.text.lsm303agr_xl_filter_reference_get,"ax",%progbits
 2573              		.align	1
ARM GAS  C:\Users\SF\AppData\Local\Temp\ccFGOSN0.s 			page 68


 2574              		.global	lsm303agr_xl_filter_reference_get
 2575              		.syntax unified
 2576              		.thumb
 2577              		.thumb_func
 2579              	lsm303agr_xl_filter_reference_get:
 2580              	.LVL161:
 2581              	.LFB177:
1163:Drivers/lsm303agr/Src/lsm303agr_reg.c **** 
1164:Drivers/lsm303agr/Src/lsm303agr_reg.c **** /**
1165:Drivers/lsm303agr/Src/lsm303agr_reg.c ****   * @brief  Reference value for interrupt generation.[get]
1166:Drivers/lsm303agr/Src/lsm303agr_reg.c ****   *         LSB = ~16@2g / ~31@4g / ~63@8g / ~127@16g
1167:Drivers/lsm303agr/Src/lsm303agr_reg.c ****   *
1168:Drivers/lsm303agr/Src/lsm303agr_reg.c ****   * @param  ctx    Read / write interface definitions.(ptr)
1169:Drivers/lsm303agr/Src/lsm303agr_reg.c ****   * @param  buff   Buffer that stores data read.(ptr)
1170:Drivers/lsm303agr/Src/lsm303agr_reg.c ****   * @retval        Interface status (MANDATORY: return 0 -> no Error).
1171:Drivers/lsm303agr/Src/lsm303agr_reg.c ****   *
1172:Drivers/lsm303agr/Src/lsm303agr_reg.c ****   */
1173:Drivers/lsm303agr/Src/lsm303agr_reg.c **** int32_t lsm303agr_xl_filter_reference_get(stmdev_ctx_t *ctx,
1174:Drivers/lsm303agr/Src/lsm303agr_reg.c ****                                           uint8_t *buff)
1175:Drivers/lsm303agr/Src/lsm303agr_reg.c **** {
 2582              		.loc 1 1175 1 is_stmt 1 view -0
 2583              		.cfi_startproc
 2584              		@ args = 0, pretend = 0, frame = 0
 2585              		@ frame_needed = 0, uses_anonymous_args = 0
 2586              		.loc 1 1175 1 is_stmt 0 view .LVU627
 2587 0000 08B5     		push	{r3, lr}
 2588              	.LCFI84:
 2589              		.cfi_def_cfa_offset 8
 2590              		.cfi_offset 3, -8
 2591              		.cfi_offset 14, -4
 2592 0002 0A46     		mov	r2, r1
1176:Drivers/lsm303agr/Src/lsm303agr_reg.c ****   int32_t ret;
 2593              		.loc 1 1176 3 is_stmt 1 view .LVU628
1177:Drivers/lsm303agr/Src/lsm303agr_reg.c **** 
1178:Drivers/lsm303agr/Src/lsm303agr_reg.c ****   ret = lsm303agr_read_reg(ctx, LSM303AGR_REFERENCE_A, buff, 1);
 2594              		.loc 1 1178 3 view .LVU629
 2595              		.loc 1 1178 9 is_stmt 0 view .LVU630
 2596 0004 0123     		movs	r3, #1
 2597 0006 2621     		movs	r1, #38
 2598              	.LVL162:
 2599              		.loc 1 1178 9 view .LVU631
 2600 0008 FFF7FEFF 		bl	lsm303agr_read_reg
 2601              	.LVL163:
1179:Drivers/lsm303agr/Src/lsm303agr_reg.c **** 
1180:Drivers/lsm303agr/Src/lsm303agr_reg.c ****   return ret;
 2602              		.loc 1 1180 3 is_stmt 1 view .LVU632
1181:Drivers/lsm303agr/Src/lsm303agr_reg.c **** }
 2603              		.loc 1 1181 1 is_stmt 0 view .LVU633
 2604 000c 08BD     		pop	{r3, pc}
 2605              		.cfi_endproc
 2606              	.LFE177:
 2608              		.section	.text.lsm303agr_xl_data_ready_get,"ax",%progbits
 2609              		.align	1
 2610              		.global	lsm303agr_xl_data_ready_get
 2611              		.syntax unified
 2612              		.thumb
 2613              		.thumb_func
ARM GAS  C:\Users\SF\AppData\Local\Temp\ccFGOSN0.s 			page 69


 2615              	lsm303agr_xl_data_ready_get:
 2616              	.LVL164:
 2617              	.LFB178:
1182:Drivers/lsm303agr/Src/lsm303agr_reg.c **** 
1183:Drivers/lsm303agr/Src/lsm303agr_reg.c **** /**
1184:Drivers/lsm303agr/Src/lsm303agr_reg.c ****   * @brief  Acceleration set of data available.[get]
1185:Drivers/lsm303agr/Src/lsm303agr_reg.c ****   *
1186:Drivers/lsm303agr/Src/lsm303agr_reg.c ****   * @param  ctx    Read / write interface definitions.(ptr)
1187:Drivers/lsm303agr/Src/lsm303agr_reg.c ****   * @param  val    Get the values of zyxda in reg STATUS_REG_A.(ptr)
1188:Drivers/lsm303agr/Src/lsm303agr_reg.c ****   * @retval        Interface status (MANDATORY: return 0 -> no Error).
1189:Drivers/lsm303agr/Src/lsm303agr_reg.c ****   *
1190:Drivers/lsm303agr/Src/lsm303agr_reg.c ****   */
1191:Drivers/lsm303agr/Src/lsm303agr_reg.c **** int32_t lsm303agr_xl_data_ready_get(stmdev_ctx_t *ctx, uint8_t *val)
1192:Drivers/lsm303agr/Src/lsm303agr_reg.c **** {
 2618              		.loc 1 1192 1 is_stmt 1 view -0
 2619              		.cfi_startproc
 2620              		@ args = 0, pretend = 0, frame = 8
 2621              		@ frame_needed = 0, uses_anonymous_args = 0
 2622              		.loc 1 1192 1 is_stmt 0 view .LVU635
 2623 0000 10B5     		push	{r4, lr}
 2624              	.LCFI85:
 2625              		.cfi_def_cfa_offset 8
 2626              		.cfi_offset 4, -8
 2627              		.cfi_offset 14, -4
 2628 0002 82B0     		sub	sp, sp, #8
 2629              	.LCFI86:
 2630              		.cfi_def_cfa_offset 16
 2631 0004 0C46     		mov	r4, r1
1193:Drivers/lsm303agr/Src/lsm303agr_reg.c ****   lsm303agr_status_reg_a_t status_reg_a;
 2632              		.loc 1 1193 3 is_stmt 1 view .LVU636
1194:Drivers/lsm303agr/Src/lsm303agr_reg.c ****   int32_t ret;
 2633              		.loc 1 1194 3 view .LVU637
1195:Drivers/lsm303agr/Src/lsm303agr_reg.c **** 
1196:Drivers/lsm303agr/Src/lsm303agr_reg.c ****   ret = lsm303agr_read_reg(ctx, LSM303AGR_STATUS_REG_A,
 2634              		.loc 1 1196 3 view .LVU638
 2635              		.loc 1 1196 9 is_stmt 0 view .LVU639
 2636 0006 0123     		movs	r3, #1
 2637 0008 01AA     		add	r2, sp, #4
 2638 000a 2721     		movs	r1, #39
 2639              	.LVL165:
 2640              		.loc 1 1196 9 view .LVU640
 2641 000c FFF7FEFF 		bl	lsm303agr_read_reg
 2642              	.LVL166:
1197:Drivers/lsm303agr/Src/lsm303agr_reg.c ****                            (uint8_t *)&status_reg_a, 1);
1198:Drivers/lsm303agr/Src/lsm303agr_reg.c ****   *val = status_reg_a.zyxda;
 2643              		.loc 1 1198 3 is_stmt 1 view .LVU641
 2644              		.loc 1 1198 22 is_stmt 0 view .LVU642
 2645 0010 9DF80430 		ldrb	r3, [sp, #4]	@ zero_extendqisi2
 2646 0014 C3F3C003 		ubfx	r3, r3, #3, #1
 2647              		.loc 1 1198 8 view .LVU643
 2648 0018 2370     		strb	r3, [r4]
1199:Drivers/lsm303agr/Src/lsm303agr_reg.c **** 
1200:Drivers/lsm303agr/Src/lsm303agr_reg.c ****   return ret;
 2649              		.loc 1 1200 3 is_stmt 1 view .LVU644
1201:Drivers/lsm303agr/Src/lsm303agr_reg.c **** }
 2650              		.loc 1 1201 1 is_stmt 0 view .LVU645
 2651 001a 02B0     		add	sp, sp, #8
ARM GAS  C:\Users\SF\AppData\Local\Temp\ccFGOSN0.s 			page 70


 2652              	.LCFI87:
 2653              		.cfi_def_cfa_offset 8
 2654              		@ sp needed
 2655 001c 10BD     		pop	{r4, pc}
 2656              		.loc 1 1201 1 view .LVU646
 2657              		.cfi_endproc
 2658              	.LFE178:
 2660              		.section	.text.lsm303agr_xl_data_ovr_get,"ax",%progbits
 2661              		.align	1
 2662              		.global	lsm303agr_xl_data_ovr_get
 2663              		.syntax unified
 2664              		.thumb
 2665              		.thumb_func
 2667              	lsm303agr_xl_data_ovr_get:
 2668              	.LVL167:
 2669              	.LFB179:
1202:Drivers/lsm303agr/Src/lsm303agr_reg.c **** 
1203:Drivers/lsm303agr/Src/lsm303agr_reg.c **** /**
1204:Drivers/lsm303agr/Src/lsm303agr_reg.c ****   * @brief  Acceleration set of data overrun.[get]
1205:Drivers/lsm303agr/Src/lsm303agr_reg.c ****   *
1206:Drivers/lsm303agr/Src/lsm303agr_reg.c ****   * @param  ctx    Read / write interface definitions.(ptr)
1207:Drivers/lsm303agr/Src/lsm303agr_reg.c ****   * @param  val    Get the values of zyxor in reg STATUS_REG_A.(ptr)
1208:Drivers/lsm303agr/Src/lsm303agr_reg.c ****   * @retval        Interface status (MANDATORY: return 0 -> no Error).
1209:Drivers/lsm303agr/Src/lsm303agr_reg.c ****   *
1210:Drivers/lsm303agr/Src/lsm303agr_reg.c ****   */
1211:Drivers/lsm303agr/Src/lsm303agr_reg.c **** int32_t lsm303agr_xl_data_ovr_get(stmdev_ctx_t *ctx, uint8_t *val)
1212:Drivers/lsm303agr/Src/lsm303agr_reg.c **** {
 2670              		.loc 1 1212 1 is_stmt 1 view -0
 2671              		.cfi_startproc
 2672              		@ args = 0, pretend = 0, frame = 8
 2673              		@ frame_needed = 0, uses_anonymous_args = 0
 2674              		.loc 1 1212 1 is_stmt 0 view .LVU648
 2675 0000 10B5     		push	{r4, lr}
 2676              	.LCFI88:
 2677              		.cfi_def_cfa_offset 8
 2678              		.cfi_offset 4, -8
 2679              		.cfi_offset 14, -4
 2680 0002 82B0     		sub	sp, sp, #8
 2681              	.LCFI89:
 2682              		.cfi_def_cfa_offset 16
 2683 0004 0C46     		mov	r4, r1
1213:Drivers/lsm303agr/Src/lsm303agr_reg.c ****   lsm303agr_status_reg_a_t status_reg_a;
 2684              		.loc 1 1213 3 is_stmt 1 view .LVU649
1214:Drivers/lsm303agr/Src/lsm303agr_reg.c ****   int32_t ret;
 2685              		.loc 1 1214 3 view .LVU650
1215:Drivers/lsm303agr/Src/lsm303agr_reg.c **** 
1216:Drivers/lsm303agr/Src/lsm303agr_reg.c ****   ret = lsm303agr_read_reg(ctx, LSM303AGR_STATUS_REG_A,
 2686              		.loc 1 1216 3 view .LVU651
 2687              		.loc 1 1216 9 is_stmt 0 view .LVU652
 2688 0006 0123     		movs	r3, #1
 2689 0008 01AA     		add	r2, sp, #4
 2690 000a 2721     		movs	r1, #39
 2691              	.LVL168:
 2692              		.loc 1 1216 9 view .LVU653
 2693 000c FFF7FEFF 		bl	lsm303agr_read_reg
 2694              	.LVL169:
1217:Drivers/lsm303agr/Src/lsm303agr_reg.c ****                            (uint8_t *)&status_reg_a, 1);
ARM GAS  C:\Users\SF\AppData\Local\Temp\ccFGOSN0.s 			page 71


1218:Drivers/lsm303agr/Src/lsm303agr_reg.c ****   *val = status_reg_a.zyxor;
 2695              		.loc 1 1218 3 is_stmt 1 view .LVU654
 2696              		.loc 1 1218 22 is_stmt 0 view .LVU655
 2697 0010 9DF80430 		ldrb	r3, [sp, #4]	@ zero_extendqisi2
 2698 0014 C3F3C013 		ubfx	r3, r3, #7, #1
 2699              		.loc 1 1218 8 view .LVU656
 2700 0018 2370     		strb	r3, [r4]
1219:Drivers/lsm303agr/Src/lsm303agr_reg.c **** 
1220:Drivers/lsm303agr/Src/lsm303agr_reg.c ****   return ret;
 2701              		.loc 1 1220 3 is_stmt 1 view .LVU657
1221:Drivers/lsm303agr/Src/lsm303agr_reg.c **** }
 2702              		.loc 1 1221 1 is_stmt 0 view .LVU658
 2703 001a 02B0     		add	sp, sp, #8
 2704              	.LCFI90:
 2705              		.cfi_def_cfa_offset 8
 2706              		@ sp needed
 2707 001c 10BD     		pop	{r4, pc}
 2708              		.loc 1 1221 1 view .LVU659
 2709              		.cfi_endproc
 2710              	.LFE179:
 2712              		.section	.text.lsm303agr_acceleration_raw_get,"ax",%progbits
 2713              		.align	1
 2714              		.global	lsm303agr_acceleration_raw_get
 2715              		.syntax unified
 2716              		.thumb
 2717              		.thumb_func
 2719              	lsm303agr_acceleration_raw_get:
 2720              	.LVL170:
 2721              	.LFB180:
1222:Drivers/lsm303agr/Src/lsm303agr_reg.c **** 
1223:Drivers/lsm303agr/Src/lsm303agr_reg.c **** /**
1224:Drivers/lsm303agr/Src/lsm303agr_reg.c ****   * @brief  Acceleration output value.[get]
1225:Drivers/lsm303agr/Src/lsm303agr_reg.c ****   *
1226:Drivers/lsm303agr/Src/lsm303agr_reg.c ****   * @param  ctx    Read / write interface definitions.(ptr)
1227:Drivers/lsm303agr/Src/lsm303agr_reg.c ****   * @param  buff   Buffer that stores data read.(ptr)
1228:Drivers/lsm303agr/Src/lsm303agr_reg.c ****   * @retval        Interface status (MANDATORY: return 0 -> no Error).
1229:Drivers/lsm303agr/Src/lsm303agr_reg.c ****   *
1230:Drivers/lsm303agr/Src/lsm303agr_reg.c ****   */
1231:Drivers/lsm303agr/Src/lsm303agr_reg.c **** int32_t lsm303agr_acceleration_raw_get(stmdev_ctx_t *ctx,
1232:Drivers/lsm303agr/Src/lsm303agr_reg.c ****                                        int16_t *val)
1233:Drivers/lsm303agr/Src/lsm303agr_reg.c **** {
 2722              		.loc 1 1233 1 is_stmt 1 view -0
 2723              		.cfi_startproc
 2724              		@ args = 0, pretend = 0, frame = 8
 2725              		@ frame_needed = 0, uses_anonymous_args = 0
 2726              		.loc 1 1233 1 is_stmt 0 view .LVU661
 2727 0000 10B5     		push	{r4, lr}
 2728              	.LCFI91:
 2729              		.cfi_def_cfa_offset 8
 2730              		.cfi_offset 4, -8
 2731              		.cfi_offset 14, -4
 2732 0002 82B0     		sub	sp, sp, #8
 2733              	.LCFI92:
 2734              		.cfi_def_cfa_offset 16
 2735 0004 0C46     		mov	r4, r1
1234:Drivers/lsm303agr/Src/lsm303agr_reg.c ****   uint8_t buff[6];
 2736              		.loc 1 1234 3 is_stmt 1 view .LVU662
ARM GAS  C:\Users\SF\AppData\Local\Temp\ccFGOSN0.s 			page 72


1235:Drivers/lsm303agr/Src/lsm303agr_reg.c ****   int32_t ret;
 2737              		.loc 1 1235 3 view .LVU663
1236:Drivers/lsm303agr/Src/lsm303agr_reg.c **** 
1237:Drivers/lsm303agr/Src/lsm303agr_reg.c ****   ret = lsm303agr_read_reg(ctx, LSM303AGR_OUT_X_L_A, buff, 6);
 2738              		.loc 1 1237 3 view .LVU664
 2739              		.loc 1 1237 9 is_stmt 0 view .LVU665
 2740 0006 0623     		movs	r3, #6
 2741 0008 6A46     		mov	r2, sp
 2742 000a 2821     		movs	r1, #40
 2743              	.LVL171:
 2744              		.loc 1 1237 9 view .LVU666
 2745 000c FFF7FEFF 		bl	lsm303agr_read_reg
 2746              	.LVL172:
1238:Drivers/lsm303agr/Src/lsm303agr_reg.c ****   val[0] = (int16_t)buff[1];
 2747              		.loc 1 1238 3 is_stmt 1 view .LVU667
 2748              		.loc 1 1238 12 is_stmt 0 view .LVU668
 2749 0010 9DF80120 		ldrb	r2, [sp, #1]	@ zero_extendqisi2
 2750              		.loc 1 1238 10 view .LVU669
 2751 0014 2280     		strh	r2, [r4]	@ movhi
1239:Drivers/lsm303agr/Src/lsm303agr_reg.c ****   val[0] = (val[0] * 256) + (int16_t)buff[0];
 2752              		.loc 1 1239 3 is_stmt 1 view .LVU670
 2753              		.loc 1 1239 42 is_stmt 0 view .LVU671
 2754 0016 9DF80030 		ldrb	r3, [sp]	@ zero_extendqisi2
 2755              		.loc 1 1239 27 view .LVU672
 2756 001a 03EB0223 		add	r3, r3, r2, lsl #8
 2757              		.loc 1 1239 10 view .LVU673
 2758 001e 2380     		strh	r3, [r4]	@ movhi
1240:Drivers/lsm303agr/Src/lsm303agr_reg.c ****   val[1] = (int16_t)buff[3];
 2759              		.loc 1 1240 3 is_stmt 1 view .LVU674
 2760              		.loc 1 1240 12 is_stmt 0 view .LVU675
 2761 0020 9DF80320 		ldrb	r2, [sp, #3]	@ zero_extendqisi2
 2762              		.loc 1 1240 10 view .LVU676
 2763 0024 6280     		strh	r2, [r4, #2]	@ movhi
1241:Drivers/lsm303agr/Src/lsm303agr_reg.c ****   val[1] = (val[1] * 256) + (int16_t)buff[2];
 2764              		.loc 1 1241 3 is_stmt 1 view .LVU677
 2765              		.loc 1 1241 42 is_stmt 0 view .LVU678
 2766 0026 9DF80230 		ldrb	r3, [sp, #2]	@ zero_extendqisi2
 2767              		.loc 1 1241 27 view .LVU679
 2768 002a 03EB0223 		add	r3, r3, r2, lsl #8
 2769              		.loc 1 1241 10 view .LVU680
 2770 002e 6380     		strh	r3, [r4, #2]	@ movhi
1242:Drivers/lsm303agr/Src/lsm303agr_reg.c ****   val[2] = (int16_t)buff[5];
 2771              		.loc 1 1242 3 is_stmt 1 view .LVU681
 2772              		.loc 1 1242 12 is_stmt 0 view .LVU682
 2773 0030 9DF80520 		ldrb	r2, [sp, #5]	@ zero_extendqisi2
 2774              		.loc 1 1242 10 view .LVU683
 2775 0034 A280     		strh	r2, [r4, #4]	@ movhi
1243:Drivers/lsm303agr/Src/lsm303agr_reg.c ****   val[2] = (val[2] * 256) + (int16_t)buff[4];
 2776              		.loc 1 1243 3 is_stmt 1 view .LVU684
 2777              		.loc 1 1243 42 is_stmt 0 view .LVU685
 2778 0036 9DF80430 		ldrb	r3, [sp, #4]	@ zero_extendqisi2
 2779              		.loc 1 1243 27 view .LVU686
 2780 003a 03EB0223 		add	r3, r3, r2, lsl #8
 2781              		.loc 1 1243 10 view .LVU687
 2782 003e A380     		strh	r3, [r4, #4]	@ movhi
1244:Drivers/lsm303agr/Src/lsm303agr_reg.c **** 
1245:Drivers/lsm303agr/Src/lsm303agr_reg.c ****   return ret;
ARM GAS  C:\Users\SF\AppData\Local\Temp\ccFGOSN0.s 			page 73


 2783              		.loc 1 1245 3 is_stmt 1 view .LVU688
1246:Drivers/lsm303agr/Src/lsm303agr_reg.c **** }
 2784              		.loc 1 1246 1 is_stmt 0 view .LVU689
 2785 0040 02B0     		add	sp, sp, #8
 2786              	.LCFI93:
 2787              		.cfi_def_cfa_offset 8
 2788              		@ sp needed
 2789 0042 10BD     		pop	{r4, pc}
 2790              		.loc 1 1246 1 view .LVU690
 2791              		.cfi_endproc
 2792              	.LFE180:
 2794              		.section	.text.lsm303agr_mag_user_offset_set,"ax",%progbits
 2795              		.align	1
 2796              		.global	lsm303agr_mag_user_offset_set
 2797              		.syntax unified
 2798              		.thumb
 2799              		.thumb_func
 2801              	lsm303agr_mag_user_offset_set:
 2802              	.LVL173:
 2803              	.LFB181:
1247:Drivers/lsm303agr/Src/lsm303agr_reg.c **** 
1248:Drivers/lsm303agr/Src/lsm303agr_reg.c **** /**
1249:Drivers/lsm303agr/Src/lsm303agr_reg.c ****   * @brief  These registers comprise a 3 group of
1250:Drivers/lsm303agr/Src/lsm303agr_reg.c ****   *         16-bit number and represent hard-iron
1251:Drivers/lsm303agr/Src/lsm303agr_reg.c ****   *         offset in order to compensate environmental
1252:Drivers/lsm303agr/Src/lsm303agr_reg.c ****   *         effects. Data format is the same of
1253:Drivers/lsm303agr/Src/lsm303agr_reg.c ****   *         output data raw: twos complement with
1254:Drivers/lsm303agr/Src/lsm303agr_reg.c ****   *         1LSb = 1.5mG. These values act on the
1255:Drivers/lsm303agr/Src/lsm303agr_reg.c ****   *         magnetic output data value in order to
1256:Drivers/lsm303agr/Src/lsm303agr_reg.c ****   *         delete the environmental offset.[set]
1257:Drivers/lsm303agr/Src/lsm303agr_reg.c ****   *
1258:Drivers/lsm303agr/Src/lsm303agr_reg.c ****   * @param  ctx    Read / write interface definitions.(ptr)
1259:Drivers/lsm303agr/Src/lsm303agr_reg.c ****   * @param  buff   Buffer that contains data to write.(ptr)
1260:Drivers/lsm303agr/Src/lsm303agr_reg.c ****   * @retval        Interface status (MANDATORY: return 0 -> no Error).
1261:Drivers/lsm303agr/Src/lsm303agr_reg.c ****   *
1262:Drivers/lsm303agr/Src/lsm303agr_reg.c ****   */
1263:Drivers/lsm303agr/Src/lsm303agr_reg.c **** int32_t lsm303agr_mag_user_offset_set(stmdev_ctx_t *ctx, int16_t *val)
1264:Drivers/lsm303agr/Src/lsm303agr_reg.c **** {
 2804              		.loc 1 1264 1 is_stmt 1 view -0
 2805              		.cfi_startproc
 2806              		@ args = 0, pretend = 0, frame = 8
 2807              		@ frame_needed = 0, uses_anonymous_args = 0
 2808              		.loc 1 1264 1 is_stmt 0 view .LVU692
 2809 0000 00B5     		push	{lr}
 2810              	.LCFI94:
 2811              		.cfi_def_cfa_offset 4
 2812              		.cfi_offset 14, -4
 2813 0002 83B0     		sub	sp, sp, #12
 2814              	.LCFI95:
 2815              		.cfi_def_cfa_offset 16
1265:Drivers/lsm303agr/Src/lsm303agr_reg.c ****   uint8_t buff[6];
 2816              		.loc 1 1265 3 is_stmt 1 view .LVU693
1266:Drivers/lsm303agr/Src/lsm303agr_reg.c ****   int32_t ret;
 2817              		.loc 1 1266 3 view .LVU694
1267:Drivers/lsm303agr/Src/lsm303agr_reg.c **** 
1268:Drivers/lsm303agr/Src/lsm303agr_reg.c ****   buff[1] = (uint8_t)((uint16_t)val[0] / 256U);
 2818              		.loc 1 1268 3 view .LVU695
ARM GAS  C:\Users\SF\AppData\Local\Temp\ccFGOSN0.s 			page 74


 2819              		.loc 1 1268 36 is_stmt 0 view .LVU696
 2820 0004 B1F90030 		ldrsh	r3, [r1]
 2821              		.loc 1 1268 13 view .LVU697
 2822 0008 C3F30722 		ubfx	r2, r3, #8, #8
 2823              		.loc 1 1268 11 view .LVU698
 2824 000c 8DF80120 		strb	r2, [sp, #1]
1269:Drivers/lsm303agr/Src/lsm303agr_reg.c ****   buff[0] = (uint8_t)((uint16_t)val[0] - (buff[1] * 256U));
 2825              		.loc 1 1269 3 is_stmt 1 view .LVU699
 2826              		.loc 1 1269 11 is_stmt 0 view .LVU700
 2827 0010 8DF80030 		strb	r3, [sp]
1270:Drivers/lsm303agr/Src/lsm303agr_reg.c ****   buff[3] = (uint8_t)((uint16_t)val[1] / 256U);
 2828              		.loc 1 1270 3 is_stmt 1 view .LVU701
 2829              		.loc 1 1270 36 is_stmt 0 view .LVU702
 2830 0014 B1F90230 		ldrsh	r3, [r1, #2]
 2831              		.loc 1 1270 13 view .LVU703
 2832 0018 C3F30722 		ubfx	r2, r3, #8, #8
 2833              		.loc 1 1270 11 view .LVU704
 2834 001c 8DF80320 		strb	r2, [sp, #3]
1271:Drivers/lsm303agr/Src/lsm303agr_reg.c ****   buff[2] = (uint8_t)((uint16_t)val[1] - (buff[3] * 256U));
 2835              		.loc 1 1271 3 is_stmt 1 view .LVU705
 2836              		.loc 1 1271 11 is_stmt 0 view .LVU706
 2837 0020 8DF80230 		strb	r3, [sp, #2]
1272:Drivers/lsm303agr/Src/lsm303agr_reg.c ****   buff[5] = (uint8_t)((uint16_t)val[2] / 256U);
 2838              		.loc 1 1272 3 is_stmt 1 view .LVU707
 2839              		.loc 1 1272 36 is_stmt 0 view .LVU708
 2840 0024 B1F90430 		ldrsh	r3, [r1, #4]
 2841              		.loc 1 1272 13 view .LVU709
 2842 0028 C3F30722 		ubfx	r2, r3, #8, #8
 2843              		.loc 1 1272 11 view .LVU710
 2844 002c 8DF80520 		strb	r2, [sp, #5]
1273:Drivers/lsm303agr/Src/lsm303agr_reg.c ****   buff[4] = (uint8_t)((uint16_t)val[2] - (buff[5] * 256U));
 2845              		.loc 1 1273 3 is_stmt 1 view .LVU711
 2846              		.loc 1 1273 11 is_stmt 0 view .LVU712
 2847 0030 8DF80430 		strb	r3, [sp, #4]
1274:Drivers/lsm303agr/Src/lsm303agr_reg.c ****   ret = lsm303agr_write_reg(ctx, LSM303AGR_OFFSET_X_REG_L_M, buff, 6);
 2848              		.loc 1 1274 3 is_stmt 1 view .LVU713
 2849              		.loc 1 1274 9 is_stmt 0 view .LVU714
 2850 0034 0623     		movs	r3, #6
 2851 0036 6A46     		mov	r2, sp
 2852 0038 4521     		movs	r1, #69
 2853              	.LVL174:
 2854              		.loc 1 1274 9 view .LVU715
 2855 003a FFF7FEFF 		bl	lsm303agr_write_reg
 2856              	.LVL175:
1275:Drivers/lsm303agr/Src/lsm303agr_reg.c **** 
1276:Drivers/lsm303agr/Src/lsm303agr_reg.c ****   return ret;
 2857              		.loc 1 1276 3 is_stmt 1 view .LVU716
1277:Drivers/lsm303agr/Src/lsm303agr_reg.c **** }
 2858              		.loc 1 1277 1 is_stmt 0 view .LVU717
 2859 003e 03B0     		add	sp, sp, #12
 2860              	.LCFI96:
 2861              		.cfi_def_cfa_offset 4
 2862              		@ sp needed
 2863 0040 5DF804FB 		ldr	pc, [sp], #4
 2864              		.cfi_endproc
 2865              	.LFE181:
 2867              		.section	.text.lsm303agr_mag_user_offset_get,"ax",%progbits
ARM GAS  C:\Users\SF\AppData\Local\Temp\ccFGOSN0.s 			page 75


 2868              		.align	1
 2869              		.global	lsm303agr_mag_user_offset_get
 2870              		.syntax unified
 2871              		.thumb
 2872              		.thumb_func
 2874              	lsm303agr_mag_user_offset_get:
 2875              	.LVL176:
 2876              	.LFB182:
1278:Drivers/lsm303agr/Src/lsm303agr_reg.c **** 
1279:Drivers/lsm303agr/Src/lsm303agr_reg.c **** /**
1280:Drivers/lsm303agr/Src/lsm303agr_reg.c ****   * @brief  These registers comprise a 3 group of
1281:Drivers/lsm303agr/Src/lsm303agr_reg.c ****   *         16-bit number and represent hard-iron
1282:Drivers/lsm303agr/Src/lsm303agr_reg.c ****   *         offset in order to compensate environmental
1283:Drivers/lsm303agr/Src/lsm303agr_reg.c ****   *         effects. Data format is the same of
1284:Drivers/lsm303agr/Src/lsm303agr_reg.c ****   *         output data raw: twos complement with
1285:Drivers/lsm303agr/Src/lsm303agr_reg.c ****   *         1LSb = 1.5mG. These values act on the
1286:Drivers/lsm303agr/Src/lsm303agr_reg.c ****   *         magnetic output data value in order to
1287:Drivers/lsm303agr/Src/lsm303agr_reg.c ****   *         delete the environmental offset.[get]
1288:Drivers/lsm303agr/Src/lsm303agr_reg.c ****   *
1289:Drivers/lsm303agr/Src/lsm303agr_reg.c ****   * @param  ctx    Read / write interface definitions.(ptr)
1290:Drivers/lsm303agr/Src/lsm303agr_reg.c ****   * @param  buff   Buffer that stores data read.(ptr)
1291:Drivers/lsm303agr/Src/lsm303agr_reg.c ****   * @retval        Interface status (MANDATORY: return 0 -> no Error).
1292:Drivers/lsm303agr/Src/lsm303agr_reg.c ****   *
1293:Drivers/lsm303agr/Src/lsm303agr_reg.c ****   */
1294:Drivers/lsm303agr/Src/lsm303agr_reg.c **** int32_t lsm303agr_mag_user_offset_get(stmdev_ctx_t *ctx, int16_t *val)
1295:Drivers/lsm303agr/Src/lsm303agr_reg.c **** {
 2877              		.loc 1 1295 1 is_stmt 1 view -0
 2878              		.cfi_startproc
 2879              		@ args = 0, pretend = 0, frame = 8
 2880              		@ frame_needed = 0, uses_anonymous_args = 0
 2881              		.loc 1 1295 1 is_stmt 0 view .LVU719
 2882 0000 10B5     		push	{r4, lr}
 2883              	.LCFI97:
 2884              		.cfi_def_cfa_offset 8
 2885              		.cfi_offset 4, -8
 2886              		.cfi_offset 14, -4
 2887 0002 82B0     		sub	sp, sp, #8
 2888              	.LCFI98:
 2889              		.cfi_def_cfa_offset 16
 2890 0004 0C46     		mov	r4, r1
1296:Drivers/lsm303agr/Src/lsm303agr_reg.c ****   uint8_t buff[6];
 2891              		.loc 1 1296 3 is_stmt 1 view .LVU720
1297:Drivers/lsm303agr/Src/lsm303agr_reg.c ****   int32_t ret;
 2892              		.loc 1 1297 3 view .LVU721
1298:Drivers/lsm303agr/Src/lsm303agr_reg.c **** 
1299:Drivers/lsm303agr/Src/lsm303agr_reg.c ****   ret = lsm303agr_read_reg(ctx, LSM303AGR_OFFSET_X_REG_L_M, buff, 6);
 2893              		.loc 1 1299 3 view .LVU722
 2894              		.loc 1 1299 9 is_stmt 0 view .LVU723
 2895 0006 0623     		movs	r3, #6
 2896 0008 6A46     		mov	r2, sp
 2897 000a 4521     		movs	r1, #69
 2898              	.LVL177:
 2899              		.loc 1 1299 9 view .LVU724
 2900 000c FFF7FEFF 		bl	lsm303agr_read_reg
 2901              	.LVL178:
1300:Drivers/lsm303agr/Src/lsm303agr_reg.c ****   val[0] = (int16_t)buff[1];
 2902              		.loc 1 1300 3 is_stmt 1 view .LVU725
ARM GAS  C:\Users\SF\AppData\Local\Temp\ccFGOSN0.s 			page 76


 2903              		.loc 1 1300 12 is_stmt 0 view .LVU726
 2904 0010 9DF80120 		ldrb	r2, [sp, #1]	@ zero_extendqisi2
 2905              		.loc 1 1300 10 view .LVU727
 2906 0014 2280     		strh	r2, [r4]	@ movhi
1301:Drivers/lsm303agr/Src/lsm303agr_reg.c ****   val[0] = (val[0] * 256) + (int16_t)buff[0];
 2907              		.loc 1 1301 3 is_stmt 1 view .LVU728
 2908              		.loc 1 1301 42 is_stmt 0 view .LVU729
 2909 0016 9DF80030 		ldrb	r3, [sp]	@ zero_extendqisi2
 2910              		.loc 1 1301 27 view .LVU730
 2911 001a 03EB0223 		add	r3, r3, r2, lsl #8
 2912              		.loc 1 1301 10 view .LVU731
 2913 001e 2380     		strh	r3, [r4]	@ movhi
1302:Drivers/lsm303agr/Src/lsm303agr_reg.c ****   val[1] = (int16_t)buff[3];
 2914              		.loc 1 1302 3 is_stmt 1 view .LVU732
 2915              		.loc 1 1302 12 is_stmt 0 view .LVU733
 2916 0020 9DF80320 		ldrb	r2, [sp, #3]	@ zero_extendqisi2
 2917              		.loc 1 1302 10 view .LVU734
 2918 0024 6280     		strh	r2, [r4, #2]	@ movhi
1303:Drivers/lsm303agr/Src/lsm303agr_reg.c ****   val[1] = (val[1] * 256) + (int16_t)buff[2];
 2919              		.loc 1 1303 3 is_stmt 1 view .LVU735
 2920              		.loc 1 1303 42 is_stmt 0 view .LVU736
 2921 0026 9DF80230 		ldrb	r3, [sp, #2]	@ zero_extendqisi2
 2922              		.loc 1 1303 27 view .LVU737
 2923 002a 03EB0223 		add	r3, r3, r2, lsl #8
 2924              		.loc 1 1303 10 view .LVU738
 2925 002e 6380     		strh	r3, [r4, #2]	@ movhi
1304:Drivers/lsm303agr/Src/lsm303agr_reg.c ****   val[2] = (int16_t)buff[5];
 2926              		.loc 1 1304 3 is_stmt 1 view .LVU739
 2927              		.loc 1 1304 12 is_stmt 0 view .LVU740
 2928 0030 9DF80520 		ldrb	r2, [sp, #5]	@ zero_extendqisi2
 2929              		.loc 1 1304 10 view .LVU741
 2930 0034 A280     		strh	r2, [r4, #4]	@ movhi
1305:Drivers/lsm303agr/Src/lsm303agr_reg.c ****   val[2] = (val[2] * 256) + (int16_t)buff[4];
 2931              		.loc 1 1305 3 is_stmt 1 view .LVU742
 2932              		.loc 1 1305 42 is_stmt 0 view .LVU743
 2933 0036 9DF80430 		ldrb	r3, [sp, #4]	@ zero_extendqisi2
 2934              		.loc 1 1305 27 view .LVU744
 2935 003a 03EB0223 		add	r3, r3, r2, lsl #8
 2936              		.loc 1 1305 10 view .LVU745
 2937 003e A380     		strh	r3, [r4, #4]	@ movhi
1306:Drivers/lsm303agr/Src/lsm303agr_reg.c **** 
1307:Drivers/lsm303agr/Src/lsm303agr_reg.c ****   return ret;
 2938              		.loc 1 1307 3 is_stmt 1 view .LVU746
1308:Drivers/lsm303agr/Src/lsm303agr_reg.c **** }
 2939              		.loc 1 1308 1 is_stmt 0 view .LVU747
 2940 0040 02B0     		add	sp, sp, #8
 2941              	.LCFI99:
 2942              		.cfi_def_cfa_offset 8
 2943              		@ sp needed
 2944 0042 10BD     		pop	{r4, pc}
 2945              		.loc 1 1308 1 view .LVU748
 2946              		.cfi_endproc
 2947              	.LFE182:
 2949              		.section	.text.lsm303agr_mag_operating_mode_set,"ax",%progbits
 2950              		.align	1
 2951              		.global	lsm303agr_mag_operating_mode_set
 2952              		.syntax unified
ARM GAS  C:\Users\SF\AppData\Local\Temp\ccFGOSN0.s 			page 77


 2953              		.thumb
 2954              		.thumb_func
 2956              	lsm303agr_mag_operating_mode_set:
 2957              	.LVL179:
 2958              	.LFB183:
1309:Drivers/lsm303agr/Src/lsm303agr_reg.c **** 
1310:Drivers/lsm303agr/Src/lsm303agr_reg.c **** /**
1311:Drivers/lsm303agr/Src/lsm303agr_reg.c ****   * @brief  Operating mode selection.[set]
1312:Drivers/lsm303agr/Src/lsm303agr_reg.c ****   *
1313:Drivers/lsm303agr/Src/lsm303agr_reg.c ****   * @param  ctx    Read / write interface definitions.(ptr)
1314:Drivers/lsm303agr/Src/lsm303agr_reg.c ****   * @param  val    Change the values of md in reg CFG_REG_A_M
1315:Drivers/lsm303agr/Src/lsm303agr_reg.c ****   * @retval        Interface status (MANDATORY: return 0 -> no Error).
1316:Drivers/lsm303agr/Src/lsm303agr_reg.c ****   *
1317:Drivers/lsm303agr/Src/lsm303agr_reg.c ****   */
1318:Drivers/lsm303agr/Src/lsm303agr_reg.c **** int32_t lsm303agr_mag_operating_mode_set(stmdev_ctx_t *ctx,
1319:Drivers/lsm303agr/Src/lsm303agr_reg.c ****                                          lsm303agr_md_m_t val)
1320:Drivers/lsm303agr/Src/lsm303agr_reg.c **** {
 2959              		.loc 1 1320 1 is_stmt 1 view -0
 2960              		.cfi_startproc
 2961              		@ args = 0, pretend = 0, frame = 8
 2962              		@ frame_needed = 0, uses_anonymous_args = 0
 2963              		.loc 1 1320 1 is_stmt 0 view .LVU750
 2964 0000 30B5     		push	{r4, r5, lr}
 2965              	.LCFI100:
 2966              		.cfi_def_cfa_offset 12
 2967              		.cfi_offset 4, -12
 2968              		.cfi_offset 5, -8
 2969              		.cfi_offset 14, -4
 2970 0002 83B0     		sub	sp, sp, #12
 2971              	.LCFI101:
 2972              		.cfi_def_cfa_offset 24
 2973 0004 0446     		mov	r4, r0
 2974 0006 0D46     		mov	r5, r1
1321:Drivers/lsm303agr/Src/lsm303agr_reg.c ****   lsm303agr_cfg_reg_a_m_t cfg_reg_a_m;
 2975              		.loc 1 1321 3 is_stmt 1 view .LVU751
1322:Drivers/lsm303agr/Src/lsm303agr_reg.c ****   int32_t ret;
 2976              		.loc 1 1322 3 view .LVU752
1323:Drivers/lsm303agr/Src/lsm303agr_reg.c **** 
1324:Drivers/lsm303agr/Src/lsm303agr_reg.c ****   ret = lsm303agr_read_reg(ctx, LSM303AGR_CFG_REG_A_M,
 2977              		.loc 1 1324 3 view .LVU753
 2978              		.loc 1 1324 9 is_stmt 0 view .LVU754
 2979 0008 0123     		movs	r3, #1
 2980 000a 01AA     		add	r2, sp, #4
 2981 000c 6021     		movs	r1, #96
 2982              	.LVL180:
 2983              		.loc 1 1324 9 view .LVU755
 2984 000e FFF7FEFF 		bl	lsm303agr_read_reg
 2985              	.LVL181:
1325:Drivers/lsm303agr/Src/lsm303agr_reg.c ****                            (uint8_t *)&cfg_reg_a_m, 1);
1326:Drivers/lsm303agr/Src/lsm303agr_reg.c **** 
1327:Drivers/lsm303agr/Src/lsm303agr_reg.c ****   if (ret == 0)
 2986              		.loc 1 1327 3 is_stmt 1 view .LVU756
 2987              		.loc 1 1327 6 is_stmt 0 view .LVU757
 2988 0012 08B1     		cbz	r0, .L190
 2989              	.LVL182:
 2990              	.L187:
1328:Drivers/lsm303agr/Src/lsm303agr_reg.c ****   {
ARM GAS  C:\Users\SF\AppData\Local\Temp\ccFGOSN0.s 			page 78


1329:Drivers/lsm303agr/Src/lsm303agr_reg.c ****     cfg_reg_a_m.md = (uint8_t)val;
1330:Drivers/lsm303agr/Src/lsm303agr_reg.c ****     ret = lsm303agr_write_reg(ctx, LSM303AGR_CFG_REG_A_M,
1331:Drivers/lsm303agr/Src/lsm303agr_reg.c ****                               (uint8_t *)&cfg_reg_a_m, 1);
1332:Drivers/lsm303agr/Src/lsm303agr_reg.c ****   }
1333:Drivers/lsm303agr/Src/lsm303agr_reg.c **** 
1334:Drivers/lsm303agr/Src/lsm303agr_reg.c ****   return ret;
1335:Drivers/lsm303agr/Src/lsm303agr_reg.c **** }
 2991              		.loc 1 1335 1 view .LVU758
 2992 0014 03B0     		add	sp, sp, #12
 2993              	.LCFI102:
 2994              		.cfi_remember_state
 2995              		.cfi_def_cfa_offset 12
 2996              		@ sp needed
 2997 0016 30BD     		pop	{r4, r5, pc}
 2998              	.LVL183:
 2999              	.L190:
 3000              	.LCFI103:
 3001              		.cfi_restore_state
1329:Drivers/lsm303agr/Src/lsm303agr_reg.c ****     ret = lsm303agr_write_reg(ctx, LSM303AGR_CFG_REG_A_M,
 3002              		.loc 1 1329 5 is_stmt 1 view .LVU759
1329:Drivers/lsm303agr/Src/lsm303agr_reg.c ****     ret = lsm303agr_write_reg(ctx, LSM303AGR_CFG_REG_A_M,
 3003              		.loc 1 1329 20 is_stmt 0 view .LVU760
 3004 0018 9DF80430 		ldrb	r3, [sp, #4]	@ zero_extendqisi2
 3005 001c 65F30103 		bfi	r3, r5, #0, #2
 3006 0020 8DF80430 		strb	r3, [sp, #4]
1330:Drivers/lsm303agr/Src/lsm303agr_reg.c ****                               (uint8_t *)&cfg_reg_a_m, 1);
 3007              		.loc 1 1330 5 is_stmt 1 view .LVU761
1330:Drivers/lsm303agr/Src/lsm303agr_reg.c ****                               (uint8_t *)&cfg_reg_a_m, 1);
 3008              		.loc 1 1330 11 is_stmt 0 view .LVU762
 3009 0024 0123     		movs	r3, #1
 3010              	.LVL184:
1330:Drivers/lsm303agr/Src/lsm303agr_reg.c ****                               (uint8_t *)&cfg_reg_a_m, 1);
 3011              		.loc 1 1330 11 view .LVU763
 3012 0026 01AA     		add	r2, sp, #4
 3013 0028 6021     		movs	r1, #96
 3014 002a 2046     		mov	r0, r4
 3015 002c FFF7FEFF 		bl	lsm303agr_write_reg
 3016              	.LVL185:
1334:Drivers/lsm303agr/Src/lsm303agr_reg.c **** }
 3017              		.loc 1 1334 3 is_stmt 1 view .LVU764
1334:Drivers/lsm303agr/Src/lsm303agr_reg.c **** }
 3018              		.loc 1 1334 10 is_stmt 0 view .LVU765
 3019 0030 F0E7     		b	.L187
 3020              		.cfi_endproc
 3021              	.LFE183:
 3023              		.section	.text.lsm303agr_mag_operating_mode_get,"ax",%progbits
 3024              		.align	1
 3025              		.global	lsm303agr_mag_operating_mode_get
 3026              		.syntax unified
 3027              		.thumb
 3028              		.thumb_func
 3030              	lsm303agr_mag_operating_mode_get:
 3031              	.LVL186:
 3032              	.LFB184:
1336:Drivers/lsm303agr/Src/lsm303agr_reg.c **** 
1337:Drivers/lsm303agr/Src/lsm303agr_reg.c **** /**
1338:Drivers/lsm303agr/Src/lsm303agr_reg.c ****   * @brief  Operating mode selection.[get]
ARM GAS  C:\Users\SF\AppData\Local\Temp\ccFGOSN0.s 			page 79


1339:Drivers/lsm303agr/Src/lsm303agr_reg.c ****   *
1340:Drivers/lsm303agr/Src/lsm303agr_reg.c ****   * @param  ctx    Read / write interface definitions.(ptr)
1341:Drivers/lsm303agr/Src/lsm303agr_reg.c ****   * @param  val    Get the values of md in reg CFG_REG_A_M.(ptr)
1342:Drivers/lsm303agr/Src/lsm303agr_reg.c ****   * @retval        Interface status (MANDATORY: return 0 -> no Error).
1343:Drivers/lsm303agr/Src/lsm303agr_reg.c ****   *
1344:Drivers/lsm303agr/Src/lsm303agr_reg.c ****   */
1345:Drivers/lsm303agr/Src/lsm303agr_reg.c **** int32_t lsm303agr_mag_operating_mode_get(stmdev_ctx_t *ctx,
1346:Drivers/lsm303agr/Src/lsm303agr_reg.c ****                                          lsm303agr_md_m_t *val)
1347:Drivers/lsm303agr/Src/lsm303agr_reg.c **** {
 3033              		.loc 1 1347 1 is_stmt 1 view -0
 3034              		.cfi_startproc
 3035              		@ args = 0, pretend = 0, frame = 8
 3036              		@ frame_needed = 0, uses_anonymous_args = 0
 3037              		.loc 1 1347 1 is_stmt 0 view .LVU767
 3038 0000 10B5     		push	{r4, lr}
 3039              	.LCFI104:
 3040              		.cfi_def_cfa_offset 8
 3041              		.cfi_offset 4, -8
 3042              		.cfi_offset 14, -4
 3043 0002 82B0     		sub	sp, sp, #8
 3044              	.LCFI105:
 3045              		.cfi_def_cfa_offset 16
 3046 0004 0C46     		mov	r4, r1
1348:Drivers/lsm303agr/Src/lsm303agr_reg.c ****   lsm303agr_cfg_reg_a_m_t cfg_reg_a_m;
 3047              		.loc 1 1348 3 is_stmt 1 view .LVU768
1349:Drivers/lsm303agr/Src/lsm303agr_reg.c ****   int32_t ret;
 3048              		.loc 1 1349 3 view .LVU769
1350:Drivers/lsm303agr/Src/lsm303agr_reg.c **** 
1351:Drivers/lsm303agr/Src/lsm303agr_reg.c ****   ret = lsm303agr_read_reg(ctx, LSM303AGR_CFG_REG_A_M,
 3049              		.loc 1 1351 3 view .LVU770
 3050              		.loc 1 1351 9 is_stmt 0 view .LVU771
 3051 0006 0123     		movs	r3, #1
 3052 0008 01AA     		add	r2, sp, #4
 3053 000a 6021     		movs	r1, #96
 3054              	.LVL187:
 3055              		.loc 1 1351 9 view .LVU772
 3056 000c FFF7FEFF 		bl	lsm303agr_read_reg
 3057              	.LVL188:
1352:Drivers/lsm303agr/Src/lsm303agr_reg.c ****                            (uint8_t *)&cfg_reg_a_m, 1);
1353:Drivers/lsm303agr/Src/lsm303agr_reg.c **** 
1354:Drivers/lsm303agr/Src/lsm303agr_reg.c ****   switch (cfg_reg_a_m.md)
 3058              		.loc 1 1354 3 is_stmt 1 view .LVU773
 3059              		.loc 1 1354 22 is_stmt 0 view .LVU774
 3060 0010 9DF80430 		ldrb	r3, [sp, #4]	@ zero_extendqisi2
 3061 0014 03F00303 		and	r3, r3, #3
 3062              		.loc 1 1354 3 view .LVU775
 3063 0018 012B     		cmp	r3, #1
 3064 001a 08D0     		beq	.L192
 3065 001c 022B     		cmp	r3, #2
 3066 001e 09D0     		beq	.L193
 3067 0020 13B1     		cbz	r3, .L197
1355:Drivers/lsm303agr/Src/lsm303agr_reg.c ****   {
1356:Drivers/lsm303agr/Src/lsm303agr_reg.c ****     case LSM303AGR_CONTINUOUS_MODE:
1357:Drivers/lsm303agr/Src/lsm303agr_reg.c ****       *val = LSM303AGR_CONTINUOUS_MODE;
1358:Drivers/lsm303agr/Src/lsm303agr_reg.c ****       break;
1359:Drivers/lsm303agr/Src/lsm303agr_reg.c **** 
1360:Drivers/lsm303agr/Src/lsm303agr_reg.c ****     case LSM303AGR_SINGLE_TRIGGER:
ARM GAS  C:\Users\SF\AppData\Local\Temp\ccFGOSN0.s 			page 80


1361:Drivers/lsm303agr/Src/lsm303agr_reg.c ****       *val = LSM303AGR_SINGLE_TRIGGER;
1362:Drivers/lsm303agr/Src/lsm303agr_reg.c ****       break;
1363:Drivers/lsm303agr/Src/lsm303agr_reg.c **** 
1364:Drivers/lsm303agr/Src/lsm303agr_reg.c ****     case LSM303AGR_POWER_DOWN:
1365:Drivers/lsm303agr/Src/lsm303agr_reg.c ****       *val = LSM303AGR_POWER_DOWN;
1366:Drivers/lsm303agr/Src/lsm303agr_reg.c ****       break;
1367:Drivers/lsm303agr/Src/lsm303agr_reg.c **** 
1368:Drivers/lsm303agr/Src/lsm303agr_reg.c ****     default:
1369:Drivers/lsm303agr/Src/lsm303agr_reg.c ****       *val = LSM303AGR_CONTINUOUS_MODE;
 3068              		.loc 1 1369 7 is_stmt 1 view .LVU776
 3069              		.loc 1 1369 12 is_stmt 0 view .LVU777
 3070 0022 0023     		movs	r3, #0
 3071 0024 2370     		strb	r3, [r4]
1370:Drivers/lsm303agr/Src/lsm303agr_reg.c ****       break;
 3072              		.loc 1 1370 7 is_stmt 1 view .LVU778
1371:Drivers/lsm303agr/Src/lsm303agr_reg.c ****   }
1372:Drivers/lsm303agr/Src/lsm303agr_reg.c **** 
1373:Drivers/lsm303agr/Src/lsm303agr_reg.c ****   return ret;
 3073              		.loc 1 1373 3 view .LVU779
 3074              		.loc 1 1373 10 is_stmt 0 view .LVU780
 3075 0026 00E0     		b	.L191
 3076              	.L197:
1357:Drivers/lsm303agr/Src/lsm303agr_reg.c ****       break;
 3077              		.loc 1 1357 7 is_stmt 1 view .LVU781
1357:Drivers/lsm303agr/Src/lsm303agr_reg.c ****       break;
 3078              		.loc 1 1357 12 is_stmt 0 view .LVU782
 3079 0028 2370     		strb	r3, [r4]
1358:Drivers/lsm303agr/Src/lsm303agr_reg.c **** 
 3080              		.loc 1 1358 7 is_stmt 1 view .LVU783
 3081              	.L191:
1374:Drivers/lsm303agr/Src/lsm303agr_reg.c **** }
 3082              		.loc 1 1374 1 is_stmt 0 view .LVU784
 3083 002a 02B0     		add	sp, sp, #8
 3084              	.LCFI106:
 3085              		.cfi_remember_state
 3086              		.cfi_def_cfa_offset 8
 3087              		@ sp needed
 3088 002c 10BD     		pop	{r4, pc}
 3089              	.LVL189:
 3090              	.L192:
 3091              	.LCFI107:
 3092              		.cfi_restore_state
1361:Drivers/lsm303agr/Src/lsm303agr_reg.c ****       break;
 3093              		.loc 1 1361 7 is_stmt 1 view .LVU785
1361:Drivers/lsm303agr/Src/lsm303agr_reg.c ****       break;
 3094              		.loc 1 1361 12 is_stmt 0 view .LVU786
 3095 002e 0123     		movs	r3, #1
 3096 0030 2370     		strb	r3, [r4]
1362:Drivers/lsm303agr/Src/lsm303agr_reg.c **** 
 3097              		.loc 1 1362 7 is_stmt 1 view .LVU787
 3098 0032 FAE7     		b	.L191
 3099              	.L193:
1365:Drivers/lsm303agr/Src/lsm303agr_reg.c ****       break;
 3100              		.loc 1 1365 7 view .LVU788
1365:Drivers/lsm303agr/Src/lsm303agr_reg.c ****       break;
 3101              		.loc 1 1365 12 is_stmt 0 view .LVU789
 3102 0034 0223     		movs	r3, #2
ARM GAS  C:\Users\SF\AppData\Local\Temp\ccFGOSN0.s 			page 81


 3103 0036 2370     		strb	r3, [r4]
1366:Drivers/lsm303agr/Src/lsm303agr_reg.c **** 
 3104              		.loc 1 1366 7 is_stmt 1 view .LVU790
 3105 0038 F7E7     		b	.L191
 3106              		.cfi_endproc
 3107              	.LFE184:
 3109              		.section	.text.lsm303agr_mag_data_rate_set,"ax",%progbits
 3110              		.align	1
 3111              		.global	lsm303agr_mag_data_rate_set
 3112              		.syntax unified
 3113              		.thumb
 3114              		.thumb_func
 3116              	lsm303agr_mag_data_rate_set:
 3117              	.LVL190:
 3118              	.LFB185:
1375:Drivers/lsm303agr/Src/lsm303agr_reg.c **** 
1376:Drivers/lsm303agr/Src/lsm303agr_reg.c **** /**
1377:Drivers/lsm303agr/Src/lsm303agr_reg.c ****   * @brief  Output data rate selection.[set]
1378:Drivers/lsm303agr/Src/lsm303agr_reg.c ****   *
1379:Drivers/lsm303agr/Src/lsm303agr_reg.c ****   * @param  ctx    Read / write interface definitions.(ptr)
1380:Drivers/lsm303agr/Src/lsm303agr_reg.c ****   * @param  val    Change the values of odr in reg CFG_REG_A_M
1381:Drivers/lsm303agr/Src/lsm303agr_reg.c ****   * @retval        Interface status (MANDATORY: return 0 -> no Error).
1382:Drivers/lsm303agr/Src/lsm303agr_reg.c ****   *
1383:Drivers/lsm303agr/Src/lsm303agr_reg.c ****   */
1384:Drivers/lsm303agr/Src/lsm303agr_reg.c **** int32_t lsm303agr_mag_data_rate_set(stmdev_ctx_t *ctx,
1385:Drivers/lsm303agr/Src/lsm303agr_reg.c ****                                     lsm303agr_mg_odr_m_t val)
1386:Drivers/lsm303agr/Src/lsm303agr_reg.c **** {
 3119              		.loc 1 1386 1 view -0
 3120              		.cfi_startproc
 3121              		@ args = 0, pretend = 0, frame = 8
 3122              		@ frame_needed = 0, uses_anonymous_args = 0
 3123              		.loc 1 1386 1 is_stmt 0 view .LVU792
 3124 0000 30B5     		push	{r4, r5, lr}
 3125              	.LCFI108:
 3126              		.cfi_def_cfa_offset 12
 3127              		.cfi_offset 4, -12
 3128              		.cfi_offset 5, -8
 3129              		.cfi_offset 14, -4
 3130 0002 83B0     		sub	sp, sp, #12
 3131              	.LCFI109:
 3132              		.cfi_def_cfa_offset 24
 3133 0004 0446     		mov	r4, r0
 3134 0006 0D46     		mov	r5, r1
1387:Drivers/lsm303agr/Src/lsm303agr_reg.c ****   lsm303agr_cfg_reg_a_m_t cfg_reg_a_m;
 3135              		.loc 1 1387 3 is_stmt 1 view .LVU793
1388:Drivers/lsm303agr/Src/lsm303agr_reg.c ****   int32_t ret;
 3136              		.loc 1 1388 3 view .LVU794
1389:Drivers/lsm303agr/Src/lsm303agr_reg.c **** 
1390:Drivers/lsm303agr/Src/lsm303agr_reg.c ****   ret = lsm303agr_read_reg(ctx, LSM303AGR_CFG_REG_A_M,
 3137              		.loc 1 1390 3 view .LVU795
 3138              		.loc 1 1390 9 is_stmt 0 view .LVU796
 3139 0008 0123     		movs	r3, #1
 3140 000a 01AA     		add	r2, sp, #4
 3141 000c 6021     		movs	r1, #96
 3142              	.LVL191:
 3143              		.loc 1 1390 9 view .LVU797
 3144 000e FFF7FEFF 		bl	lsm303agr_read_reg
ARM GAS  C:\Users\SF\AppData\Local\Temp\ccFGOSN0.s 			page 82


 3145              	.LVL192:
1391:Drivers/lsm303agr/Src/lsm303agr_reg.c ****                            (uint8_t *)&cfg_reg_a_m, 1);
1392:Drivers/lsm303agr/Src/lsm303agr_reg.c **** 
1393:Drivers/lsm303agr/Src/lsm303agr_reg.c ****   if (ret == 0)
 3146              		.loc 1 1393 3 is_stmt 1 view .LVU798
 3147              		.loc 1 1393 6 is_stmt 0 view .LVU799
 3148 0012 08B1     		cbz	r0, .L201
 3149              	.LVL193:
 3150              	.L198:
1394:Drivers/lsm303agr/Src/lsm303agr_reg.c ****   {
1395:Drivers/lsm303agr/Src/lsm303agr_reg.c ****     cfg_reg_a_m.odr = (uint8_t)val;
1396:Drivers/lsm303agr/Src/lsm303agr_reg.c ****     ret = lsm303agr_write_reg(ctx, LSM303AGR_CFG_REG_A_M,
1397:Drivers/lsm303agr/Src/lsm303agr_reg.c ****                               (uint8_t *)&cfg_reg_a_m, 1);
1398:Drivers/lsm303agr/Src/lsm303agr_reg.c ****   }
1399:Drivers/lsm303agr/Src/lsm303agr_reg.c **** 
1400:Drivers/lsm303agr/Src/lsm303agr_reg.c ****   return ret;
1401:Drivers/lsm303agr/Src/lsm303agr_reg.c **** }
 3151              		.loc 1 1401 1 view .LVU800
 3152 0014 03B0     		add	sp, sp, #12
 3153              	.LCFI110:
 3154              		.cfi_remember_state
 3155              		.cfi_def_cfa_offset 12
 3156              		@ sp needed
 3157 0016 30BD     		pop	{r4, r5, pc}
 3158              	.LVL194:
 3159              	.L201:
 3160              	.LCFI111:
 3161              		.cfi_restore_state
1395:Drivers/lsm303agr/Src/lsm303agr_reg.c ****     ret = lsm303agr_write_reg(ctx, LSM303AGR_CFG_REG_A_M,
 3162              		.loc 1 1395 5 is_stmt 1 view .LVU801
1395:Drivers/lsm303agr/Src/lsm303agr_reg.c ****     ret = lsm303agr_write_reg(ctx, LSM303AGR_CFG_REG_A_M,
 3163              		.loc 1 1395 21 is_stmt 0 view .LVU802
 3164 0018 9DF80430 		ldrb	r3, [sp, #4]	@ zero_extendqisi2
 3165 001c 65F38303 		bfi	r3, r5, #2, #2
 3166 0020 8DF80430 		strb	r3, [sp, #4]
1396:Drivers/lsm303agr/Src/lsm303agr_reg.c ****                               (uint8_t *)&cfg_reg_a_m, 1);
 3167              		.loc 1 1396 5 is_stmt 1 view .LVU803
1396:Drivers/lsm303agr/Src/lsm303agr_reg.c ****                               (uint8_t *)&cfg_reg_a_m, 1);
 3168              		.loc 1 1396 11 is_stmt 0 view .LVU804
 3169 0024 0123     		movs	r3, #1
 3170              	.LVL195:
1396:Drivers/lsm303agr/Src/lsm303agr_reg.c ****                               (uint8_t *)&cfg_reg_a_m, 1);
 3171              		.loc 1 1396 11 view .LVU805
 3172 0026 01AA     		add	r2, sp, #4
 3173 0028 6021     		movs	r1, #96
 3174 002a 2046     		mov	r0, r4
 3175 002c FFF7FEFF 		bl	lsm303agr_write_reg
 3176              	.LVL196:
1400:Drivers/lsm303agr/Src/lsm303agr_reg.c **** }
 3177              		.loc 1 1400 3 is_stmt 1 view .LVU806
1400:Drivers/lsm303agr/Src/lsm303agr_reg.c **** }
 3178              		.loc 1 1400 10 is_stmt 0 view .LVU807
 3179 0030 F0E7     		b	.L198
 3180              		.cfi_endproc
 3181              	.LFE185:
 3183              		.section	.text.lsm303agr_mag_data_rate_get,"ax",%progbits
 3184              		.align	1
ARM GAS  C:\Users\SF\AppData\Local\Temp\ccFGOSN0.s 			page 83


 3185              		.global	lsm303agr_mag_data_rate_get
 3186              		.syntax unified
 3187              		.thumb
 3188              		.thumb_func
 3190              	lsm303agr_mag_data_rate_get:
 3191              	.LVL197:
 3192              	.LFB186:
1402:Drivers/lsm303agr/Src/lsm303agr_reg.c **** 
1403:Drivers/lsm303agr/Src/lsm303agr_reg.c **** /**
1404:Drivers/lsm303agr/Src/lsm303agr_reg.c ****   * @brief  Output data rate selection.[get]
1405:Drivers/lsm303agr/Src/lsm303agr_reg.c ****   *
1406:Drivers/lsm303agr/Src/lsm303agr_reg.c ****   * @param  ctx    Read / write interface definitions.(ptr)
1407:Drivers/lsm303agr/Src/lsm303agr_reg.c ****   * @param  val    Get the values of odr in reg CFG_REG_A_M.(ptr)
1408:Drivers/lsm303agr/Src/lsm303agr_reg.c ****   * @retval        Interface status (MANDATORY: return 0 -> no Error).
1409:Drivers/lsm303agr/Src/lsm303agr_reg.c ****   *
1410:Drivers/lsm303agr/Src/lsm303agr_reg.c ****   */
1411:Drivers/lsm303agr/Src/lsm303agr_reg.c **** int32_t lsm303agr_mag_data_rate_get(stmdev_ctx_t *ctx,
1412:Drivers/lsm303agr/Src/lsm303agr_reg.c ****                                     lsm303agr_mg_odr_m_t *val)
1413:Drivers/lsm303agr/Src/lsm303agr_reg.c **** {
 3193              		.loc 1 1413 1 is_stmt 1 view -0
 3194              		.cfi_startproc
 3195              		@ args = 0, pretend = 0, frame = 8
 3196              		@ frame_needed = 0, uses_anonymous_args = 0
 3197              		.loc 1 1413 1 is_stmt 0 view .LVU809
 3198 0000 10B5     		push	{r4, lr}
 3199              	.LCFI112:
 3200              		.cfi_def_cfa_offset 8
 3201              		.cfi_offset 4, -8
 3202              		.cfi_offset 14, -4
 3203 0002 82B0     		sub	sp, sp, #8
 3204              	.LCFI113:
 3205              		.cfi_def_cfa_offset 16
 3206 0004 0C46     		mov	r4, r1
1414:Drivers/lsm303agr/Src/lsm303agr_reg.c ****   lsm303agr_cfg_reg_a_m_t cfg_reg_a_m;
 3207              		.loc 1 1414 3 is_stmt 1 view .LVU810
1415:Drivers/lsm303agr/Src/lsm303agr_reg.c ****   int32_t ret;
 3208              		.loc 1 1415 3 view .LVU811
1416:Drivers/lsm303agr/Src/lsm303agr_reg.c **** 
1417:Drivers/lsm303agr/Src/lsm303agr_reg.c ****   ret = lsm303agr_read_reg(ctx, LSM303AGR_CFG_REG_A_M,
 3209              		.loc 1 1417 3 view .LVU812
 3210              		.loc 1 1417 9 is_stmt 0 view .LVU813
 3211 0006 0123     		movs	r3, #1
 3212 0008 01AA     		add	r2, sp, #4
 3213 000a 6021     		movs	r1, #96
 3214              	.LVL198:
 3215              		.loc 1 1417 9 view .LVU814
 3216 000c FFF7FEFF 		bl	lsm303agr_read_reg
 3217              	.LVL199:
1418:Drivers/lsm303agr/Src/lsm303agr_reg.c ****                            (uint8_t *)&cfg_reg_a_m, 1);
1419:Drivers/lsm303agr/Src/lsm303agr_reg.c **** 
1420:Drivers/lsm303agr/Src/lsm303agr_reg.c ****   switch (cfg_reg_a_m.odr)
 3218              		.loc 1 1420 3 is_stmt 1 view .LVU815
 3219              		.loc 1 1420 22 is_stmt 0 view .LVU816
 3220 0010 9DF80430 		ldrb	r3, [sp, #4]	@ zero_extendqisi2
 3221 0014 C3F38103 		ubfx	r3, r3, #2, #2
 3222              		.loc 1 1420 3 view .LVU817
 3223 0018 032B     		cmp	r3, #3
ARM GAS  C:\Users\SF\AppData\Local\Temp\ccFGOSN0.s 			page 84


 3224 001a 10D8     		bhi	.L203
 3225 001c DFE803F0 		tbb	[pc, r3]
 3226              	.L205:
 3227 0020 02       		.byte	(.L208-.L205)/2
 3228 0021 06       		.byte	(.L207-.L205)/2
 3229 0022 09       		.byte	(.L206-.L205)/2
 3230 0023 0C       		.byte	(.L204-.L205)/2
 3231              		.p2align 1
 3232              	.L208:
1421:Drivers/lsm303agr/Src/lsm303agr_reg.c ****   {
1422:Drivers/lsm303agr/Src/lsm303agr_reg.c ****     case LSM303AGR_MG_ODR_10Hz:
1423:Drivers/lsm303agr/Src/lsm303agr_reg.c ****       *val = LSM303AGR_MG_ODR_10Hz;
 3233              		.loc 1 1423 7 is_stmt 1 view .LVU818
 3234              		.loc 1 1423 12 is_stmt 0 view .LVU819
 3235 0024 0023     		movs	r3, #0
 3236 0026 2370     		strb	r3, [r4]
1424:Drivers/lsm303agr/Src/lsm303agr_reg.c ****       break;
 3237              		.loc 1 1424 7 is_stmt 1 view .LVU820
 3238              	.L202:
1425:Drivers/lsm303agr/Src/lsm303agr_reg.c **** 
1426:Drivers/lsm303agr/Src/lsm303agr_reg.c ****     case LSM303AGR_MG_ODR_20Hz:
1427:Drivers/lsm303agr/Src/lsm303agr_reg.c ****       *val = LSM303AGR_MG_ODR_20Hz;
1428:Drivers/lsm303agr/Src/lsm303agr_reg.c ****       break;
1429:Drivers/lsm303agr/Src/lsm303agr_reg.c **** 
1430:Drivers/lsm303agr/Src/lsm303agr_reg.c ****     case LSM303AGR_MG_ODR_50Hz:
1431:Drivers/lsm303agr/Src/lsm303agr_reg.c ****       *val = LSM303AGR_MG_ODR_50Hz;
1432:Drivers/lsm303agr/Src/lsm303agr_reg.c ****       break;
1433:Drivers/lsm303agr/Src/lsm303agr_reg.c **** 
1434:Drivers/lsm303agr/Src/lsm303agr_reg.c ****     case LSM303AGR_MG_ODR_100Hz:
1435:Drivers/lsm303agr/Src/lsm303agr_reg.c ****       *val = LSM303AGR_MG_ODR_100Hz;
1436:Drivers/lsm303agr/Src/lsm303agr_reg.c ****       break;
1437:Drivers/lsm303agr/Src/lsm303agr_reg.c **** 
1438:Drivers/lsm303agr/Src/lsm303agr_reg.c ****     default:
1439:Drivers/lsm303agr/Src/lsm303agr_reg.c ****       *val = LSM303AGR_MG_ODR_10Hz;
1440:Drivers/lsm303agr/Src/lsm303agr_reg.c ****       break;
1441:Drivers/lsm303agr/Src/lsm303agr_reg.c ****   }
1442:Drivers/lsm303agr/Src/lsm303agr_reg.c **** 
1443:Drivers/lsm303agr/Src/lsm303agr_reg.c ****   return ret;
1444:Drivers/lsm303agr/Src/lsm303agr_reg.c **** }
 3239              		.loc 1 1444 1 is_stmt 0 view .LVU821
 3240 0028 02B0     		add	sp, sp, #8
 3241              	.LCFI114:
 3242              		.cfi_remember_state
 3243              		.cfi_def_cfa_offset 8
 3244              		@ sp needed
 3245 002a 10BD     		pop	{r4, pc}
 3246              	.LVL200:
 3247              	.L207:
 3248              	.LCFI115:
 3249              		.cfi_restore_state
1427:Drivers/lsm303agr/Src/lsm303agr_reg.c ****       break;
 3250              		.loc 1 1427 7 is_stmt 1 view .LVU822
1427:Drivers/lsm303agr/Src/lsm303agr_reg.c ****       break;
 3251              		.loc 1 1427 12 is_stmt 0 view .LVU823
 3252 002c 0123     		movs	r3, #1
 3253 002e 2370     		strb	r3, [r4]
1428:Drivers/lsm303agr/Src/lsm303agr_reg.c **** 
ARM GAS  C:\Users\SF\AppData\Local\Temp\ccFGOSN0.s 			page 85


 3254              		.loc 1 1428 7 is_stmt 1 view .LVU824
 3255 0030 FAE7     		b	.L202
 3256              	.L206:
1431:Drivers/lsm303agr/Src/lsm303agr_reg.c ****       break;
 3257              		.loc 1 1431 7 view .LVU825
1431:Drivers/lsm303agr/Src/lsm303agr_reg.c ****       break;
 3258              		.loc 1 1431 12 is_stmt 0 view .LVU826
 3259 0032 0223     		movs	r3, #2
 3260 0034 2370     		strb	r3, [r4]
1432:Drivers/lsm303agr/Src/lsm303agr_reg.c **** 
 3261              		.loc 1 1432 7 is_stmt 1 view .LVU827
 3262 0036 F7E7     		b	.L202
 3263              	.L204:
1435:Drivers/lsm303agr/Src/lsm303agr_reg.c ****       break;
 3264              		.loc 1 1435 7 view .LVU828
1435:Drivers/lsm303agr/Src/lsm303agr_reg.c ****       break;
 3265              		.loc 1 1435 12 is_stmt 0 view .LVU829
 3266 0038 0323     		movs	r3, #3
 3267 003a 2370     		strb	r3, [r4]
1436:Drivers/lsm303agr/Src/lsm303agr_reg.c **** 
 3268              		.loc 1 1436 7 is_stmt 1 view .LVU830
 3269 003c F4E7     		b	.L202
 3270              	.L203:
1439:Drivers/lsm303agr/Src/lsm303agr_reg.c ****       break;
 3271              		.loc 1 1439 7 view .LVU831
1439:Drivers/lsm303agr/Src/lsm303agr_reg.c ****       break;
 3272              		.loc 1 1439 12 is_stmt 0 view .LVU832
 3273 003e 0023     		movs	r3, #0
 3274 0040 2370     		strb	r3, [r4]
1440:Drivers/lsm303agr/Src/lsm303agr_reg.c ****   }
 3275              		.loc 1 1440 7 is_stmt 1 view .LVU833
1443:Drivers/lsm303agr/Src/lsm303agr_reg.c **** }
 3276              		.loc 1 1443 3 view .LVU834
1443:Drivers/lsm303agr/Src/lsm303agr_reg.c **** }
 3277              		.loc 1 1443 10 is_stmt 0 view .LVU835
 3278 0042 F1E7     		b	.L202
 3279              		.cfi_endproc
 3280              	.LFE186:
 3282              		.section	.text.lsm303agr_mag_power_mode_set,"ax",%progbits
 3283              		.align	1
 3284              		.global	lsm303agr_mag_power_mode_set
 3285              		.syntax unified
 3286              		.thumb
 3287              		.thumb_func
 3289              	lsm303agr_mag_power_mode_set:
 3290              	.LVL201:
 3291              	.LFB187:
1445:Drivers/lsm303agr/Src/lsm303agr_reg.c **** 
1446:Drivers/lsm303agr/Src/lsm303agr_reg.c **** /**
1447:Drivers/lsm303agr/Src/lsm303agr_reg.c ****   * @brief  Enables high-resolution/low-power mode.[set]
1448:Drivers/lsm303agr/Src/lsm303agr_reg.c ****   *
1449:Drivers/lsm303agr/Src/lsm303agr_reg.c ****   * @param  ctx    Read / write interface definitions.(ptr)
1450:Drivers/lsm303agr/Src/lsm303agr_reg.c ****   * @param  val    Change the values of lp in reg CFG_REG_A_M
1451:Drivers/lsm303agr/Src/lsm303agr_reg.c ****   * @retval        Interface status (MANDATORY: return 0 -> no Error).
1452:Drivers/lsm303agr/Src/lsm303agr_reg.c ****   *
1453:Drivers/lsm303agr/Src/lsm303agr_reg.c ****   */
1454:Drivers/lsm303agr/Src/lsm303agr_reg.c **** int32_t lsm303agr_mag_power_mode_set(stmdev_ctx_t *ctx,
ARM GAS  C:\Users\SF\AppData\Local\Temp\ccFGOSN0.s 			page 86


1455:Drivers/lsm303agr/Src/lsm303agr_reg.c ****                                      lsm303agr_lp_m_t val)
1456:Drivers/lsm303agr/Src/lsm303agr_reg.c **** {
 3292              		.loc 1 1456 1 is_stmt 1 view -0
 3293              		.cfi_startproc
 3294              		@ args = 0, pretend = 0, frame = 8
 3295              		@ frame_needed = 0, uses_anonymous_args = 0
 3296              		.loc 1 1456 1 is_stmt 0 view .LVU837
 3297 0000 30B5     		push	{r4, r5, lr}
 3298              	.LCFI116:
 3299              		.cfi_def_cfa_offset 12
 3300              		.cfi_offset 4, -12
 3301              		.cfi_offset 5, -8
 3302              		.cfi_offset 14, -4
 3303 0002 83B0     		sub	sp, sp, #12
 3304              	.LCFI117:
 3305              		.cfi_def_cfa_offset 24
 3306 0004 0446     		mov	r4, r0
 3307 0006 0D46     		mov	r5, r1
1457:Drivers/lsm303agr/Src/lsm303agr_reg.c ****   lsm303agr_cfg_reg_a_m_t cfg_reg_a_m;
 3308              		.loc 1 1457 3 is_stmt 1 view .LVU838
1458:Drivers/lsm303agr/Src/lsm303agr_reg.c ****   int32_t ret;
 3309              		.loc 1 1458 3 view .LVU839
1459:Drivers/lsm303agr/Src/lsm303agr_reg.c **** 
1460:Drivers/lsm303agr/Src/lsm303agr_reg.c ****   ret = lsm303agr_read_reg(ctx, LSM303AGR_CFG_REG_A_M,
 3310              		.loc 1 1460 3 view .LVU840
 3311              		.loc 1 1460 9 is_stmt 0 view .LVU841
 3312 0008 0123     		movs	r3, #1
 3313 000a 01AA     		add	r2, sp, #4
 3314 000c 6021     		movs	r1, #96
 3315              	.LVL202:
 3316              		.loc 1 1460 9 view .LVU842
 3317 000e FFF7FEFF 		bl	lsm303agr_read_reg
 3318              	.LVL203:
1461:Drivers/lsm303agr/Src/lsm303agr_reg.c ****                            (uint8_t *)&cfg_reg_a_m, 1);
1462:Drivers/lsm303agr/Src/lsm303agr_reg.c **** 
1463:Drivers/lsm303agr/Src/lsm303agr_reg.c ****   if (ret == 0)
 3319              		.loc 1 1463 3 is_stmt 1 view .LVU843
 3320              		.loc 1 1463 6 is_stmt 0 view .LVU844
 3321 0012 08B1     		cbz	r0, .L214
 3322              	.LVL204:
 3323              	.L211:
1464:Drivers/lsm303agr/Src/lsm303agr_reg.c ****   {
1465:Drivers/lsm303agr/Src/lsm303agr_reg.c ****     cfg_reg_a_m.lp = (uint8_t)val;
1466:Drivers/lsm303agr/Src/lsm303agr_reg.c ****     ret = lsm303agr_write_reg(ctx, LSM303AGR_CFG_REG_A_M,
1467:Drivers/lsm303agr/Src/lsm303agr_reg.c ****                               (uint8_t *)&cfg_reg_a_m, 1);
1468:Drivers/lsm303agr/Src/lsm303agr_reg.c ****   }
1469:Drivers/lsm303agr/Src/lsm303agr_reg.c **** 
1470:Drivers/lsm303agr/Src/lsm303agr_reg.c ****   return ret;
1471:Drivers/lsm303agr/Src/lsm303agr_reg.c **** }
 3324              		.loc 1 1471 1 view .LVU845
 3325 0014 03B0     		add	sp, sp, #12
 3326              	.LCFI118:
 3327              		.cfi_remember_state
 3328              		.cfi_def_cfa_offset 12
 3329              		@ sp needed
 3330 0016 30BD     		pop	{r4, r5, pc}
 3331              	.LVL205:
ARM GAS  C:\Users\SF\AppData\Local\Temp\ccFGOSN0.s 			page 87


 3332              	.L214:
 3333              	.LCFI119:
 3334              		.cfi_restore_state
1465:Drivers/lsm303agr/Src/lsm303agr_reg.c ****     ret = lsm303agr_write_reg(ctx, LSM303AGR_CFG_REG_A_M,
 3335              		.loc 1 1465 5 is_stmt 1 view .LVU846
1465:Drivers/lsm303agr/Src/lsm303agr_reg.c ****     ret = lsm303agr_write_reg(ctx, LSM303AGR_CFG_REG_A_M,
 3336              		.loc 1 1465 20 is_stmt 0 view .LVU847
 3337 0018 9DF80430 		ldrb	r3, [sp, #4]	@ zero_extendqisi2
 3338 001c 65F30413 		bfi	r3, r5, #4, #1
 3339 0020 8DF80430 		strb	r3, [sp, #4]
1466:Drivers/lsm303agr/Src/lsm303agr_reg.c ****                               (uint8_t *)&cfg_reg_a_m, 1);
 3340              		.loc 1 1466 5 is_stmt 1 view .LVU848
1466:Drivers/lsm303agr/Src/lsm303agr_reg.c ****                               (uint8_t *)&cfg_reg_a_m, 1);
 3341              		.loc 1 1466 11 is_stmt 0 view .LVU849
 3342 0024 0123     		movs	r3, #1
 3343              	.LVL206:
1466:Drivers/lsm303agr/Src/lsm303agr_reg.c ****                               (uint8_t *)&cfg_reg_a_m, 1);
 3344              		.loc 1 1466 11 view .LVU850
 3345 0026 01AA     		add	r2, sp, #4
 3346 0028 6021     		movs	r1, #96
 3347 002a 2046     		mov	r0, r4
 3348 002c FFF7FEFF 		bl	lsm303agr_write_reg
 3349              	.LVL207:
1470:Drivers/lsm303agr/Src/lsm303agr_reg.c **** }
 3350              		.loc 1 1470 3 is_stmt 1 view .LVU851
1470:Drivers/lsm303agr/Src/lsm303agr_reg.c **** }
 3351              		.loc 1 1470 10 is_stmt 0 view .LVU852
 3352 0030 F0E7     		b	.L211
 3353              		.cfi_endproc
 3354              	.LFE187:
 3356              		.section	.text.lsm303agr_mag_power_mode_get,"ax",%progbits
 3357              		.align	1
 3358              		.global	lsm303agr_mag_power_mode_get
 3359              		.syntax unified
 3360              		.thumb
 3361              		.thumb_func
 3363              	lsm303agr_mag_power_mode_get:
 3364              	.LVL208:
 3365              	.LFB188:
1472:Drivers/lsm303agr/Src/lsm303agr_reg.c **** 
1473:Drivers/lsm303agr/Src/lsm303agr_reg.c **** /**
1474:Drivers/lsm303agr/Src/lsm303agr_reg.c ****   * @brief  Enables high-resolution/low-power mode.[get]
1475:Drivers/lsm303agr/Src/lsm303agr_reg.c ****   *
1476:Drivers/lsm303agr/Src/lsm303agr_reg.c ****   * @param  ctx    Read / write interface definitions.(ptr)
1477:Drivers/lsm303agr/Src/lsm303agr_reg.c ****   * @param  val    Get the values of lp in reg CFG_REG_A_M.(ptr)
1478:Drivers/lsm303agr/Src/lsm303agr_reg.c ****   * @retval        Interface status (MANDATORY: return 0 -> no Error).
1479:Drivers/lsm303agr/Src/lsm303agr_reg.c ****   *
1480:Drivers/lsm303agr/Src/lsm303agr_reg.c ****   */
1481:Drivers/lsm303agr/Src/lsm303agr_reg.c **** int32_t lsm303agr_mag_power_mode_get(stmdev_ctx_t *ctx,
1482:Drivers/lsm303agr/Src/lsm303agr_reg.c ****                                      lsm303agr_lp_m_t *val)
1483:Drivers/lsm303agr/Src/lsm303agr_reg.c **** {
 3366              		.loc 1 1483 1 is_stmt 1 view -0
 3367              		.cfi_startproc
 3368              		@ args = 0, pretend = 0, frame = 8
 3369              		@ frame_needed = 0, uses_anonymous_args = 0
 3370              		.loc 1 1483 1 is_stmt 0 view .LVU854
 3371 0000 10B5     		push	{r4, lr}
ARM GAS  C:\Users\SF\AppData\Local\Temp\ccFGOSN0.s 			page 88


 3372              	.LCFI120:
 3373              		.cfi_def_cfa_offset 8
 3374              		.cfi_offset 4, -8
 3375              		.cfi_offset 14, -4
 3376 0002 82B0     		sub	sp, sp, #8
 3377              	.LCFI121:
 3378              		.cfi_def_cfa_offset 16
 3379 0004 0C46     		mov	r4, r1
1484:Drivers/lsm303agr/Src/lsm303agr_reg.c ****   lsm303agr_cfg_reg_a_m_t cfg_reg_a_m;
 3380              		.loc 1 1484 3 is_stmt 1 view .LVU855
1485:Drivers/lsm303agr/Src/lsm303agr_reg.c ****   int32_t ret;
 3381              		.loc 1 1485 3 view .LVU856
1486:Drivers/lsm303agr/Src/lsm303agr_reg.c **** 
1487:Drivers/lsm303agr/Src/lsm303agr_reg.c ****   ret = lsm303agr_read_reg(ctx, LSM303AGR_CFG_REG_A_M,
 3382              		.loc 1 1487 3 view .LVU857
 3383              		.loc 1 1487 9 is_stmt 0 view .LVU858
 3384 0006 0123     		movs	r3, #1
 3385 0008 01AA     		add	r2, sp, #4
 3386 000a 6021     		movs	r1, #96
 3387              	.LVL209:
 3388              		.loc 1 1487 9 view .LVU859
 3389 000c FFF7FEFF 		bl	lsm303agr_read_reg
 3390              	.LVL210:
1488:Drivers/lsm303agr/Src/lsm303agr_reg.c ****                            (uint8_t *)&cfg_reg_a_m, 1);
1489:Drivers/lsm303agr/Src/lsm303agr_reg.c **** 
1490:Drivers/lsm303agr/Src/lsm303agr_reg.c ****   switch (cfg_reg_a_m.lp)
 3391              		.loc 1 1490 3 is_stmt 1 view .LVU860
 3392              		.loc 1 1490 22 is_stmt 0 view .LVU861
 3393 0010 9DF80430 		ldrb	r3, [sp, #4]	@ zero_extendqisi2
 3394 0014 C3F30012 		ubfx	r2, r3, #4, #1
 3395              		.loc 1 1490 3 view .LVU862
 3396 0018 13F0100F 		tst	r3, #16
 3397 001c 03D0     		beq	.L216
 3398 001e 32B9     		cbnz	r2, .L217
1491:Drivers/lsm303agr/Src/lsm303agr_reg.c ****   {
1492:Drivers/lsm303agr/Src/lsm303agr_reg.c ****     case LSM303AGR_HIGH_RESOLUTION:
1493:Drivers/lsm303agr/Src/lsm303agr_reg.c ****       *val = LSM303AGR_HIGH_RESOLUTION;
1494:Drivers/lsm303agr/Src/lsm303agr_reg.c ****       break;
1495:Drivers/lsm303agr/Src/lsm303agr_reg.c **** 
1496:Drivers/lsm303agr/Src/lsm303agr_reg.c ****     case LSM303AGR_LOW_POWER:
1497:Drivers/lsm303agr/Src/lsm303agr_reg.c ****       *val = LSM303AGR_LOW_POWER;
1498:Drivers/lsm303agr/Src/lsm303agr_reg.c ****       break;
1499:Drivers/lsm303agr/Src/lsm303agr_reg.c **** 
1500:Drivers/lsm303agr/Src/lsm303agr_reg.c ****     default:
1501:Drivers/lsm303agr/Src/lsm303agr_reg.c ****       *val = LSM303AGR_HIGH_RESOLUTION;
 3399              		.loc 1 1501 7 is_stmt 1 view .LVU863
 3400              		.loc 1 1501 12 is_stmt 0 view .LVU864
 3401 0020 0023     		movs	r3, #0
 3402 0022 2370     		strb	r3, [r4]
1502:Drivers/lsm303agr/Src/lsm303agr_reg.c ****       break;
 3403              		.loc 1 1502 7 is_stmt 1 view .LVU865
1503:Drivers/lsm303agr/Src/lsm303agr_reg.c ****   }
1504:Drivers/lsm303agr/Src/lsm303agr_reg.c **** 
1505:Drivers/lsm303agr/Src/lsm303agr_reg.c ****   return ret;
 3404              		.loc 1 1505 3 view .LVU866
 3405              		.loc 1 1505 10 is_stmt 0 view .LVU867
 3406 0024 01E0     		b	.L215
ARM GAS  C:\Users\SF\AppData\Local\Temp\ccFGOSN0.s 			page 89


 3407              	.L216:
1493:Drivers/lsm303agr/Src/lsm303agr_reg.c ****       break;
 3408              		.loc 1 1493 7 is_stmt 1 view .LVU868
1493:Drivers/lsm303agr/Src/lsm303agr_reg.c ****       break;
 3409              		.loc 1 1493 12 is_stmt 0 view .LVU869
 3410 0026 0023     		movs	r3, #0
 3411 0028 2370     		strb	r3, [r4]
1494:Drivers/lsm303agr/Src/lsm303agr_reg.c **** 
 3412              		.loc 1 1494 7 is_stmt 1 view .LVU870
 3413              	.L215:
1506:Drivers/lsm303agr/Src/lsm303agr_reg.c **** }
 3414              		.loc 1 1506 1 is_stmt 0 view .LVU871
 3415 002a 02B0     		add	sp, sp, #8
 3416              	.LCFI122:
 3417              		.cfi_remember_state
 3418              		.cfi_def_cfa_offset 8
 3419              		@ sp needed
 3420 002c 10BD     		pop	{r4, pc}
 3421              	.LVL211:
 3422              	.L217:
 3423              	.LCFI123:
 3424              		.cfi_restore_state
1497:Drivers/lsm303agr/Src/lsm303agr_reg.c ****       break;
 3425              		.loc 1 1497 7 is_stmt 1 view .LVU872
1497:Drivers/lsm303agr/Src/lsm303agr_reg.c ****       break;
 3426              		.loc 1 1497 12 is_stmt 0 view .LVU873
 3427 002e 0123     		movs	r3, #1
 3428 0030 2370     		strb	r3, [r4]
1498:Drivers/lsm303agr/Src/lsm303agr_reg.c **** 
 3429              		.loc 1 1498 7 is_stmt 1 view .LVU874
 3430 0032 FAE7     		b	.L215
 3431              		.cfi_endproc
 3432              	.LFE188:
 3434              		.section	.text.lsm303agr_mag_offset_temp_comp_set,"ax",%progbits
 3435              		.align	1
 3436              		.global	lsm303agr_mag_offset_temp_comp_set
 3437              		.syntax unified
 3438              		.thumb
 3439              		.thumb_func
 3441              	lsm303agr_mag_offset_temp_comp_set:
 3442              	.LVL212:
 3443              	.LFB189:
1507:Drivers/lsm303agr/Src/lsm303agr_reg.c **** 
1508:Drivers/lsm303agr/Src/lsm303agr_reg.c **** /**
1509:Drivers/lsm303agr/Src/lsm303agr_reg.c ****   * @brief  Enables the magnetometer temperature compensation.[set]
1510:Drivers/lsm303agr/Src/lsm303agr_reg.c ****   *
1511:Drivers/lsm303agr/Src/lsm303agr_reg.c ****   * @param  ctx    Read / write interface definitions.(ptr)
1512:Drivers/lsm303agr/Src/lsm303agr_reg.c ****   * @param  val    Change the values of comp_temp_en in reg CFG_REG_A_M
1513:Drivers/lsm303agr/Src/lsm303agr_reg.c ****   * @retval        Interface status (MANDATORY: return 0 -> no Error).
1514:Drivers/lsm303agr/Src/lsm303agr_reg.c ****   *
1515:Drivers/lsm303agr/Src/lsm303agr_reg.c ****   */
1516:Drivers/lsm303agr/Src/lsm303agr_reg.c **** int32_t lsm303agr_mag_offset_temp_comp_set(stmdev_ctx_t *ctx,
1517:Drivers/lsm303agr/Src/lsm303agr_reg.c ****                                            uint8_t val)
1518:Drivers/lsm303agr/Src/lsm303agr_reg.c **** {
 3444              		.loc 1 1518 1 view -0
 3445              		.cfi_startproc
 3446              		@ args = 0, pretend = 0, frame = 8
ARM GAS  C:\Users\SF\AppData\Local\Temp\ccFGOSN0.s 			page 90


 3447              		@ frame_needed = 0, uses_anonymous_args = 0
 3448              		.loc 1 1518 1 is_stmt 0 view .LVU876
 3449 0000 30B5     		push	{r4, r5, lr}
 3450              	.LCFI124:
 3451              		.cfi_def_cfa_offset 12
 3452              		.cfi_offset 4, -12
 3453              		.cfi_offset 5, -8
 3454              		.cfi_offset 14, -4
 3455 0002 83B0     		sub	sp, sp, #12
 3456              	.LCFI125:
 3457              		.cfi_def_cfa_offset 24
 3458 0004 0446     		mov	r4, r0
 3459 0006 0D46     		mov	r5, r1
1519:Drivers/lsm303agr/Src/lsm303agr_reg.c ****   lsm303agr_cfg_reg_a_m_t cfg_reg_a_m;
 3460              		.loc 1 1519 3 is_stmt 1 view .LVU877
1520:Drivers/lsm303agr/Src/lsm303agr_reg.c ****   int32_t ret;
 3461              		.loc 1 1520 3 view .LVU878
1521:Drivers/lsm303agr/Src/lsm303agr_reg.c **** 
1522:Drivers/lsm303agr/Src/lsm303agr_reg.c ****   ret = lsm303agr_read_reg(ctx, LSM303AGR_CFG_REG_A_M,
 3462              		.loc 1 1522 3 view .LVU879
 3463              		.loc 1 1522 9 is_stmt 0 view .LVU880
 3464 0008 0123     		movs	r3, #1
 3465 000a 01AA     		add	r2, sp, #4
 3466 000c 6021     		movs	r1, #96
 3467              	.LVL213:
 3468              		.loc 1 1522 9 view .LVU881
 3469 000e FFF7FEFF 		bl	lsm303agr_read_reg
 3470              	.LVL214:
1523:Drivers/lsm303agr/Src/lsm303agr_reg.c ****                            (uint8_t *)&cfg_reg_a_m, 1);
1524:Drivers/lsm303agr/Src/lsm303agr_reg.c **** 
1525:Drivers/lsm303agr/Src/lsm303agr_reg.c ****   if (ret == 0)
 3471              		.loc 1 1525 3 is_stmt 1 view .LVU882
 3472              		.loc 1 1525 6 is_stmt 0 view .LVU883
 3473 0012 08B1     		cbz	r0, .L225
 3474              	.LVL215:
 3475              	.L222:
1526:Drivers/lsm303agr/Src/lsm303agr_reg.c ****   {
1527:Drivers/lsm303agr/Src/lsm303agr_reg.c ****     cfg_reg_a_m.comp_temp_en = (uint8_t)val;
1528:Drivers/lsm303agr/Src/lsm303agr_reg.c ****     ret = lsm303agr_write_reg(ctx, LSM303AGR_CFG_REG_A_M,
1529:Drivers/lsm303agr/Src/lsm303agr_reg.c ****                               (uint8_t *)&cfg_reg_a_m, 1);
1530:Drivers/lsm303agr/Src/lsm303agr_reg.c ****   }
1531:Drivers/lsm303agr/Src/lsm303agr_reg.c **** 
1532:Drivers/lsm303agr/Src/lsm303agr_reg.c ****   return ret;
1533:Drivers/lsm303agr/Src/lsm303agr_reg.c **** }
 3476              		.loc 1 1533 1 view .LVU884
 3477 0014 03B0     		add	sp, sp, #12
 3478              	.LCFI126:
 3479              		.cfi_remember_state
 3480              		.cfi_def_cfa_offset 12
 3481              		@ sp needed
 3482 0016 30BD     		pop	{r4, r5, pc}
 3483              	.LVL216:
 3484              	.L225:
 3485              	.LCFI127:
 3486              		.cfi_restore_state
1527:Drivers/lsm303agr/Src/lsm303agr_reg.c ****     ret = lsm303agr_write_reg(ctx, LSM303AGR_CFG_REG_A_M,
 3487              		.loc 1 1527 5 is_stmt 1 view .LVU885
ARM GAS  C:\Users\SF\AppData\Local\Temp\ccFGOSN0.s 			page 91


1527:Drivers/lsm303agr/Src/lsm303agr_reg.c ****     ret = lsm303agr_write_reg(ctx, LSM303AGR_CFG_REG_A_M,
 3488              		.loc 1 1527 30 is_stmt 0 view .LVU886
 3489 0018 9DF80430 		ldrb	r3, [sp, #4]	@ zero_extendqisi2
 3490 001c 65F3C713 		bfi	r3, r5, #7, #1
 3491 0020 8DF80430 		strb	r3, [sp, #4]
1528:Drivers/lsm303agr/Src/lsm303agr_reg.c ****                               (uint8_t *)&cfg_reg_a_m, 1);
 3492              		.loc 1 1528 5 is_stmt 1 view .LVU887
1528:Drivers/lsm303agr/Src/lsm303agr_reg.c ****                               (uint8_t *)&cfg_reg_a_m, 1);
 3493              		.loc 1 1528 11 is_stmt 0 view .LVU888
 3494 0024 0123     		movs	r3, #1
 3495              	.LVL217:
1528:Drivers/lsm303agr/Src/lsm303agr_reg.c ****                               (uint8_t *)&cfg_reg_a_m, 1);
 3496              		.loc 1 1528 11 view .LVU889
 3497 0026 01AA     		add	r2, sp, #4
 3498 0028 6021     		movs	r1, #96
 3499 002a 2046     		mov	r0, r4
 3500 002c FFF7FEFF 		bl	lsm303agr_write_reg
 3501              	.LVL218:
1532:Drivers/lsm303agr/Src/lsm303agr_reg.c **** }
 3502              		.loc 1 1532 3 is_stmt 1 view .LVU890
1532:Drivers/lsm303agr/Src/lsm303agr_reg.c **** }
 3503              		.loc 1 1532 10 is_stmt 0 view .LVU891
 3504 0030 F0E7     		b	.L222
 3505              		.cfi_endproc
 3506              	.LFE189:
 3508              		.section	.text.lsm303agr_mag_offset_temp_comp_get,"ax",%progbits
 3509              		.align	1
 3510              		.global	lsm303agr_mag_offset_temp_comp_get
 3511              		.syntax unified
 3512              		.thumb
 3513              		.thumb_func
 3515              	lsm303agr_mag_offset_temp_comp_get:
 3516              	.LVL219:
 3517              	.LFB190:
1534:Drivers/lsm303agr/Src/lsm303agr_reg.c **** 
1535:Drivers/lsm303agr/Src/lsm303agr_reg.c **** /**
1536:Drivers/lsm303agr/Src/lsm303agr_reg.c ****   * @brief  Enables the magnetometer temperature compensation.[get]
1537:Drivers/lsm303agr/Src/lsm303agr_reg.c ****   *
1538:Drivers/lsm303agr/Src/lsm303agr_reg.c ****   * @param  ctx    Read / write interface definitions.(ptr)
1539:Drivers/lsm303agr/Src/lsm303agr_reg.c ****   * @param  val    Get the values of comp_temp_en in reg CFG_REG_A_M.(ptr)
1540:Drivers/lsm303agr/Src/lsm303agr_reg.c ****   * @retval        Interface status (MANDATORY: return 0 -> no Error).
1541:Drivers/lsm303agr/Src/lsm303agr_reg.c ****   *
1542:Drivers/lsm303agr/Src/lsm303agr_reg.c ****   */
1543:Drivers/lsm303agr/Src/lsm303agr_reg.c **** int32_t lsm303agr_mag_offset_temp_comp_get(stmdev_ctx_t *ctx,
1544:Drivers/lsm303agr/Src/lsm303agr_reg.c ****                                            uint8_t *val)
1545:Drivers/lsm303agr/Src/lsm303agr_reg.c **** {
 3518              		.loc 1 1545 1 is_stmt 1 view -0
 3519              		.cfi_startproc
 3520              		@ args = 0, pretend = 0, frame = 8
 3521              		@ frame_needed = 0, uses_anonymous_args = 0
 3522              		.loc 1 1545 1 is_stmt 0 view .LVU893
 3523 0000 10B5     		push	{r4, lr}
 3524              	.LCFI128:
 3525              		.cfi_def_cfa_offset 8
 3526              		.cfi_offset 4, -8
 3527              		.cfi_offset 14, -4
 3528 0002 82B0     		sub	sp, sp, #8
ARM GAS  C:\Users\SF\AppData\Local\Temp\ccFGOSN0.s 			page 92


 3529              	.LCFI129:
 3530              		.cfi_def_cfa_offset 16
 3531 0004 0C46     		mov	r4, r1
1546:Drivers/lsm303agr/Src/lsm303agr_reg.c ****   lsm303agr_cfg_reg_a_m_t cfg_reg_a_m;
 3532              		.loc 1 1546 3 is_stmt 1 view .LVU894
1547:Drivers/lsm303agr/Src/lsm303agr_reg.c ****   int32_t ret;
 3533              		.loc 1 1547 3 view .LVU895
1548:Drivers/lsm303agr/Src/lsm303agr_reg.c **** 
1549:Drivers/lsm303agr/Src/lsm303agr_reg.c ****   ret = lsm303agr_read_reg(ctx, LSM303AGR_CFG_REG_A_M,
 3534              		.loc 1 1549 3 view .LVU896
 3535              		.loc 1 1549 9 is_stmt 0 view .LVU897
 3536 0006 0123     		movs	r3, #1
 3537 0008 01AA     		add	r2, sp, #4
 3538 000a 6021     		movs	r1, #96
 3539              	.LVL220:
 3540              		.loc 1 1549 9 view .LVU898
 3541 000c FFF7FEFF 		bl	lsm303agr_read_reg
 3542              	.LVL221:
1550:Drivers/lsm303agr/Src/lsm303agr_reg.c ****                            (uint8_t *)&cfg_reg_a_m, 1);
1551:Drivers/lsm303agr/Src/lsm303agr_reg.c ****   *val = cfg_reg_a_m.comp_temp_en;
 3543              		.loc 1 1551 3 is_stmt 1 view .LVU899
 3544              		.loc 1 1551 21 is_stmt 0 view .LVU900
 3545 0010 9DF80430 		ldrb	r3, [sp, #4]	@ zero_extendqisi2
 3546 0014 C3F3C013 		ubfx	r3, r3, #7, #1
 3547              		.loc 1 1551 8 view .LVU901
 3548 0018 2370     		strb	r3, [r4]
1552:Drivers/lsm303agr/Src/lsm303agr_reg.c **** 
1553:Drivers/lsm303agr/Src/lsm303agr_reg.c ****   return ret;
 3549              		.loc 1 1553 3 is_stmt 1 view .LVU902
1554:Drivers/lsm303agr/Src/lsm303agr_reg.c **** }
 3550              		.loc 1 1554 1 is_stmt 0 view .LVU903
 3551 001a 02B0     		add	sp, sp, #8
 3552              	.LCFI130:
 3553              		.cfi_def_cfa_offset 8
 3554              		@ sp needed
 3555 001c 10BD     		pop	{r4, pc}
 3556              		.loc 1 1554 1 view .LVU904
 3557              		.cfi_endproc
 3558              	.LFE190:
 3560              		.section	.text.lsm303agr_mag_low_pass_bandwidth_set,"ax",%progbits
 3561              		.align	1
 3562              		.global	lsm303agr_mag_low_pass_bandwidth_set
 3563              		.syntax unified
 3564              		.thumb
 3565              		.thumb_func
 3567              	lsm303agr_mag_low_pass_bandwidth_set:
 3568              	.LVL222:
 3569              	.LFB191:
1555:Drivers/lsm303agr/Src/lsm303agr_reg.c **** 
1556:Drivers/lsm303agr/Src/lsm303agr_reg.c **** /**
1557:Drivers/lsm303agr/Src/lsm303agr_reg.c ****   * @brief  Low-pass bandwidth selection.[set]
1558:Drivers/lsm303agr/Src/lsm303agr_reg.c ****   *
1559:Drivers/lsm303agr/Src/lsm303agr_reg.c ****   * @param  ctx    Read / write interface definitions.(ptr)
1560:Drivers/lsm303agr/Src/lsm303agr_reg.c ****   * @param  val    Change the values of lpf in reg CFG_REG_B_M
1561:Drivers/lsm303agr/Src/lsm303agr_reg.c ****   * @retval        Interface status (MANDATORY: return 0 -> no Error).
1562:Drivers/lsm303agr/Src/lsm303agr_reg.c ****   *
1563:Drivers/lsm303agr/Src/lsm303agr_reg.c ****   */
ARM GAS  C:\Users\SF\AppData\Local\Temp\ccFGOSN0.s 			page 93


1564:Drivers/lsm303agr/Src/lsm303agr_reg.c **** int32_t lsm303agr_mag_low_pass_bandwidth_set(stmdev_ctx_t *ctx,
1565:Drivers/lsm303agr/Src/lsm303agr_reg.c ****                                              lsm303agr_lpf_m_t val)
1566:Drivers/lsm303agr/Src/lsm303agr_reg.c **** {
 3570              		.loc 1 1566 1 is_stmt 1 view -0
 3571              		.cfi_startproc
 3572              		@ args = 0, pretend = 0, frame = 8
 3573              		@ frame_needed = 0, uses_anonymous_args = 0
 3574              		.loc 1 1566 1 is_stmt 0 view .LVU906
 3575 0000 30B5     		push	{r4, r5, lr}
 3576              	.LCFI131:
 3577              		.cfi_def_cfa_offset 12
 3578              		.cfi_offset 4, -12
 3579              		.cfi_offset 5, -8
 3580              		.cfi_offset 14, -4
 3581 0002 83B0     		sub	sp, sp, #12
 3582              	.LCFI132:
 3583              		.cfi_def_cfa_offset 24
 3584 0004 0446     		mov	r4, r0
 3585 0006 0D46     		mov	r5, r1
1567:Drivers/lsm303agr/Src/lsm303agr_reg.c ****   lsm303agr_cfg_reg_b_m_t cfg_reg_b_m;
 3586              		.loc 1 1567 3 is_stmt 1 view .LVU907
1568:Drivers/lsm303agr/Src/lsm303agr_reg.c ****   int32_t ret;
 3587              		.loc 1 1568 3 view .LVU908
1569:Drivers/lsm303agr/Src/lsm303agr_reg.c **** 
1570:Drivers/lsm303agr/Src/lsm303agr_reg.c ****   ret = lsm303agr_read_reg(ctx, LSM303AGR_CFG_REG_B_M,
 3588              		.loc 1 1570 3 view .LVU909
 3589              		.loc 1 1570 9 is_stmt 0 view .LVU910
 3590 0008 0123     		movs	r3, #1
 3591 000a 01AA     		add	r2, sp, #4
 3592 000c 6121     		movs	r1, #97
 3593              	.LVL223:
 3594              		.loc 1 1570 9 view .LVU911
 3595 000e FFF7FEFF 		bl	lsm303agr_read_reg
 3596              	.LVL224:
1571:Drivers/lsm303agr/Src/lsm303agr_reg.c ****                            (uint8_t *)&cfg_reg_b_m, 1);
1572:Drivers/lsm303agr/Src/lsm303agr_reg.c **** 
1573:Drivers/lsm303agr/Src/lsm303agr_reg.c ****   if (ret == 0)
 3597              		.loc 1 1573 3 is_stmt 1 view .LVU912
 3598              		.loc 1 1573 6 is_stmt 0 view .LVU913
 3599 0012 08B1     		cbz	r0, .L231
 3600              	.LVL225:
 3601              	.L228:
1574:Drivers/lsm303agr/Src/lsm303agr_reg.c ****   {
1575:Drivers/lsm303agr/Src/lsm303agr_reg.c ****     cfg_reg_b_m.lpf = (uint8_t)val;
1576:Drivers/lsm303agr/Src/lsm303agr_reg.c ****     ret = lsm303agr_write_reg(ctx, LSM303AGR_CFG_REG_B_M,
1577:Drivers/lsm303agr/Src/lsm303agr_reg.c ****                               (uint8_t *)&cfg_reg_b_m, 1);
1578:Drivers/lsm303agr/Src/lsm303agr_reg.c ****   }
1579:Drivers/lsm303agr/Src/lsm303agr_reg.c **** 
1580:Drivers/lsm303agr/Src/lsm303agr_reg.c ****   return ret;
1581:Drivers/lsm303agr/Src/lsm303agr_reg.c **** }
 3602              		.loc 1 1581 1 view .LVU914
 3603 0014 03B0     		add	sp, sp, #12
 3604              	.LCFI133:
 3605              		.cfi_remember_state
 3606              		.cfi_def_cfa_offset 12
 3607              		@ sp needed
 3608 0016 30BD     		pop	{r4, r5, pc}
ARM GAS  C:\Users\SF\AppData\Local\Temp\ccFGOSN0.s 			page 94


 3609              	.LVL226:
 3610              	.L231:
 3611              	.LCFI134:
 3612              		.cfi_restore_state
1575:Drivers/lsm303agr/Src/lsm303agr_reg.c ****     ret = lsm303agr_write_reg(ctx, LSM303AGR_CFG_REG_B_M,
 3613              		.loc 1 1575 5 is_stmt 1 view .LVU915
1575:Drivers/lsm303agr/Src/lsm303agr_reg.c ****     ret = lsm303agr_write_reg(ctx, LSM303AGR_CFG_REG_B_M,
 3614              		.loc 1 1575 21 is_stmt 0 view .LVU916
 3615 0018 9DF80430 		ldrb	r3, [sp, #4]	@ zero_extendqisi2
 3616 001c 65F30003 		bfi	r3, r5, #0, #1
 3617 0020 8DF80430 		strb	r3, [sp, #4]
1576:Drivers/lsm303agr/Src/lsm303agr_reg.c ****                               (uint8_t *)&cfg_reg_b_m, 1);
 3618              		.loc 1 1576 5 is_stmt 1 view .LVU917
1576:Drivers/lsm303agr/Src/lsm303agr_reg.c ****                               (uint8_t *)&cfg_reg_b_m, 1);
 3619              		.loc 1 1576 11 is_stmt 0 view .LVU918
 3620 0024 0123     		movs	r3, #1
 3621              	.LVL227:
1576:Drivers/lsm303agr/Src/lsm303agr_reg.c ****                               (uint8_t *)&cfg_reg_b_m, 1);
 3622              		.loc 1 1576 11 view .LVU919
 3623 0026 01AA     		add	r2, sp, #4
 3624 0028 6121     		movs	r1, #97
 3625 002a 2046     		mov	r0, r4
 3626 002c FFF7FEFF 		bl	lsm303agr_write_reg
 3627              	.LVL228:
1580:Drivers/lsm303agr/Src/lsm303agr_reg.c **** }
 3628              		.loc 1 1580 3 is_stmt 1 view .LVU920
1580:Drivers/lsm303agr/Src/lsm303agr_reg.c **** }
 3629              		.loc 1 1580 10 is_stmt 0 view .LVU921
 3630 0030 F0E7     		b	.L228
 3631              		.cfi_endproc
 3632              	.LFE191:
 3634              		.section	.text.lsm303agr_mag_low_pass_bandwidth_get,"ax",%progbits
 3635              		.align	1
 3636              		.global	lsm303agr_mag_low_pass_bandwidth_get
 3637              		.syntax unified
 3638              		.thumb
 3639              		.thumb_func
 3641              	lsm303agr_mag_low_pass_bandwidth_get:
 3642              	.LVL229:
 3643              	.LFB192:
1582:Drivers/lsm303agr/Src/lsm303agr_reg.c **** 
1583:Drivers/lsm303agr/Src/lsm303agr_reg.c **** /**
1584:Drivers/lsm303agr/Src/lsm303agr_reg.c ****   * @brief  Low-pass bandwidth selection.[get]
1585:Drivers/lsm303agr/Src/lsm303agr_reg.c ****   *
1586:Drivers/lsm303agr/Src/lsm303agr_reg.c ****   * @param  ctx    Read / write interface definitions.(ptr)
1587:Drivers/lsm303agr/Src/lsm303agr_reg.c ****   * @param  val    Get the values of lpf in reg CFG_REG_B_M.(ptr)
1588:Drivers/lsm303agr/Src/lsm303agr_reg.c ****   * @retval        Interface status (MANDATORY: return 0 -> no Error).
1589:Drivers/lsm303agr/Src/lsm303agr_reg.c ****   *
1590:Drivers/lsm303agr/Src/lsm303agr_reg.c ****   */
1591:Drivers/lsm303agr/Src/lsm303agr_reg.c **** int32_t lsm303agr_mag_low_pass_bandwidth_get(stmdev_ctx_t *ctx,
1592:Drivers/lsm303agr/Src/lsm303agr_reg.c ****                                              lsm303agr_lpf_m_t *val)
1593:Drivers/lsm303agr/Src/lsm303agr_reg.c **** {
 3644              		.loc 1 1593 1 is_stmt 1 view -0
 3645              		.cfi_startproc
 3646              		@ args = 0, pretend = 0, frame = 8
 3647              		@ frame_needed = 0, uses_anonymous_args = 0
 3648              		.loc 1 1593 1 is_stmt 0 view .LVU923
ARM GAS  C:\Users\SF\AppData\Local\Temp\ccFGOSN0.s 			page 95


 3649 0000 10B5     		push	{r4, lr}
 3650              	.LCFI135:
 3651              		.cfi_def_cfa_offset 8
 3652              		.cfi_offset 4, -8
 3653              		.cfi_offset 14, -4
 3654 0002 82B0     		sub	sp, sp, #8
 3655              	.LCFI136:
 3656              		.cfi_def_cfa_offset 16
 3657 0004 0C46     		mov	r4, r1
1594:Drivers/lsm303agr/Src/lsm303agr_reg.c ****   lsm303agr_cfg_reg_b_m_t cfg_reg_b_m;
 3658              		.loc 1 1594 3 is_stmt 1 view .LVU924
1595:Drivers/lsm303agr/Src/lsm303agr_reg.c ****   int32_t ret;
 3659              		.loc 1 1595 3 view .LVU925
1596:Drivers/lsm303agr/Src/lsm303agr_reg.c **** 
1597:Drivers/lsm303agr/Src/lsm303agr_reg.c ****   ret = lsm303agr_read_reg(ctx, LSM303AGR_CFG_REG_B_M,
 3660              		.loc 1 1597 3 view .LVU926
 3661              		.loc 1 1597 9 is_stmt 0 view .LVU927
 3662 0006 0123     		movs	r3, #1
 3663 0008 01AA     		add	r2, sp, #4
 3664 000a 6121     		movs	r1, #97
 3665              	.LVL230:
 3666              		.loc 1 1597 9 view .LVU928
 3667 000c FFF7FEFF 		bl	lsm303agr_read_reg
 3668              	.LVL231:
1598:Drivers/lsm303agr/Src/lsm303agr_reg.c ****                            (uint8_t *)&cfg_reg_b_m, 1);
1599:Drivers/lsm303agr/Src/lsm303agr_reg.c **** 
1600:Drivers/lsm303agr/Src/lsm303agr_reg.c ****   switch (cfg_reg_b_m.lpf)
 3669              		.loc 1 1600 3 is_stmt 1 view .LVU929
 3670              		.loc 1 1600 22 is_stmt 0 view .LVU930
 3671 0010 9DF80430 		ldrb	r3, [sp, #4]	@ zero_extendqisi2
 3672              		.loc 1 1600 3 view .LVU931
 3673 0014 13F00103 		ands	r3, r3, #1
 3674 0018 03D0     		beq	.L233
 3675 001a 33B9     		cbnz	r3, .L234
1601:Drivers/lsm303agr/Src/lsm303agr_reg.c ****   {
1602:Drivers/lsm303agr/Src/lsm303agr_reg.c ****     case LSM303AGR_ODR_DIV_2:
1603:Drivers/lsm303agr/Src/lsm303agr_reg.c ****       *val = LSM303AGR_ODR_DIV_2;
1604:Drivers/lsm303agr/Src/lsm303agr_reg.c ****       break;
1605:Drivers/lsm303agr/Src/lsm303agr_reg.c **** 
1606:Drivers/lsm303agr/Src/lsm303agr_reg.c ****     case LSM303AGR_ODR_DIV_4:
1607:Drivers/lsm303agr/Src/lsm303agr_reg.c ****       *val = LSM303AGR_ODR_DIV_4;
1608:Drivers/lsm303agr/Src/lsm303agr_reg.c ****       break;
1609:Drivers/lsm303agr/Src/lsm303agr_reg.c **** 
1610:Drivers/lsm303agr/Src/lsm303agr_reg.c ****     default:
1611:Drivers/lsm303agr/Src/lsm303agr_reg.c ****       *val = LSM303AGR_ODR_DIV_2;
 3676              		.loc 1 1611 7 is_stmt 1 view .LVU932
 3677              		.loc 1 1611 12 is_stmt 0 view .LVU933
 3678 001c 0023     		movs	r3, #0
 3679 001e 2370     		strb	r3, [r4]
1612:Drivers/lsm303agr/Src/lsm303agr_reg.c ****       break;
 3680              		.loc 1 1612 7 is_stmt 1 view .LVU934
1613:Drivers/lsm303agr/Src/lsm303agr_reg.c ****   }
1614:Drivers/lsm303agr/Src/lsm303agr_reg.c **** 
1615:Drivers/lsm303agr/Src/lsm303agr_reg.c ****   return ret;
 3681              		.loc 1 1615 3 view .LVU935
 3682              		.loc 1 1615 10 is_stmt 0 view .LVU936
 3683 0020 01E0     		b	.L232
ARM GAS  C:\Users\SF\AppData\Local\Temp\ccFGOSN0.s 			page 96


 3684              	.L233:
1603:Drivers/lsm303agr/Src/lsm303agr_reg.c ****       break;
 3685              		.loc 1 1603 7 is_stmt 1 view .LVU937
1603:Drivers/lsm303agr/Src/lsm303agr_reg.c ****       break;
 3686              		.loc 1 1603 12 is_stmt 0 view .LVU938
 3687 0022 0023     		movs	r3, #0
 3688 0024 2370     		strb	r3, [r4]
1604:Drivers/lsm303agr/Src/lsm303agr_reg.c **** 
 3689              		.loc 1 1604 7 is_stmt 1 view .LVU939
 3690              	.L232:
1616:Drivers/lsm303agr/Src/lsm303agr_reg.c **** }
 3691              		.loc 1 1616 1 is_stmt 0 view .LVU940
 3692 0026 02B0     		add	sp, sp, #8
 3693              	.LCFI137:
 3694              		.cfi_remember_state
 3695              		.cfi_def_cfa_offset 8
 3696              		@ sp needed
 3697 0028 10BD     		pop	{r4, pc}
 3698              	.LVL232:
 3699              	.L234:
 3700              	.LCFI138:
 3701              		.cfi_restore_state
1607:Drivers/lsm303agr/Src/lsm303agr_reg.c ****       break;
 3702              		.loc 1 1607 7 is_stmt 1 view .LVU941
1607:Drivers/lsm303agr/Src/lsm303agr_reg.c ****       break;
 3703              		.loc 1 1607 12 is_stmt 0 view .LVU942
 3704 002a 0123     		movs	r3, #1
 3705 002c 2370     		strb	r3, [r4]
1608:Drivers/lsm303agr/Src/lsm303agr_reg.c **** 
 3706              		.loc 1 1608 7 is_stmt 1 view .LVU943
 3707 002e FAE7     		b	.L232
 3708              		.cfi_endproc
 3709              	.LFE192:
 3711              		.section	.text.lsm303agr_mag_set_rst_mode_set,"ax",%progbits
 3712              		.align	1
 3713              		.global	lsm303agr_mag_set_rst_mode_set
 3714              		.syntax unified
 3715              		.thumb
 3716              		.thumb_func
 3718              	lsm303agr_mag_set_rst_mode_set:
 3719              	.LVL233:
 3720              	.LFB193:
1617:Drivers/lsm303agr/Src/lsm303agr_reg.c **** 
1618:Drivers/lsm303agr/Src/lsm303agr_reg.c **** /**
1619:Drivers/lsm303agr/Src/lsm303agr_reg.c ****   * @brief  Magnetometer sampling mode.[set]
1620:Drivers/lsm303agr/Src/lsm303agr_reg.c ****   *
1621:Drivers/lsm303agr/Src/lsm303agr_reg.c ****   * @param  ctx    Read / write interface definitions.(ptr)
1622:Drivers/lsm303agr/Src/lsm303agr_reg.c ****   * @param  val    Change the values of set_rst in reg CFG_REG_B_M
1623:Drivers/lsm303agr/Src/lsm303agr_reg.c ****   * @retval        Interface status (MANDATORY: return 0 -> no Error).
1624:Drivers/lsm303agr/Src/lsm303agr_reg.c ****   *
1625:Drivers/lsm303agr/Src/lsm303agr_reg.c ****   */
1626:Drivers/lsm303agr/Src/lsm303agr_reg.c **** int32_t lsm303agr_mag_set_rst_mode_set(stmdev_ctx_t *ctx,
1627:Drivers/lsm303agr/Src/lsm303agr_reg.c ****                                        lsm303agr_set_rst_m_t val)
1628:Drivers/lsm303agr/Src/lsm303agr_reg.c **** {
 3721              		.loc 1 1628 1 view -0
 3722              		.cfi_startproc
 3723              		@ args = 0, pretend = 0, frame = 8
ARM GAS  C:\Users\SF\AppData\Local\Temp\ccFGOSN0.s 			page 97


 3724              		@ frame_needed = 0, uses_anonymous_args = 0
 3725              		.loc 1 1628 1 is_stmt 0 view .LVU945
 3726 0000 30B5     		push	{r4, r5, lr}
 3727              	.LCFI139:
 3728              		.cfi_def_cfa_offset 12
 3729              		.cfi_offset 4, -12
 3730              		.cfi_offset 5, -8
 3731              		.cfi_offset 14, -4
 3732 0002 83B0     		sub	sp, sp, #12
 3733              	.LCFI140:
 3734              		.cfi_def_cfa_offset 24
 3735 0004 0446     		mov	r4, r0
 3736 0006 0D46     		mov	r5, r1
1629:Drivers/lsm303agr/Src/lsm303agr_reg.c ****   lsm303agr_cfg_reg_b_m_t cfg_reg_b_m;
 3737              		.loc 1 1629 3 is_stmt 1 view .LVU946
1630:Drivers/lsm303agr/Src/lsm303agr_reg.c ****   int32_t ret;
 3738              		.loc 1 1630 3 view .LVU947
1631:Drivers/lsm303agr/Src/lsm303agr_reg.c **** 
1632:Drivers/lsm303agr/Src/lsm303agr_reg.c ****   ret = lsm303agr_read_reg(ctx, LSM303AGR_CFG_REG_B_M,
 3739              		.loc 1 1632 3 view .LVU948
 3740              		.loc 1 1632 9 is_stmt 0 view .LVU949
 3741 0008 0123     		movs	r3, #1
 3742 000a 01AA     		add	r2, sp, #4
 3743 000c 6121     		movs	r1, #97
 3744              	.LVL234:
 3745              		.loc 1 1632 9 view .LVU950
 3746 000e FFF7FEFF 		bl	lsm303agr_read_reg
 3747              	.LVL235:
1633:Drivers/lsm303agr/Src/lsm303agr_reg.c ****                            (uint8_t *)&cfg_reg_b_m, 1);
1634:Drivers/lsm303agr/Src/lsm303agr_reg.c **** 
1635:Drivers/lsm303agr/Src/lsm303agr_reg.c ****   if (ret == 0)
 3748              		.loc 1 1635 3 is_stmt 1 view .LVU951
 3749              		.loc 1 1635 6 is_stmt 0 view .LVU952
 3750 0012 08B1     		cbz	r0, .L242
 3751              	.LVL236:
 3752              	.L239:
1636:Drivers/lsm303agr/Src/lsm303agr_reg.c ****   {
1637:Drivers/lsm303agr/Src/lsm303agr_reg.c ****     cfg_reg_b_m.set_rst = (uint8_t)val;
1638:Drivers/lsm303agr/Src/lsm303agr_reg.c ****     ret = lsm303agr_write_reg(ctx, LSM303AGR_CFG_REG_B_M,
1639:Drivers/lsm303agr/Src/lsm303agr_reg.c ****                               (uint8_t *)&cfg_reg_b_m, 1);
1640:Drivers/lsm303agr/Src/lsm303agr_reg.c ****   }
1641:Drivers/lsm303agr/Src/lsm303agr_reg.c **** 
1642:Drivers/lsm303agr/Src/lsm303agr_reg.c ****   return ret;
1643:Drivers/lsm303agr/Src/lsm303agr_reg.c **** }
 3753              		.loc 1 1643 1 view .LVU953
 3754 0014 03B0     		add	sp, sp, #12
 3755              	.LCFI141:
 3756              		.cfi_remember_state
 3757              		.cfi_def_cfa_offset 12
 3758              		@ sp needed
 3759 0016 30BD     		pop	{r4, r5, pc}
 3760              	.LVL237:
 3761              	.L242:
 3762              	.LCFI142:
 3763              		.cfi_restore_state
1637:Drivers/lsm303agr/Src/lsm303agr_reg.c ****     ret = lsm303agr_write_reg(ctx, LSM303AGR_CFG_REG_B_M,
 3764              		.loc 1 1637 5 is_stmt 1 view .LVU954
ARM GAS  C:\Users\SF\AppData\Local\Temp\ccFGOSN0.s 			page 98


1637:Drivers/lsm303agr/Src/lsm303agr_reg.c ****     ret = lsm303agr_write_reg(ctx, LSM303AGR_CFG_REG_B_M,
 3765              		.loc 1 1637 25 is_stmt 0 view .LVU955
 3766 0018 9DF80430 		ldrb	r3, [sp, #4]	@ zero_extendqisi2
 3767 001c 65F34203 		bfi	r3, r5, #1, #2
 3768 0020 8DF80430 		strb	r3, [sp, #4]
1638:Drivers/lsm303agr/Src/lsm303agr_reg.c ****                               (uint8_t *)&cfg_reg_b_m, 1);
 3769              		.loc 1 1638 5 is_stmt 1 view .LVU956
1638:Drivers/lsm303agr/Src/lsm303agr_reg.c ****                               (uint8_t *)&cfg_reg_b_m, 1);
 3770              		.loc 1 1638 11 is_stmt 0 view .LVU957
 3771 0024 0123     		movs	r3, #1
 3772              	.LVL238:
1638:Drivers/lsm303agr/Src/lsm303agr_reg.c ****                               (uint8_t *)&cfg_reg_b_m, 1);
 3773              		.loc 1 1638 11 view .LVU958
 3774 0026 01AA     		add	r2, sp, #4
 3775 0028 6121     		movs	r1, #97
 3776 002a 2046     		mov	r0, r4
 3777 002c FFF7FEFF 		bl	lsm303agr_write_reg
 3778              	.LVL239:
1642:Drivers/lsm303agr/Src/lsm303agr_reg.c **** }
 3779              		.loc 1 1642 3 is_stmt 1 view .LVU959
1642:Drivers/lsm303agr/Src/lsm303agr_reg.c **** }
 3780              		.loc 1 1642 10 is_stmt 0 view .LVU960
 3781 0030 F0E7     		b	.L239
 3782              		.cfi_endproc
 3783              	.LFE193:
 3785              		.section	.text.lsm303agr_mag_set_rst_mode_get,"ax",%progbits
 3786              		.align	1
 3787              		.global	lsm303agr_mag_set_rst_mode_get
 3788              		.syntax unified
 3789              		.thumb
 3790              		.thumb_func
 3792              	lsm303agr_mag_set_rst_mode_get:
 3793              	.LVL240:
 3794              	.LFB194:
1644:Drivers/lsm303agr/Src/lsm303agr_reg.c **** 
1645:Drivers/lsm303agr/Src/lsm303agr_reg.c **** /**
1646:Drivers/lsm303agr/Src/lsm303agr_reg.c ****   * @brief  Magnetometer sampling mode.[get]
1647:Drivers/lsm303agr/Src/lsm303agr_reg.c ****   *
1648:Drivers/lsm303agr/Src/lsm303agr_reg.c ****   * @param  ctx    Read / write interface definitions.(ptr)
1649:Drivers/lsm303agr/Src/lsm303agr_reg.c ****   * @param  val    Get the values of set_rst in reg CFG_REG_B_M.(ptr)
1650:Drivers/lsm303agr/Src/lsm303agr_reg.c ****   * @retval        Interface status (MANDATORY: return 0 -> no Error).
1651:Drivers/lsm303agr/Src/lsm303agr_reg.c ****   *
1652:Drivers/lsm303agr/Src/lsm303agr_reg.c ****   */
1653:Drivers/lsm303agr/Src/lsm303agr_reg.c **** int32_t lsm303agr_mag_set_rst_mode_get(stmdev_ctx_t *ctx,
1654:Drivers/lsm303agr/Src/lsm303agr_reg.c ****                                        lsm303agr_set_rst_m_t *val)
1655:Drivers/lsm303agr/Src/lsm303agr_reg.c **** {
 3795              		.loc 1 1655 1 is_stmt 1 view -0
 3796              		.cfi_startproc
 3797              		@ args = 0, pretend = 0, frame = 8
 3798              		@ frame_needed = 0, uses_anonymous_args = 0
 3799              		.loc 1 1655 1 is_stmt 0 view .LVU962
 3800 0000 10B5     		push	{r4, lr}
 3801              	.LCFI143:
 3802              		.cfi_def_cfa_offset 8
 3803              		.cfi_offset 4, -8
 3804              		.cfi_offset 14, -4
 3805 0002 82B0     		sub	sp, sp, #8
ARM GAS  C:\Users\SF\AppData\Local\Temp\ccFGOSN0.s 			page 99


 3806              	.LCFI144:
 3807              		.cfi_def_cfa_offset 16
 3808 0004 0C46     		mov	r4, r1
1656:Drivers/lsm303agr/Src/lsm303agr_reg.c ****   lsm303agr_cfg_reg_b_m_t cfg_reg_b_m;
 3809              		.loc 1 1656 3 is_stmt 1 view .LVU963
1657:Drivers/lsm303agr/Src/lsm303agr_reg.c ****   int32_t ret;
 3810              		.loc 1 1657 3 view .LVU964
1658:Drivers/lsm303agr/Src/lsm303agr_reg.c **** 
1659:Drivers/lsm303agr/Src/lsm303agr_reg.c ****   ret = lsm303agr_read_reg(ctx, LSM303AGR_CFG_REG_B_M,
 3811              		.loc 1 1659 3 view .LVU965
 3812              		.loc 1 1659 9 is_stmt 0 view .LVU966
 3813 0006 0123     		movs	r3, #1
 3814 0008 01AA     		add	r2, sp, #4
 3815 000a 6121     		movs	r1, #97
 3816              	.LVL241:
 3817              		.loc 1 1659 9 view .LVU967
 3818 000c FFF7FEFF 		bl	lsm303agr_read_reg
 3819              	.LVL242:
1660:Drivers/lsm303agr/Src/lsm303agr_reg.c ****                            (uint8_t *)&cfg_reg_b_m, 1);
1661:Drivers/lsm303agr/Src/lsm303agr_reg.c **** 
1662:Drivers/lsm303agr/Src/lsm303agr_reg.c ****   switch (cfg_reg_b_m.set_rst)
 3820              		.loc 1 1662 3 is_stmt 1 view .LVU968
 3821              		.loc 1 1662 22 is_stmt 0 view .LVU969
 3822 0010 9DF80430 		ldrb	r3, [sp, #4]	@ zero_extendqisi2
 3823 0014 C3F34103 		ubfx	r3, r3, #1, #2
 3824              		.loc 1 1662 3 view .LVU970
 3825 0018 012B     		cmp	r3, #1
 3826 001a 08D0     		beq	.L244
 3827 001c 022B     		cmp	r3, #2
 3828 001e 09D0     		beq	.L245
 3829 0020 13B1     		cbz	r3, .L249
1663:Drivers/lsm303agr/Src/lsm303agr_reg.c ****   {
1664:Drivers/lsm303agr/Src/lsm303agr_reg.c ****     case LSM303AGR_SET_SENS_ODR_DIV_63:
1665:Drivers/lsm303agr/Src/lsm303agr_reg.c ****       *val = LSM303AGR_SET_SENS_ODR_DIV_63;
1666:Drivers/lsm303agr/Src/lsm303agr_reg.c ****       break;
1667:Drivers/lsm303agr/Src/lsm303agr_reg.c **** 
1668:Drivers/lsm303agr/Src/lsm303agr_reg.c ****     case LSM303AGR_SENS_OFF_CANC_EVERY_ODR:
1669:Drivers/lsm303agr/Src/lsm303agr_reg.c ****       *val = LSM303AGR_SENS_OFF_CANC_EVERY_ODR;
1670:Drivers/lsm303agr/Src/lsm303agr_reg.c ****       break;
1671:Drivers/lsm303agr/Src/lsm303agr_reg.c **** 
1672:Drivers/lsm303agr/Src/lsm303agr_reg.c ****     case LSM303AGR_SET_SENS_ONLY_AT_POWER_ON:
1673:Drivers/lsm303agr/Src/lsm303agr_reg.c ****       *val = LSM303AGR_SET_SENS_ONLY_AT_POWER_ON;
1674:Drivers/lsm303agr/Src/lsm303agr_reg.c ****       break;
1675:Drivers/lsm303agr/Src/lsm303agr_reg.c **** 
1676:Drivers/lsm303agr/Src/lsm303agr_reg.c ****     default:
1677:Drivers/lsm303agr/Src/lsm303agr_reg.c ****       *val = LSM303AGR_SET_SENS_ODR_DIV_63;
 3830              		.loc 1 1677 7 is_stmt 1 view .LVU971
 3831              		.loc 1 1677 12 is_stmt 0 view .LVU972
 3832 0022 0023     		movs	r3, #0
 3833 0024 2370     		strb	r3, [r4]
1678:Drivers/lsm303agr/Src/lsm303agr_reg.c ****       break;
 3834              		.loc 1 1678 7 is_stmt 1 view .LVU973
1679:Drivers/lsm303agr/Src/lsm303agr_reg.c ****   }
1680:Drivers/lsm303agr/Src/lsm303agr_reg.c **** 
1681:Drivers/lsm303agr/Src/lsm303agr_reg.c ****   return ret;
 3835              		.loc 1 1681 3 view .LVU974
 3836              		.loc 1 1681 10 is_stmt 0 view .LVU975
ARM GAS  C:\Users\SF\AppData\Local\Temp\ccFGOSN0.s 			page 100


 3837 0026 00E0     		b	.L243
 3838              	.L249:
1665:Drivers/lsm303agr/Src/lsm303agr_reg.c ****       break;
 3839              		.loc 1 1665 7 is_stmt 1 view .LVU976
1665:Drivers/lsm303agr/Src/lsm303agr_reg.c ****       break;
 3840              		.loc 1 1665 12 is_stmt 0 view .LVU977
 3841 0028 2370     		strb	r3, [r4]
1666:Drivers/lsm303agr/Src/lsm303agr_reg.c **** 
 3842              		.loc 1 1666 7 is_stmt 1 view .LVU978
 3843              	.L243:
1682:Drivers/lsm303agr/Src/lsm303agr_reg.c **** }
 3844              		.loc 1 1682 1 is_stmt 0 view .LVU979
 3845 002a 02B0     		add	sp, sp, #8
 3846              	.LCFI145:
 3847              		.cfi_remember_state
 3848              		.cfi_def_cfa_offset 8
 3849              		@ sp needed
 3850 002c 10BD     		pop	{r4, pc}
 3851              	.LVL243:
 3852              	.L244:
 3853              	.LCFI146:
 3854              		.cfi_restore_state
1669:Drivers/lsm303agr/Src/lsm303agr_reg.c ****       break;
 3855              		.loc 1 1669 7 is_stmt 1 view .LVU980
1669:Drivers/lsm303agr/Src/lsm303agr_reg.c ****       break;
 3856              		.loc 1 1669 12 is_stmt 0 view .LVU981
 3857 002e 0123     		movs	r3, #1
 3858 0030 2370     		strb	r3, [r4]
1670:Drivers/lsm303agr/Src/lsm303agr_reg.c **** 
 3859              		.loc 1 1670 7 is_stmt 1 view .LVU982
 3860 0032 FAE7     		b	.L243
 3861              	.L245:
1673:Drivers/lsm303agr/Src/lsm303agr_reg.c ****       break;
 3862              		.loc 1 1673 7 view .LVU983
1673:Drivers/lsm303agr/Src/lsm303agr_reg.c ****       break;
 3863              		.loc 1 1673 12 is_stmt 0 view .LVU984
 3864 0034 0223     		movs	r3, #2
 3865 0036 2370     		strb	r3, [r4]
1674:Drivers/lsm303agr/Src/lsm303agr_reg.c **** 
 3866              		.loc 1 1674 7 is_stmt 1 view .LVU985
 3867 0038 F7E7     		b	.L243
 3868              		.cfi_endproc
 3869              	.LFE194:
 3871              		.section	.text.lsm303agr_mag_set_rst_sensor_single_set,"ax",%progbits
 3872              		.align	1
 3873              		.global	lsm303agr_mag_set_rst_sensor_single_set
 3874              		.syntax unified
 3875              		.thumb
 3876              		.thumb_func
 3878              	lsm303agr_mag_set_rst_sensor_single_set:
 3879              	.LVL244:
 3880              	.LFB195:
1683:Drivers/lsm303agr/Src/lsm303agr_reg.c **** 
1684:Drivers/lsm303agr/Src/lsm303agr_reg.c **** /**
1685:Drivers/lsm303agr/Src/lsm303agr_reg.c ****   * @brief  Enables offset cancellation in single measurement mode.
1686:Drivers/lsm303agr/Src/lsm303agr_reg.c ****   *         The OFF_CANC bit must be set
1687:Drivers/lsm303agr/Src/lsm303agr_reg.c ****   *         to 1 when enabling offset
ARM GAS  C:\Users\SF\AppData\Local\Temp\ccFGOSN0.s 			page 101


1688:Drivers/lsm303agr/Src/lsm303agr_reg.c ****   *         cancellation in single measurement
1689:Drivers/lsm303agr/Src/lsm303agr_reg.c ****   *         mode this means a call function:
1690:Drivers/lsm303agr/Src/lsm303agr_reg.c ****   *         mag_set_rst_mode
1691:Drivers/lsm303agr/Src/lsm303agr_reg.c ****   *         (SENS_OFF_CANC_EVERY_ODR) is need.[set]
1692:Drivers/lsm303agr/Src/lsm303agr_reg.c ****   *
1693:Drivers/lsm303agr/Src/lsm303agr_reg.c ****   * @param  ctx    Read / write interface definitions.(ptr)
1694:Drivers/lsm303agr/Src/lsm303agr_reg.c ****   * @param  val    Change the values of off_canc_one_shot in reg CFG_REG_B_M
1695:Drivers/lsm303agr/Src/lsm303agr_reg.c ****   * @retval        Interface status (MANDATORY: return 0 -> no Error).
1696:Drivers/lsm303agr/Src/lsm303agr_reg.c ****   *
1697:Drivers/lsm303agr/Src/lsm303agr_reg.c ****   */
1698:Drivers/lsm303agr/Src/lsm303agr_reg.c **** int32_t lsm303agr_mag_set_rst_sensor_single_set(stmdev_ctx_t *ctx,
1699:Drivers/lsm303agr/Src/lsm303agr_reg.c ****                                                 uint8_t val)
1700:Drivers/lsm303agr/Src/lsm303agr_reg.c **** {
 3881              		.loc 1 1700 1 view -0
 3882              		.cfi_startproc
 3883              		@ args = 0, pretend = 0, frame = 8
 3884              		@ frame_needed = 0, uses_anonymous_args = 0
 3885              		.loc 1 1700 1 is_stmt 0 view .LVU987
 3886 0000 30B5     		push	{r4, r5, lr}
 3887              	.LCFI147:
 3888              		.cfi_def_cfa_offset 12
 3889              		.cfi_offset 4, -12
 3890              		.cfi_offset 5, -8
 3891              		.cfi_offset 14, -4
 3892 0002 83B0     		sub	sp, sp, #12
 3893              	.LCFI148:
 3894              		.cfi_def_cfa_offset 24
 3895 0004 0446     		mov	r4, r0
 3896 0006 0D46     		mov	r5, r1
1701:Drivers/lsm303agr/Src/lsm303agr_reg.c ****   lsm303agr_cfg_reg_b_m_t cfg_reg_b_m;
 3897              		.loc 1 1701 3 is_stmt 1 view .LVU988
1702:Drivers/lsm303agr/Src/lsm303agr_reg.c ****   int32_t ret;
 3898              		.loc 1 1702 3 view .LVU989
1703:Drivers/lsm303agr/Src/lsm303agr_reg.c **** 
1704:Drivers/lsm303agr/Src/lsm303agr_reg.c ****   ret = lsm303agr_read_reg(ctx, LSM303AGR_CFG_REG_B_M,
 3899              		.loc 1 1704 3 view .LVU990
 3900              		.loc 1 1704 9 is_stmt 0 view .LVU991
 3901 0008 0123     		movs	r3, #1
 3902 000a 01AA     		add	r2, sp, #4
 3903 000c 6121     		movs	r1, #97
 3904              	.LVL245:
 3905              		.loc 1 1704 9 view .LVU992
 3906 000e FFF7FEFF 		bl	lsm303agr_read_reg
 3907              	.LVL246:
1705:Drivers/lsm303agr/Src/lsm303agr_reg.c ****                            (uint8_t *)&cfg_reg_b_m, 1);
1706:Drivers/lsm303agr/Src/lsm303agr_reg.c **** 
1707:Drivers/lsm303agr/Src/lsm303agr_reg.c ****   if (ret == 0)
 3908              		.loc 1 1707 3 is_stmt 1 view .LVU993
 3909              		.loc 1 1707 6 is_stmt 0 view .LVU994
 3910 0012 08B1     		cbz	r0, .L253
 3911              	.LVL247:
 3912              	.L250:
1708:Drivers/lsm303agr/Src/lsm303agr_reg.c ****   {
1709:Drivers/lsm303agr/Src/lsm303agr_reg.c ****     cfg_reg_b_m.off_canc_one_shot = (uint8_t)val;
1710:Drivers/lsm303agr/Src/lsm303agr_reg.c ****     ret = lsm303agr_write_reg(ctx, LSM303AGR_CFG_REG_B_M,
1711:Drivers/lsm303agr/Src/lsm303agr_reg.c ****                               (uint8_t *)&cfg_reg_b_m, 1);
1712:Drivers/lsm303agr/Src/lsm303agr_reg.c ****   }
ARM GAS  C:\Users\SF\AppData\Local\Temp\ccFGOSN0.s 			page 102


1713:Drivers/lsm303agr/Src/lsm303agr_reg.c **** 
1714:Drivers/lsm303agr/Src/lsm303agr_reg.c ****   return ret;
1715:Drivers/lsm303agr/Src/lsm303agr_reg.c **** }
 3913              		.loc 1 1715 1 view .LVU995
 3914 0014 03B0     		add	sp, sp, #12
 3915              	.LCFI149:
 3916              		.cfi_remember_state
 3917              		.cfi_def_cfa_offset 12
 3918              		@ sp needed
 3919 0016 30BD     		pop	{r4, r5, pc}
 3920              	.LVL248:
 3921              	.L253:
 3922              	.LCFI150:
 3923              		.cfi_restore_state
1709:Drivers/lsm303agr/Src/lsm303agr_reg.c ****     ret = lsm303agr_write_reg(ctx, LSM303AGR_CFG_REG_B_M,
 3924              		.loc 1 1709 5 is_stmt 1 view .LVU996
1709:Drivers/lsm303agr/Src/lsm303agr_reg.c ****     ret = lsm303agr_write_reg(ctx, LSM303AGR_CFG_REG_B_M,
 3925              		.loc 1 1709 35 is_stmt 0 view .LVU997
 3926 0018 9DF80430 		ldrb	r3, [sp, #4]	@ zero_extendqisi2
 3927 001c 65F30413 		bfi	r3, r5, #4, #1
 3928 0020 8DF80430 		strb	r3, [sp, #4]
1710:Drivers/lsm303agr/Src/lsm303agr_reg.c ****                               (uint8_t *)&cfg_reg_b_m, 1);
 3929              		.loc 1 1710 5 is_stmt 1 view .LVU998
1710:Drivers/lsm303agr/Src/lsm303agr_reg.c ****                               (uint8_t *)&cfg_reg_b_m, 1);
 3930              		.loc 1 1710 11 is_stmt 0 view .LVU999
 3931 0024 0123     		movs	r3, #1
 3932              	.LVL249:
1710:Drivers/lsm303agr/Src/lsm303agr_reg.c ****                               (uint8_t *)&cfg_reg_b_m, 1);
 3933              		.loc 1 1710 11 view .LVU1000
 3934 0026 01AA     		add	r2, sp, #4
 3935 0028 6121     		movs	r1, #97
 3936 002a 2046     		mov	r0, r4
 3937 002c FFF7FEFF 		bl	lsm303agr_write_reg
 3938              	.LVL250:
1714:Drivers/lsm303agr/Src/lsm303agr_reg.c **** }
 3939              		.loc 1 1714 3 is_stmt 1 view .LVU1001
1714:Drivers/lsm303agr/Src/lsm303agr_reg.c **** }
 3940              		.loc 1 1714 10 is_stmt 0 view .LVU1002
 3941 0030 F0E7     		b	.L250
 3942              		.cfi_endproc
 3943              	.LFE195:
 3945              		.section	.text.lsm303agr_mag_set_rst_sensor_single_get,"ax",%progbits
 3946              		.align	1
 3947              		.global	lsm303agr_mag_set_rst_sensor_single_get
 3948              		.syntax unified
 3949              		.thumb
 3950              		.thumb_func
 3952              	lsm303agr_mag_set_rst_sensor_single_get:
 3953              	.LVL251:
 3954              	.LFB196:
1716:Drivers/lsm303agr/Src/lsm303agr_reg.c **** 
1717:Drivers/lsm303agr/Src/lsm303agr_reg.c **** /**
1718:Drivers/lsm303agr/Src/lsm303agr_reg.c ****   * @brief  Enables offset cancellation in single measurement mode.
1719:Drivers/lsm303agr/Src/lsm303agr_reg.c ****   *         The OFF_CANC bit must be set to
1720:Drivers/lsm303agr/Src/lsm303agr_reg.c ****   *         1 when enabling offset cancellation
1721:Drivers/lsm303agr/Src/lsm303agr_reg.c ****   *         in single measurement mode this
1722:Drivers/lsm303agr/Src/lsm303agr_reg.c ****   *         means a call function:
ARM GAS  C:\Users\SF\AppData\Local\Temp\ccFGOSN0.s 			page 103


1723:Drivers/lsm303agr/Src/lsm303agr_reg.c ****   *         mag_set_rst_mode
1724:Drivers/lsm303agr/Src/lsm303agr_reg.c ****   *         (SENS_OFF_CANC_EVERY_ODR) is need.[get]
1725:Drivers/lsm303agr/Src/lsm303agr_reg.c ****   *
1726:Drivers/lsm303agr/Src/lsm303agr_reg.c ****   * @param  ctx    Read / write interface definitions.(ptr)
1727:Drivers/lsm303agr/Src/lsm303agr_reg.c ****   * @param  val    Get the values of off_canc_one_shot in
1728:Drivers/lsm303agr/Src/lsm303agr_reg.c ****   *                reg CFG_REG_B_M.(ptr)
1729:Drivers/lsm303agr/Src/lsm303agr_reg.c ****   * @retval        Interface status (MANDATORY: return 0 -> no Error).
1730:Drivers/lsm303agr/Src/lsm303agr_reg.c ****   *
1731:Drivers/lsm303agr/Src/lsm303agr_reg.c ****   */
1732:Drivers/lsm303agr/Src/lsm303agr_reg.c **** int32_t lsm303agr_mag_set_rst_sensor_single_get(stmdev_ctx_t *ctx,
1733:Drivers/lsm303agr/Src/lsm303agr_reg.c ****                                                 uint8_t *val)
1734:Drivers/lsm303agr/Src/lsm303agr_reg.c **** {
 3955              		.loc 1 1734 1 is_stmt 1 view -0
 3956              		.cfi_startproc
 3957              		@ args = 0, pretend = 0, frame = 8
 3958              		@ frame_needed = 0, uses_anonymous_args = 0
 3959              		.loc 1 1734 1 is_stmt 0 view .LVU1004
 3960 0000 10B5     		push	{r4, lr}
 3961              	.LCFI151:
 3962              		.cfi_def_cfa_offset 8
 3963              		.cfi_offset 4, -8
 3964              		.cfi_offset 14, -4
 3965 0002 82B0     		sub	sp, sp, #8
 3966              	.LCFI152:
 3967              		.cfi_def_cfa_offset 16
 3968 0004 0C46     		mov	r4, r1
1735:Drivers/lsm303agr/Src/lsm303agr_reg.c ****   lsm303agr_cfg_reg_b_m_t cfg_reg_b_m;
 3969              		.loc 1 1735 3 is_stmt 1 view .LVU1005
1736:Drivers/lsm303agr/Src/lsm303agr_reg.c ****   int32_t ret;
 3970              		.loc 1 1736 3 view .LVU1006
1737:Drivers/lsm303agr/Src/lsm303agr_reg.c **** 
1738:Drivers/lsm303agr/Src/lsm303agr_reg.c ****   ret = lsm303agr_read_reg(ctx, LSM303AGR_CFG_REG_B_M,
 3971              		.loc 1 1738 3 view .LVU1007
 3972              		.loc 1 1738 9 is_stmt 0 view .LVU1008
 3973 0006 0123     		movs	r3, #1
 3974 0008 01AA     		add	r2, sp, #4
 3975 000a 6121     		movs	r1, #97
 3976              	.LVL252:
 3977              		.loc 1 1738 9 view .LVU1009
 3978 000c FFF7FEFF 		bl	lsm303agr_read_reg
 3979              	.LVL253:
1739:Drivers/lsm303agr/Src/lsm303agr_reg.c ****                            (uint8_t *)&cfg_reg_b_m, 1);
1740:Drivers/lsm303agr/Src/lsm303agr_reg.c ****   *val = cfg_reg_b_m.off_canc_one_shot;
 3980              		.loc 1 1740 3 is_stmt 1 view .LVU1010
 3981              		.loc 1 1740 21 is_stmt 0 view .LVU1011
 3982 0010 9DF80430 		ldrb	r3, [sp, #4]	@ zero_extendqisi2
 3983 0014 C3F30013 		ubfx	r3, r3, #4, #1
 3984              		.loc 1 1740 8 view .LVU1012
 3985 0018 2370     		strb	r3, [r4]
1741:Drivers/lsm303agr/Src/lsm303agr_reg.c **** 
1742:Drivers/lsm303agr/Src/lsm303agr_reg.c ****   return ret;
 3986              		.loc 1 1742 3 is_stmt 1 view .LVU1013
1743:Drivers/lsm303agr/Src/lsm303agr_reg.c **** }
 3987              		.loc 1 1743 1 is_stmt 0 view .LVU1014
 3988 001a 02B0     		add	sp, sp, #8
 3989              	.LCFI153:
 3990              		.cfi_def_cfa_offset 8
ARM GAS  C:\Users\SF\AppData\Local\Temp\ccFGOSN0.s 			page 104


 3991              		@ sp needed
 3992 001c 10BD     		pop	{r4, pc}
 3993              		.loc 1 1743 1 view .LVU1015
 3994              		.cfi_endproc
 3995              	.LFE196:
 3997              		.section	.text.lsm303agr_mag_block_data_update_set,"ax",%progbits
 3998              		.align	1
 3999              		.global	lsm303agr_mag_block_data_update_set
 4000              		.syntax unified
 4001              		.thumb
 4002              		.thumb_func
 4004              	lsm303agr_mag_block_data_update_set:
 4005              	.LVL254:
 4006              	.LFB197:
1744:Drivers/lsm303agr/Src/lsm303agr_reg.c **** 
1745:Drivers/lsm303agr/Src/lsm303agr_reg.c **** /**
1746:Drivers/lsm303agr/Src/lsm303agr_reg.c ****   * @brief  Blockdataupdate.[set]
1747:Drivers/lsm303agr/Src/lsm303agr_reg.c ****   *
1748:Drivers/lsm303agr/Src/lsm303agr_reg.c ****   * @param  ctx    Read / write interface definitions.(ptr)
1749:Drivers/lsm303agr/Src/lsm303agr_reg.c ****   * @param  val    Change the values of bdu in reg CFG_REG_C_M
1750:Drivers/lsm303agr/Src/lsm303agr_reg.c ****   * @retval        Interface status (MANDATORY: return 0 -> no Error).
1751:Drivers/lsm303agr/Src/lsm303agr_reg.c ****   *
1752:Drivers/lsm303agr/Src/lsm303agr_reg.c ****   */
1753:Drivers/lsm303agr/Src/lsm303agr_reg.c **** int32_t lsm303agr_mag_block_data_update_set(stmdev_ctx_t *ctx,
1754:Drivers/lsm303agr/Src/lsm303agr_reg.c ****                                             uint8_t val)
1755:Drivers/lsm303agr/Src/lsm303agr_reg.c **** {
 4007              		.loc 1 1755 1 is_stmt 1 view -0
 4008              		.cfi_startproc
 4009              		@ args = 0, pretend = 0, frame = 8
 4010              		@ frame_needed = 0, uses_anonymous_args = 0
 4011              		.loc 1 1755 1 is_stmt 0 view .LVU1017
 4012 0000 30B5     		push	{r4, r5, lr}
 4013              	.LCFI154:
 4014              		.cfi_def_cfa_offset 12
 4015              		.cfi_offset 4, -12
 4016              		.cfi_offset 5, -8
 4017              		.cfi_offset 14, -4
 4018 0002 83B0     		sub	sp, sp, #12
 4019              	.LCFI155:
 4020              		.cfi_def_cfa_offset 24
 4021 0004 0446     		mov	r4, r0
 4022 0006 0D46     		mov	r5, r1
1756:Drivers/lsm303agr/Src/lsm303agr_reg.c ****   lsm303agr_cfg_reg_c_m_t cfg_reg_c_m;
 4023              		.loc 1 1756 3 is_stmt 1 view .LVU1018
1757:Drivers/lsm303agr/Src/lsm303agr_reg.c ****   int32_t ret;
 4024              		.loc 1 1757 3 view .LVU1019
1758:Drivers/lsm303agr/Src/lsm303agr_reg.c **** 
1759:Drivers/lsm303agr/Src/lsm303agr_reg.c ****   ret = lsm303agr_read_reg(ctx, LSM303AGR_CFG_REG_C_M,
 4025              		.loc 1 1759 3 view .LVU1020
 4026              		.loc 1 1759 9 is_stmt 0 view .LVU1021
 4027 0008 0123     		movs	r3, #1
 4028 000a 01AA     		add	r2, sp, #4
 4029 000c 6221     		movs	r1, #98
 4030              	.LVL255:
 4031              		.loc 1 1759 9 view .LVU1022
 4032 000e FFF7FEFF 		bl	lsm303agr_read_reg
 4033              	.LVL256:
ARM GAS  C:\Users\SF\AppData\Local\Temp\ccFGOSN0.s 			page 105


1760:Drivers/lsm303agr/Src/lsm303agr_reg.c ****                            (uint8_t *)&cfg_reg_c_m, 1);
1761:Drivers/lsm303agr/Src/lsm303agr_reg.c **** 
1762:Drivers/lsm303agr/Src/lsm303agr_reg.c ****   if (ret == 0)
 4034              		.loc 1 1762 3 is_stmt 1 view .LVU1023
 4035              		.loc 1 1762 6 is_stmt 0 view .LVU1024
 4036 0012 08B1     		cbz	r0, .L259
 4037              	.LVL257:
 4038              	.L256:
1763:Drivers/lsm303agr/Src/lsm303agr_reg.c ****   {
1764:Drivers/lsm303agr/Src/lsm303agr_reg.c ****     cfg_reg_c_m.bdu = (uint8_t)val;
1765:Drivers/lsm303agr/Src/lsm303agr_reg.c ****     ret = lsm303agr_write_reg(ctx, LSM303AGR_CFG_REG_C_M,
1766:Drivers/lsm303agr/Src/lsm303agr_reg.c ****                               (uint8_t *)&cfg_reg_c_m, 1);
1767:Drivers/lsm303agr/Src/lsm303agr_reg.c ****   }
1768:Drivers/lsm303agr/Src/lsm303agr_reg.c **** 
1769:Drivers/lsm303agr/Src/lsm303agr_reg.c ****   return ret;
1770:Drivers/lsm303agr/Src/lsm303agr_reg.c **** }
 4039              		.loc 1 1770 1 view .LVU1025
 4040 0014 03B0     		add	sp, sp, #12
 4041              	.LCFI156:
 4042              		.cfi_remember_state
 4043              		.cfi_def_cfa_offset 12
 4044              		@ sp needed
 4045 0016 30BD     		pop	{r4, r5, pc}
 4046              	.LVL258:
 4047              	.L259:
 4048              	.LCFI157:
 4049              		.cfi_restore_state
1764:Drivers/lsm303agr/Src/lsm303agr_reg.c ****     ret = lsm303agr_write_reg(ctx, LSM303AGR_CFG_REG_C_M,
 4050              		.loc 1 1764 5 is_stmt 1 view .LVU1026
1764:Drivers/lsm303agr/Src/lsm303agr_reg.c ****     ret = lsm303agr_write_reg(ctx, LSM303AGR_CFG_REG_C_M,
 4051              		.loc 1 1764 21 is_stmt 0 view .LVU1027
 4052 0018 9DF80430 		ldrb	r3, [sp, #4]	@ zero_extendqisi2
 4053 001c 65F30413 		bfi	r3, r5, #4, #1
 4054 0020 8DF80430 		strb	r3, [sp, #4]
1765:Drivers/lsm303agr/Src/lsm303agr_reg.c ****                               (uint8_t *)&cfg_reg_c_m, 1);
 4055              		.loc 1 1765 5 is_stmt 1 view .LVU1028
1765:Drivers/lsm303agr/Src/lsm303agr_reg.c ****                               (uint8_t *)&cfg_reg_c_m, 1);
 4056              		.loc 1 1765 11 is_stmt 0 view .LVU1029
 4057 0024 0123     		movs	r3, #1
 4058              	.LVL259:
1765:Drivers/lsm303agr/Src/lsm303agr_reg.c ****                               (uint8_t *)&cfg_reg_c_m, 1);
 4059              		.loc 1 1765 11 view .LVU1030
 4060 0026 01AA     		add	r2, sp, #4
 4061 0028 6221     		movs	r1, #98
 4062 002a 2046     		mov	r0, r4
 4063 002c FFF7FEFF 		bl	lsm303agr_write_reg
 4064              	.LVL260:
1769:Drivers/lsm303agr/Src/lsm303agr_reg.c **** }
 4065              		.loc 1 1769 3 is_stmt 1 view .LVU1031
1769:Drivers/lsm303agr/Src/lsm303agr_reg.c **** }
 4066              		.loc 1 1769 10 is_stmt 0 view .LVU1032
 4067 0030 F0E7     		b	.L256
 4068              		.cfi_endproc
 4069              	.LFE197:
 4071              		.section	.text.lsm303agr_mag_block_data_update_get,"ax",%progbits
 4072              		.align	1
 4073              		.global	lsm303agr_mag_block_data_update_get
ARM GAS  C:\Users\SF\AppData\Local\Temp\ccFGOSN0.s 			page 106


 4074              		.syntax unified
 4075              		.thumb
 4076              		.thumb_func
 4078              	lsm303agr_mag_block_data_update_get:
 4079              	.LVL261:
 4080              	.LFB198:
1771:Drivers/lsm303agr/Src/lsm303agr_reg.c **** 
1772:Drivers/lsm303agr/Src/lsm303agr_reg.c **** /**
1773:Drivers/lsm303agr/Src/lsm303agr_reg.c ****   * @brief  Blockdataupdate.[get]
1774:Drivers/lsm303agr/Src/lsm303agr_reg.c ****   *
1775:Drivers/lsm303agr/Src/lsm303agr_reg.c ****   * @param  ctx    Read / write interface definitions.(ptr)
1776:Drivers/lsm303agr/Src/lsm303agr_reg.c ****   * @param  val    Get the values of bdu in reg CFG_REG_C_M.(ptr)
1777:Drivers/lsm303agr/Src/lsm303agr_reg.c ****   * @retval        Interface status (MANDATORY: return 0 -> no Error).
1778:Drivers/lsm303agr/Src/lsm303agr_reg.c ****   *
1779:Drivers/lsm303agr/Src/lsm303agr_reg.c ****   */
1780:Drivers/lsm303agr/Src/lsm303agr_reg.c **** int32_t lsm303agr_mag_block_data_update_get(stmdev_ctx_t *ctx,
1781:Drivers/lsm303agr/Src/lsm303agr_reg.c ****                                             uint8_t *val)
1782:Drivers/lsm303agr/Src/lsm303agr_reg.c **** {
 4081              		.loc 1 1782 1 is_stmt 1 view -0
 4082              		.cfi_startproc
 4083              		@ args = 0, pretend = 0, frame = 8
 4084              		@ frame_needed = 0, uses_anonymous_args = 0
 4085              		.loc 1 1782 1 is_stmt 0 view .LVU1034
 4086 0000 10B5     		push	{r4, lr}
 4087              	.LCFI158:
 4088              		.cfi_def_cfa_offset 8
 4089              		.cfi_offset 4, -8
 4090              		.cfi_offset 14, -4
 4091 0002 82B0     		sub	sp, sp, #8
 4092              	.LCFI159:
 4093              		.cfi_def_cfa_offset 16
 4094 0004 0C46     		mov	r4, r1
1783:Drivers/lsm303agr/Src/lsm303agr_reg.c ****   lsm303agr_cfg_reg_c_m_t cfg_reg_c_m;
 4095              		.loc 1 1783 3 is_stmt 1 view .LVU1035
1784:Drivers/lsm303agr/Src/lsm303agr_reg.c ****   int32_t ret;
 4096              		.loc 1 1784 3 view .LVU1036
1785:Drivers/lsm303agr/Src/lsm303agr_reg.c **** 
1786:Drivers/lsm303agr/Src/lsm303agr_reg.c ****   ret = lsm303agr_read_reg(ctx, LSM303AGR_CFG_REG_C_M,
 4097              		.loc 1 1786 3 view .LVU1037
 4098              		.loc 1 1786 9 is_stmt 0 view .LVU1038
 4099 0006 0123     		movs	r3, #1
 4100 0008 01AA     		add	r2, sp, #4
 4101 000a 6221     		movs	r1, #98
 4102              	.LVL262:
 4103              		.loc 1 1786 9 view .LVU1039
 4104 000c FFF7FEFF 		bl	lsm303agr_read_reg
 4105              	.LVL263:
1787:Drivers/lsm303agr/Src/lsm303agr_reg.c ****                            (uint8_t *)&cfg_reg_c_m, 1);
1788:Drivers/lsm303agr/Src/lsm303agr_reg.c ****   *val = cfg_reg_c_m.bdu;
 4106              		.loc 1 1788 3 is_stmt 1 view .LVU1040
 4107              		.loc 1 1788 21 is_stmt 0 view .LVU1041
 4108 0010 9DF80430 		ldrb	r3, [sp, #4]	@ zero_extendqisi2
 4109 0014 C3F30013 		ubfx	r3, r3, #4, #1
 4110              		.loc 1 1788 8 view .LVU1042
 4111 0018 2370     		strb	r3, [r4]
1789:Drivers/lsm303agr/Src/lsm303agr_reg.c **** 
1790:Drivers/lsm303agr/Src/lsm303agr_reg.c ****   return ret;
ARM GAS  C:\Users\SF\AppData\Local\Temp\ccFGOSN0.s 			page 107


 4112              		.loc 1 1790 3 is_stmt 1 view .LVU1043
1791:Drivers/lsm303agr/Src/lsm303agr_reg.c **** }
 4113              		.loc 1 1791 1 is_stmt 0 view .LVU1044
 4114 001a 02B0     		add	sp, sp, #8
 4115              	.LCFI160:
 4116              		.cfi_def_cfa_offset 8
 4117              		@ sp needed
 4118 001c 10BD     		pop	{r4, pc}
 4119              		.loc 1 1791 1 view .LVU1045
 4120              		.cfi_endproc
 4121              	.LFE198:
 4123              		.section	.text.lsm303agr_mag_data_ready_get,"ax",%progbits
 4124              		.align	1
 4125              		.global	lsm303agr_mag_data_ready_get
 4126              		.syntax unified
 4127              		.thumb
 4128              		.thumb_func
 4130              	lsm303agr_mag_data_ready_get:
 4131              	.LVL264:
 4132              	.LFB199:
1792:Drivers/lsm303agr/Src/lsm303agr_reg.c **** 
1793:Drivers/lsm303agr/Src/lsm303agr_reg.c **** /**
1794:Drivers/lsm303agr/Src/lsm303agr_reg.c ****   * @brief  Magnetic set of data available.[get]
1795:Drivers/lsm303agr/Src/lsm303agr_reg.c ****   *
1796:Drivers/lsm303agr/Src/lsm303agr_reg.c ****   * @param  ctx    Read / write interface definitions.(ptr)
1797:Drivers/lsm303agr/Src/lsm303agr_reg.c ****   * @param  val    Get the values of zyxda in reg STATUS_REG_M.(ptr)
1798:Drivers/lsm303agr/Src/lsm303agr_reg.c ****   * @retval        Interface status (MANDATORY: return 0 -> no Error).
1799:Drivers/lsm303agr/Src/lsm303agr_reg.c ****   *
1800:Drivers/lsm303agr/Src/lsm303agr_reg.c ****   */
1801:Drivers/lsm303agr/Src/lsm303agr_reg.c **** int32_t lsm303agr_mag_data_ready_get(stmdev_ctx_t *ctx, uint8_t *val)
1802:Drivers/lsm303agr/Src/lsm303agr_reg.c **** {
 4133              		.loc 1 1802 1 is_stmt 1 view -0
 4134              		.cfi_startproc
 4135              		@ args = 0, pretend = 0, frame = 8
 4136              		@ frame_needed = 0, uses_anonymous_args = 0
 4137              		.loc 1 1802 1 is_stmt 0 view .LVU1047
 4138 0000 10B5     		push	{r4, lr}
 4139              	.LCFI161:
 4140              		.cfi_def_cfa_offset 8
 4141              		.cfi_offset 4, -8
 4142              		.cfi_offset 14, -4
 4143 0002 82B0     		sub	sp, sp, #8
 4144              	.LCFI162:
 4145              		.cfi_def_cfa_offset 16
 4146 0004 0C46     		mov	r4, r1
1803:Drivers/lsm303agr/Src/lsm303agr_reg.c ****   lsm303agr_status_reg_m_t status_reg_m;
 4147              		.loc 1 1803 3 is_stmt 1 view .LVU1048
1804:Drivers/lsm303agr/Src/lsm303agr_reg.c ****   int32_t ret;
 4148              		.loc 1 1804 3 view .LVU1049
1805:Drivers/lsm303agr/Src/lsm303agr_reg.c **** 
1806:Drivers/lsm303agr/Src/lsm303agr_reg.c ****   ret = lsm303agr_read_reg(ctx, LSM303AGR_STATUS_REG_M,
 4149              		.loc 1 1806 3 view .LVU1050
 4150              		.loc 1 1806 9 is_stmt 0 view .LVU1051
 4151 0006 0123     		movs	r3, #1
 4152 0008 01AA     		add	r2, sp, #4
 4153 000a 6721     		movs	r1, #103
 4154              	.LVL265:
ARM GAS  C:\Users\SF\AppData\Local\Temp\ccFGOSN0.s 			page 108


 4155              		.loc 1 1806 9 view .LVU1052
 4156 000c FFF7FEFF 		bl	lsm303agr_read_reg
 4157              	.LVL266:
1807:Drivers/lsm303agr/Src/lsm303agr_reg.c ****                            (uint8_t *)&status_reg_m, 1);
1808:Drivers/lsm303agr/Src/lsm303agr_reg.c ****   *val = status_reg_m.zyxda;
 4158              		.loc 1 1808 3 is_stmt 1 view .LVU1053
 4159              		.loc 1 1808 22 is_stmt 0 view .LVU1054
 4160 0010 9DF80430 		ldrb	r3, [sp, #4]	@ zero_extendqisi2
 4161 0014 C3F3C003 		ubfx	r3, r3, #3, #1
 4162              		.loc 1 1808 8 view .LVU1055
 4163 0018 2370     		strb	r3, [r4]
1809:Drivers/lsm303agr/Src/lsm303agr_reg.c **** 
1810:Drivers/lsm303agr/Src/lsm303agr_reg.c ****   return ret;
 4164              		.loc 1 1810 3 is_stmt 1 view .LVU1056
1811:Drivers/lsm303agr/Src/lsm303agr_reg.c **** }
 4165              		.loc 1 1811 1 is_stmt 0 view .LVU1057
 4166 001a 02B0     		add	sp, sp, #8
 4167              	.LCFI163:
 4168              		.cfi_def_cfa_offset 8
 4169              		@ sp needed
 4170 001c 10BD     		pop	{r4, pc}
 4171              		.loc 1 1811 1 view .LVU1058
 4172              		.cfi_endproc
 4173              	.LFE199:
 4175              		.section	.text.lsm303agr_mag_data_ovr_get,"ax",%progbits
 4176              		.align	1
 4177              		.global	lsm303agr_mag_data_ovr_get
 4178              		.syntax unified
 4179              		.thumb
 4180              		.thumb_func
 4182              	lsm303agr_mag_data_ovr_get:
 4183              	.LVL267:
 4184              	.LFB200:
1812:Drivers/lsm303agr/Src/lsm303agr_reg.c **** 
1813:Drivers/lsm303agr/Src/lsm303agr_reg.c **** /**
1814:Drivers/lsm303agr/Src/lsm303agr_reg.c ****   * @brief  Magnetic set of data overrun.[get]
1815:Drivers/lsm303agr/Src/lsm303agr_reg.c ****   *
1816:Drivers/lsm303agr/Src/lsm303agr_reg.c ****   * @param  ctx    Read / write interface definitions.(ptr)
1817:Drivers/lsm303agr/Src/lsm303agr_reg.c ****   * @param  val    Get the values of zyxor in reg STATUS_REG_M.(ptr)
1818:Drivers/lsm303agr/Src/lsm303agr_reg.c ****   * @retval        Interface status (MANDATORY: return 0 -> no Error).
1819:Drivers/lsm303agr/Src/lsm303agr_reg.c ****   *
1820:Drivers/lsm303agr/Src/lsm303agr_reg.c ****   */
1821:Drivers/lsm303agr/Src/lsm303agr_reg.c **** int32_t lsm303agr_mag_data_ovr_get(stmdev_ctx_t *ctx, uint8_t *val)
1822:Drivers/lsm303agr/Src/lsm303agr_reg.c **** {
 4185              		.loc 1 1822 1 is_stmt 1 view -0
 4186              		.cfi_startproc
 4187              		@ args = 0, pretend = 0, frame = 8
 4188              		@ frame_needed = 0, uses_anonymous_args = 0
 4189              		.loc 1 1822 1 is_stmt 0 view .LVU1060
 4190 0000 10B5     		push	{r4, lr}
 4191              	.LCFI164:
 4192              		.cfi_def_cfa_offset 8
 4193              		.cfi_offset 4, -8
 4194              		.cfi_offset 14, -4
 4195 0002 82B0     		sub	sp, sp, #8
 4196              	.LCFI165:
 4197              		.cfi_def_cfa_offset 16
ARM GAS  C:\Users\SF\AppData\Local\Temp\ccFGOSN0.s 			page 109


 4198 0004 0C46     		mov	r4, r1
1823:Drivers/lsm303agr/Src/lsm303agr_reg.c ****   lsm303agr_status_reg_m_t status_reg_m;
 4199              		.loc 1 1823 3 is_stmt 1 view .LVU1061
1824:Drivers/lsm303agr/Src/lsm303agr_reg.c ****   int32_t ret;
 4200              		.loc 1 1824 3 view .LVU1062
1825:Drivers/lsm303agr/Src/lsm303agr_reg.c **** 
1826:Drivers/lsm303agr/Src/lsm303agr_reg.c ****   ret = lsm303agr_read_reg(ctx, LSM303AGR_STATUS_REG_M,
 4201              		.loc 1 1826 3 view .LVU1063
 4202              		.loc 1 1826 9 is_stmt 0 view .LVU1064
 4203 0006 0123     		movs	r3, #1
 4204 0008 01AA     		add	r2, sp, #4
 4205 000a 6721     		movs	r1, #103
 4206              	.LVL268:
 4207              		.loc 1 1826 9 view .LVU1065
 4208 000c FFF7FEFF 		bl	lsm303agr_read_reg
 4209              	.LVL269:
1827:Drivers/lsm303agr/Src/lsm303agr_reg.c ****                            (uint8_t *)&status_reg_m, 1);
1828:Drivers/lsm303agr/Src/lsm303agr_reg.c ****   *val = status_reg_m.zyxor;
 4210              		.loc 1 1828 3 is_stmt 1 view .LVU1066
 4211              		.loc 1 1828 22 is_stmt 0 view .LVU1067
 4212 0010 9DF80430 		ldrb	r3, [sp, #4]	@ zero_extendqisi2
 4213 0014 C3F3C013 		ubfx	r3, r3, #7, #1
 4214              		.loc 1 1828 8 view .LVU1068
 4215 0018 2370     		strb	r3, [r4]
1829:Drivers/lsm303agr/Src/lsm303agr_reg.c **** 
1830:Drivers/lsm303agr/Src/lsm303agr_reg.c ****   return ret;
 4216              		.loc 1 1830 3 is_stmt 1 view .LVU1069
1831:Drivers/lsm303agr/Src/lsm303agr_reg.c **** }
 4217              		.loc 1 1831 1 is_stmt 0 view .LVU1070
 4218 001a 02B0     		add	sp, sp, #8
 4219              	.LCFI166:
 4220              		.cfi_def_cfa_offset 8
 4221              		@ sp needed
 4222 001c 10BD     		pop	{r4, pc}
 4223              		.loc 1 1831 1 view .LVU1071
 4224              		.cfi_endproc
 4225              	.LFE200:
 4227              		.section	.text.lsm303agr_magnetic_raw_get,"ax",%progbits
 4228              		.align	1
 4229              		.global	lsm303agr_magnetic_raw_get
 4230              		.syntax unified
 4231              		.thumb
 4232              		.thumb_func
 4234              	lsm303agr_magnetic_raw_get:
 4235              	.LVL270:
 4236              	.LFB201:
1832:Drivers/lsm303agr/Src/lsm303agr_reg.c **** 
1833:Drivers/lsm303agr/Src/lsm303agr_reg.c **** /**
1834:Drivers/lsm303agr/Src/lsm303agr_reg.c ****   * @brief  Magnetic output value.[get]
1835:Drivers/lsm303agr/Src/lsm303agr_reg.c ****   *
1836:Drivers/lsm303agr/Src/lsm303agr_reg.c ****   * @param  ctx    Read / write interface definitions.(ptr)
1837:Drivers/lsm303agr/Src/lsm303agr_reg.c ****   * @param  buff   Buffer that stores data read.(ptr)
1838:Drivers/lsm303agr/Src/lsm303agr_reg.c ****   * @retval        Interface status (MANDATORY: return 0 -> no Error).
1839:Drivers/lsm303agr/Src/lsm303agr_reg.c ****   *
1840:Drivers/lsm303agr/Src/lsm303agr_reg.c ****   */
1841:Drivers/lsm303agr/Src/lsm303agr_reg.c **** int32_t lsm303agr_magnetic_raw_get(stmdev_ctx_t *ctx, int16_t *val)
1842:Drivers/lsm303agr/Src/lsm303agr_reg.c **** {
ARM GAS  C:\Users\SF\AppData\Local\Temp\ccFGOSN0.s 			page 110


 4237              		.loc 1 1842 1 is_stmt 1 view -0
 4238              		.cfi_startproc
 4239              		@ args = 0, pretend = 0, frame = 8
 4240              		@ frame_needed = 0, uses_anonymous_args = 0
 4241              		.loc 1 1842 1 is_stmt 0 view .LVU1073
 4242 0000 10B5     		push	{r4, lr}
 4243              	.LCFI167:
 4244              		.cfi_def_cfa_offset 8
 4245              		.cfi_offset 4, -8
 4246              		.cfi_offset 14, -4
 4247 0002 82B0     		sub	sp, sp, #8
 4248              	.LCFI168:
 4249              		.cfi_def_cfa_offset 16
 4250 0004 0C46     		mov	r4, r1
1843:Drivers/lsm303agr/Src/lsm303agr_reg.c ****   uint8_t buff[6];
 4251              		.loc 1 1843 3 is_stmt 1 view .LVU1074
1844:Drivers/lsm303agr/Src/lsm303agr_reg.c ****   int32_t ret;
 4252              		.loc 1 1844 3 view .LVU1075
1845:Drivers/lsm303agr/Src/lsm303agr_reg.c **** 
1846:Drivers/lsm303agr/Src/lsm303agr_reg.c ****   ret = lsm303agr_read_reg(ctx, LSM303AGR_OUTX_L_REG_M, buff, 6);
 4253              		.loc 1 1846 3 view .LVU1076
 4254              		.loc 1 1846 9 is_stmt 0 view .LVU1077
 4255 0006 0623     		movs	r3, #6
 4256 0008 6A46     		mov	r2, sp
 4257 000a 6821     		movs	r1, #104
 4258              	.LVL271:
 4259              		.loc 1 1846 9 view .LVU1078
 4260 000c FFF7FEFF 		bl	lsm303agr_read_reg
 4261              	.LVL272:
1847:Drivers/lsm303agr/Src/lsm303agr_reg.c ****   val[0] = (int16_t)buff[1];
 4262              		.loc 1 1847 3 is_stmt 1 view .LVU1079
 4263              		.loc 1 1847 12 is_stmt 0 view .LVU1080
 4264 0010 9DF80120 		ldrb	r2, [sp, #1]	@ zero_extendqisi2
 4265              		.loc 1 1847 10 view .LVU1081
 4266 0014 2280     		strh	r2, [r4]	@ movhi
1848:Drivers/lsm303agr/Src/lsm303agr_reg.c ****   val[0] = (val[0] * 256) + (int16_t)buff[0];
 4267              		.loc 1 1848 3 is_stmt 1 view .LVU1082
 4268              		.loc 1 1848 42 is_stmt 0 view .LVU1083
 4269 0016 9DF80030 		ldrb	r3, [sp]	@ zero_extendqisi2
 4270              		.loc 1 1848 27 view .LVU1084
 4271 001a 03EB0223 		add	r3, r3, r2, lsl #8
 4272              		.loc 1 1848 10 view .LVU1085
 4273 001e 2380     		strh	r3, [r4]	@ movhi
1849:Drivers/lsm303agr/Src/lsm303agr_reg.c ****   val[1] = (int16_t)buff[3];
 4274              		.loc 1 1849 3 is_stmt 1 view .LVU1086
 4275              		.loc 1 1849 12 is_stmt 0 view .LVU1087
 4276 0020 9DF80320 		ldrb	r2, [sp, #3]	@ zero_extendqisi2
 4277              		.loc 1 1849 10 view .LVU1088
 4278 0024 6280     		strh	r2, [r4, #2]	@ movhi
1850:Drivers/lsm303agr/Src/lsm303agr_reg.c ****   val[1] = (val[1] * 256) + (int16_t)buff[2];
 4279              		.loc 1 1850 3 is_stmt 1 view .LVU1089
 4280              		.loc 1 1850 42 is_stmt 0 view .LVU1090
 4281 0026 9DF80230 		ldrb	r3, [sp, #2]	@ zero_extendqisi2
 4282              		.loc 1 1850 27 view .LVU1091
 4283 002a 03EB0223 		add	r3, r3, r2, lsl #8
 4284              		.loc 1 1850 10 view .LVU1092
 4285 002e 6380     		strh	r3, [r4, #2]	@ movhi
ARM GAS  C:\Users\SF\AppData\Local\Temp\ccFGOSN0.s 			page 111


1851:Drivers/lsm303agr/Src/lsm303agr_reg.c ****   val[2] = (int16_t)buff[5];
 4286              		.loc 1 1851 3 is_stmt 1 view .LVU1093
 4287              		.loc 1 1851 12 is_stmt 0 view .LVU1094
 4288 0030 9DF80520 		ldrb	r2, [sp, #5]	@ zero_extendqisi2
 4289              		.loc 1 1851 10 view .LVU1095
 4290 0034 A280     		strh	r2, [r4, #4]	@ movhi
1852:Drivers/lsm303agr/Src/lsm303agr_reg.c ****   val[2] = (val[2] * 256) + (int16_t)buff[4];
 4291              		.loc 1 1852 3 is_stmt 1 view .LVU1096
 4292              		.loc 1 1852 42 is_stmt 0 view .LVU1097
 4293 0036 9DF80430 		ldrb	r3, [sp, #4]	@ zero_extendqisi2
 4294              		.loc 1 1852 27 view .LVU1098
 4295 003a 03EB0223 		add	r3, r3, r2, lsl #8
 4296              		.loc 1 1852 10 view .LVU1099
 4297 003e A380     		strh	r3, [r4, #4]	@ movhi
1853:Drivers/lsm303agr/Src/lsm303agr_reg.c **** 
1854:Drivers/lsm303agr/Src/lsm303agr_reg.c ****   return ret;
 4298              		.loc 1 1854 3 is_stmt 1 view .LVU1100
1855:Drivers/lsm303agr/Src/lsm303agr_reg.c **** }
 4299              		.loc 1 1855 1 is_stmt 0 view .LVU1101
 4300 0040 02B0     		add	sp, sp, #8
 4301              	.LCFI169:
 4302              		.cfi_def_cfa_offset 8
 4303              		@ sp needed
 4304 0042 10BD     		pop	{r4, pc}
 4305              		.loc 1 1855 1 view .LVU1102
 4306              		.cfi_endproc
 4307              	.LFE201:
 4309              		.section	.text.lsm303agr_xl_device_id_get,"ax",%progbits
 4310              		.align	1
 4311              		.global	lsm303agr_xl_device_id_get
 4312              		.syntax unified
 4313              		.thumb
 4314              		.thumb_func
 4316              	lsm303agr_xl_device_id_get:
 4317              	.LVL273:
 4318              	.LFB202:
1856:Drivers/lsm303agr/Src/lsm303agr_reg.c **** 
1857:Drivers/lsm303agr/Src/lsm303agr_reg.c **** /**
1858:Drivers/lsm303agr/Src/lsm303agr_reg.c ****   * @}
1859:Drivers/lsm303agr/Src/lsm303agr_reg.c ****   *
1860:Drivers/lsm303agr/Src/lsm303agr_reg.c ****   */
1861:Drivers/lsm303agr/Src/lsm303agr_reg.c **** 
1862:Drivers/lsm303agr/Src/lsm303agr_reg.c **** /**
1863:Drivers/lsm303agr/Src/lsm303agr_reg.c ****   * @addtogroup  common
1864:Drivers/lsm303agr/Src/lsm303agr_reg.c ****   * @brief   This section group common useful functions
1865:Drivers/lsm303agr/Src/lsm303agr_reg.c ****   * @{
1866:Drivers/lsm303agr/Src/lsm303agr_reg.c ****   *
1867:Drivers/lsm303agr/Src/lsm303agr_reg.c ****   */
1868:Drivers/lsm303agr/Src/lsm303agr_reg.c **** 
1869:Drivers/lsm303agr/Src/lsm303agr_reg.c **** /**
1870:Drivers/lsm303agr/Src/lsm303agr_reg.c ****   * @brief  DeviceWhoamI.[get]
1871:Drivers/lsm303agr/Src/lsm303agr_reg.c ****   *
1872:Drivers/lsm303agr/Src/lsm303agr_reg.c ****   * @param  ctx    Read / write interface definitions.(ptr)
1873:Drivers/lsm303agr/Src/lsm303agr_reg.c ****   * @param  buff   Buffer that stores data read.(ptr)
1874:Drivers/lsm303agr/Src/lsm303agr_reg.c ****   * @retval        Interface status (MANDATORY: return 0 -> no Error).
1875:Drivers/lsm303agr/Src/lsm303agr_reg.c ****   *
1876:Drivers/lsm303agr/Src/lsm303agr_reg.c ****   */
ARM GAS  C:\Users\SF\AppData\Local\Temp\ccFGOSN0.s 			page 112


1877:Drivers/lsm303agr/Src/lsm303agr_reg.c **** int32_t lsm303agr_xl_device_id_get(stmdev_ctx_t *ctx, uint8_t *buff)
1878:Drivers/lsm303agr/Src/lsm303agr_reg.c **** {
 4319              		.loc 1 1878 1 is_stmt 1 view -0
 4320              		.cfi_startproc
 4321              		@ args = 0, pretend = 0, frame = 0
 4322              		@ frame_needed = 0, uses_anonymous_args = 0
 4323              		.loc 1 1878 1 is_stmt 0 view .LVU1104
 4324 0000 08B5     		push	{r3, lr}
 4325              	.LCFI170:
 4326              		.cfi_def_cfa_offset 8
 4327              		.cfi_offset 3, -8
 4328              		.cfi_offset 14, -4
 4329 0002 0A46     		mov	r2, r1
1879:Drivers/lsm303agr/Src/lsm303agr_reg.c ****   int32_t ret;
 4330              		.loc 1 1879 3 is_stmt 1 view .LVU1105
1880:Drivers/lsm303agr/Src/lsm303agr_reg.c **** 
1881:Drivers/lsm303agr/Src/lsm303agr_reg.c ****   ret = lsm303agr_read_reg(ctx, LSM303AGR_WHO_AM_I_A, buff, 1);
 4331              		.loc 1 1881 3 view .LVU1106
 4332              		.loc 1 1881 9 is_stmt 0 view .LVU1107
 4333 0004 0123     		movs	r3, #1
 4334 0006 0F21     		movs	r1, #15
 4335              	.LVL274:
 4336              		.loc 1 1881 9 view .LVU1108
 4337 0008 FFF7FEFF 		bl	lsm303agr_read_reg
 4338              	.LVL275:
1882:Drivers/lsm303agr/Src/lsm303agr_reg.c **** 
1883:Drivers/lsm303agr/Src/lsm303agr_reg.c ****   return ret;
 4339              		.loc 1 1883 3 is_stmt 1 view .LVU1109
1884:Drivers/lsm303agr/Src/lsm303agr_reg.c **** }
 4340              		.loc 1 1884 1 is_stmt 0 view .LVU1110
 4341 000c 08BD     		pop	{r3, pc}
 4342              		.cfi_endproc
 4343              	.LFE202:
 4345              		.section	.text.lsm303agr_xl_self_test_set,"ax",%progbits
 4346              		.align	1
 4347              		.global	lsm303agr_xl_self_test_set
 4348              		.syntax unified
 4349              		.thumb
 4350              		.thumb_func
 4352              	lsm303agr_xl_self_test_set:
 4353              	.LVL276:
 4354              	.LFB203:
1885:Drivers/lsm303agr/Src/lsm303agr_reg.c **** 
1886:Drivers/lsm303agr/Src/lsm303agr_reg.c **** /**
1887:Drivers/lsm303agr/Src/lsm303agr_reg.c ****   * @brief  Self-test.[set]
1888:Drivers/lsm303agr/Src/lsm303agr_reg.c ****   *
1889:Drivers/lsm303agr/Src/lsm303agr_reg.c ****   * @param  ctx    Read / write interface definitions.(ptr)
1890:Drivers/lsm303agr/Src/lsm303agr_reg.c ****   * @param  val    Change the values of st in reg CTRL_REG4_A
1891:Drivers/lsm303agr/Src/lsm303agr_reg.c ****   * @retval        Interface status (MANDATORY: return 0 -> no Error).
1892:Drivers/lsm303agr/Src/lsm303agr_reg.c ****   *
1893:Drivers/lsm303agr/Src/lsm303agr_reg.c ****   */
1894:Drivers/lsm303agr/Src/lsm303agr_reg.c **** int32_t lsm303agr_xl_self_test_set(stmdev_ctx_t *ctx,
1895:Drivers/lsm303agr/Src/lsm303agr_reg.c ****                                    lsm303agr_st_a_t val)
1896:Drivers/lsm303agr/Src/lsm303agr_reg.c **** {
 4355              		.loc 1 1896 1 is_stmt 1 view -0
 4356              		.cfi_startproc
 4357              		@ args = 0, pretend = 0, frame = 8
ARM GAS  C:\Users\SF\AppData\Local\Temp\ccFGOSN0.s 			page 113


 4358              		@ frame_needed = 0, uses_anonymous_args = 0
 4359              		.loc 1 1896 1 is_stmt 0 view .LVU1112
 4360 0000 30B5     		push	{r4, r5, lr}
 4361              	.LCFI171:
 4362              		.cfi_def_cfa_offset 12
 4363              		.cfi_offset 4, -12
 4364              		.cfi_offset 5, -8
 4365              		.cfi_offset 14, -4
 4366 0002 83B0     		sub	sp, sp, #12
 4367              	.LCFI172:
 4368              		.cfi_def_cfa_offset 24
 4369 0004 0446     		mov	r4, r0
 4370 0006 0D46     		mov	r5, r1
1897:Drivers/lsm303agr/Src/lsm303agr_reg.c ****   lsm303agr_ctrl_reg4_a_t ctrl_reg4_a;
 4371              		.loc 1 1897 3 is_stmt 1 view .LVU1113
1898:Drivers/lsm303agr/Src/lsm303agr_reg.c ****   int32_t ret;
 4372              		.loc 1 1898 3 view .LVU1114
1899:Drivers/lsm303agr/Src/lsm303agr_reg.c **** 
1900:Drivers/lsm303agr/Src/lsm303agr_reg.c ****   ret = lsm303agr_read_reg(ctx, LSM303AGR_CTRL_REG4_A,
 4373              		.loc 1 1900 3 view .LVU1115
 4374              		.loc 1 1900 9 is_stmt 0 view .LVU1116
 4375 0008 0123     		movs	r3, #1
 4376 000a 01AA     		add	r2, sp, #4
 4377 000c 2321     		movs	r1, #35
 4378              	.LVL277:
 4379              		.loc 1 1900 9 view .LVU1117
 4380 000e FFF7FEFF 		bl	lsm303agr_read_reg
 4381              	.LVL278:
1901:Drivers/lsm303agr/Src/lsm303agr_reg.c ****                            (uint8_t *)&ctrl_reg4_a, 1);
1902:Drivers/lsm303agr/Src/lsm303agr_reg.c **** 
1903:Drivers/lsm303agr/Src/lsm303agr_reg.c ****   if (ret == 0)
 4382              		.loc 1 1903 3 is_stmt 1 view .LVU1118
 4383              		.loc 1 1903 6 is_stmt 0 view .LVU1119
 4384 0012 08B1     		cbz	r0, .L273
 4385              	.LVL279:
 4386              	.L270:
1904:Drivers/lsm303agr/Src/lsm303agr_reg.c ****   {
1905:Drivers/lsm303agr/Src/lsm303agr_reg.c ****     ctrl_reg4_a.st = (uint8_t)val;
1906:Drivers/lsm303agr/Src/lsm303agr_reg.c ****     ret = lsm303agr_write_reg(ctx, LSM303AGR_CTRL_REG4_A,
1907:Drivers/lsm303agr/Src/lsm303agr_reg.c ****                               (uint8_t *)&ctrl_reg4_a, 1);
1908:Drivers/lsm303agr/Src/lsm303agr_reg.c ****   }
1909:Drivers/lsm303agr/Src/lsm303agr_reg.c **** 
1910:Drivers/lsm303agr/Src/lsm303agr_reg.c ****   return ret;
1911:Drivers/lsm303agr/Src/lsm303agr_reg.c **** }
 4387              		.loc 1 1911 1 view .LVU1120
 4388 0014 03B0     		add	sp, sp, #12
 4389              	.LCFI173:
 4390              		.cfi_remember_state
 4391              		.cfi_def_cfa_offset 12
 4392              		@ sp needed
 4393 0016 30BD     		pop	{r4, r5, pc}
 4394              	.LVL280:
 4395              	.L273:
 4396              	.LCFI174:
 4397              		.cfi_restore_state
1905:Drivers/lsm303agr/Src/lsm303agr_reg.c ****     ret = lsm303agr_write_reg(ctx, LSM303AGR_CTRL_REG4_A,
 4398              		.loc 1 1905 5 is_stmt 1 view .LVU1121
ARM GAS  C:\Users\SF\AppData\Local\Temp\ccFGOSN0.s 			page 114


1905:Drivers/lsm303agr/Src/lsm303agr_reg.c ****     ret = lsm303agr_write_reg(ctx, LSM303AGR_CTRL_REG4_A,
 4399              		.loc 1 1905 20 is_stmt 0 view .LVU1122
 4400 0018 9DF80430 		ldrb	r3, [sp, #4]	@ zero_extendqisi2
 4401 001c 65F34203 		bfi	r3, r5, #1, #2
 4402 0020 8DF80430 		strb	r3, [sp, #4]
1906:Drivers/lsm303agr/Src/lsm303agr_reg.c ****                               (uint8_t *)&ctrl_reg4_a, 1);
 4403              		.loc 1 1906 5 is_stmt 1 view .LVU1123
1906:Drivers/lsm303agr/Src/lsm303agr_reg.c ****                               (uint8_t *)&ctrl_reg4_a, 1);
 4404              		.loc 1 1906 11 is_stmt 0 view .LVU1124
 4405 0024 0123     		movs	r3, #1
 4406              	.LVL281:
1906:Drivers/lsm303agr/Src/lsm303agr_reg.c ****                               (uint8_t *)&ctrl_reg4_a, 1);
 4407              		.loc 1 1906 11 view .LVU1125
 4408 0026 01AA     		add	r2, sp, #4
 4409 0028 2321     		movs	r1, #35
 4410 002a 2046     		mov	r0, r4
 4411 002c FFF7FEFF 		bl	lsm303agr_write_reg
 4412              	.LVL282:
1910:Drivers/lsm303agr/Src/lsm303agr_reg.c **** }
 4413              		.loc 1 1910 3 is_stmt 1 view .LVU1126
1910:Drivers/lsm303agr/Src/lsm303agr_reg.c **** }
 4414              		.loc 1 1910 10 is_stmt 0 view .LVU1127
 4415 0030 F0E7     		b	.L270
 4416              		.cfi_endproc
 4417              	.LFE203:
 4419              		.section	.text.lsm303agr_xl_self_test_get,"ax",%progbits
 4420              		.align	1
 4421              		.global	lsm303agr_xl_self_test_get
 4422              		.syntax unified
 4423              		.thumb
 4424              		.thumb_func
 4426              	lsm303agr_xl_self_test_get:
 4427              	.LVL283:
 4428              	.LFB204:
1912:Drivers/lsm303agr/Src/lsm303agr_reg.c **** 
1913:Drivers/lsm303agr/Src/lsm303agr_reg.c **** /**
1914:Drivers/lsm303agr/Src/lsm303agr_reg.c ****   * @brief  Self-test.[get]
1915:Drivers/lsm303agr/Src/lsm303agr_reg.c ****   *
1916:Drivers/lsm303agr/Src/lsm303agr_reg.c ****   * @param  ctx    Read / write interface definitions.(ptr)
1917:Drivers/lsm303agr/Src/lsm303agr_reg.c ****   * @param  val    Get the values of st in reg CTRL_REG4_A.(ptr)
1918:Drivers/lsm303agr/Src/lsm303agr_reg.c ****   * @retval        Interface status (MANDATORY: return 0 -> no Error).
1919:Drivers/lsm303agr/Src/lsm303agr_reg.c ****   *
1920:Drivers/lsm303agr/Src/lsm303agr_reg.c ****   */
1921:Drivers/lsm303agr/Src/lsm303agr_reg.c **** int32_t lsm303agr_xl_self_test_get(stmdev_ctx_t *ctx,
1922:Drivers/lsm303agr/Src/lsm303agr_reg.c ****                                    lsm303agr_st_a_t *val)
1923:Drivers/lsm303agr/Src/lsm303agr_reg.c **** {
 4429              		.loc 1 1923 1 is_stmt 1 view -0
 4430              		.cfi_startproc
 4431              		@ args = 0, pretend = 0, frame = 8
 4432              		@ frame_needed = 0, uses_anonymous_args = 0
 4433              		.loc 1 1923 1 is_stmt 0 view .LVU1129
 4434 0000 10B5     		push	{r4, lr}
 4435              	.LCFI175:
 4436              		.cfi_def_cfa_offset 8
 4437              		.cfi_offset 4, -8
 4438              		.cfi_offset 14, -4
 4439 0002 82B0     		sub	sp, sp, #8
ARM GAS  C:\Users\SF\AppData\Local\Temp\ccFGOSN0.s 			page 115


 4440              	.LCFI176:
 4441              		.cfi_def_cfa_offset 16
 4442 0004 0C46     		mov	r4, r1
1924:Drivers/lsm303agr/Src/lsm303agr_reg.c ****   lsm303agr_ctrl_reg4_a_t ctrl_reg4_a;
 4443              		.loc 1 1924 3 is_stmt 1 view .LVU1130
1925:Drivers/lsm303agr/Src/lsm303agr_reg.c ****   int32_t ret;
 4444              		.loc 1 1925 3 view .LVU1131
1926:Drivers/lsm303agr/Src/lsm303agr_reg.c **** 
1927:Drivers/lsm303agr/Src/lsm303agr_reg.c ****   ret = lsm303agr_read_reg(ctx, LSM303AGR_CTRL_REG4_A,
 4445              		.loc 1 1927 3 view .LVU1132
 4446              		.loc 1 1927 9 is_stmt 0 view .LVU1133
 4447 0006 0123     		movs	r3, #1
 4448 0008 01AA     		add	r2, sp, #4
 4449 000a 2321     		movs	r1, #35
 4450              	.LVL284:
 4451              		.loc 1 1927 9 view .LVU1134
 4452 000c FFF7FEFF 		bl	lsm303agr_read_reg
 4453              	.LVL285:
1928:Drivers/lsm303agr/Src/lsm303agr_reg.c ****                            (uint8_t *)&ctrl_reg4_a, 1);
1929:Drivers/lsm303agr/Src/lsm303agr_reg.c **** 
1930:Drivers/lsm303agr/Src/lsm303agr_reg.c ****   switch (ctrl_reg4_a.st)
 4454              		.loc 1 1930 3 is_stmt 1 view .LVU1135
 4455              		.loc 1 1930 22 is_stmt 0 view .LVU1136
 4456 0010 9DF80430 		ldrb	r3, [sp, #4]	@ zero_extendqisi2
 4457 0014 C3F34103 		ubfx	r3, r3, #1, #2
 4458              		.loc 1 1930 3 view .LVU1137
 4459 0018 012B     		cmp	r3, #1
 4460 001a 08D0     		beq	.L275
 4461 001c 022B     		cmp	r3, #2
 4462 001e 09D0     		beq	.L276
 4463 0020 13B1     		cbz	r3, .L280
1931:Drivers/lsm303agr/Src/lsm303agr_reg.c ****   {
1932:Drivers/lsm303agr/Src/lsm303agr_reg.c ****     case LSM303AGR_ST_DISABLE:
1933:Drivers/lsm303agr/Src/lsm303agr_reg.c ****       *val = LSM303AGR_ST_DISABLE;
1934:Drivers/lsm303agr/Src/lsm303agr_reg.c ****       break;
1935:Drivers/lsm303agr/Src/lsm303agr_reg.c **** 
1936:Drivers/lsm303agr/Src/lsm303agr_reg.c ****     case LSM303AGR_ST_POSITIVE:
1937:Drivers/lsm303agr/Src/lsm303agr_reg.c ****       *val = LSM303AGR_ST_POSITIVE;
1938:Drivers/lsm303agr/Src/lsm303agr_reg.c ****       break;
1939:Drivers/lsm303agr/Src/lsm303agr_reg.c **** 
1940:Drivers/lsm303agr/Src/lsm303agr_reg.c ****     case LSM303AGR_ST_NEGATIVE:
1941:Drivers/lsm303agr/Src/lsm303agr_reg.c ****       *val = LSM303AGR_ST_NEGATIVE;
1942:Drivers/lsm303agr/Src/lsm303agr_reg.c ****       break;
1943:Drivers/lsm303agr/Src/lsm303agr_reg.c **** 
1944:Drivers/lsm303agr/Src/lsm303agr_reg.c ****     default:
1945:Drivers/lsm303agr/Src/lsm303agr_reg.c ****       *val = LSM303AGR_ST_DISABLE;
 4464              		.loc 1 1945 7 is_stmt 1 view .LVU1138
 4465              		.loc 1 1945 12 is_stmt 0 view .LVU1139
 4466 0022 0023     		movs	r3, #0
 4467 0024 2370     		strb	r3, [r4]
1946:Drivers/lsm303agr/Src/lsm303agr_reg.c ****       break;
 4468              		.loc 1 1946 7 is_stmt 1 view .LVU1140
1947:Drivers/lsm303agr/Src/lsm303agr_reg.c ****   }
1948:Drivers/lsm303agr/Src/lsm303agr_reg.c **** 
1949:Drivers/lsm303agr/Src/lsm303agr_reg.c ****   return ret;
 4469              		.loc 1 1949 3 view .LVU1141
 4470              		.loc 1 1949 10 is_stmt 0 view .LVU1142
ARM GAS  C:\Users\SF\AppData\Local\Temp\ccFGOSN0.s 			page 116


 4471 0026 00E0     		b	.L274
 4472              	.L280:
1933:Drivers/lsm303agr/Src/lsm303agr_reg.c ****       break;
 4473              		.loc 1 1933 7 is_stmt 1 view .LVU1143
1933:Drivers/lsm303agr/Src/lsm303agr_reg.c ****       break;
 4474              		.loc 1 1933 12 is_stmt 0 view .LVU1144
 4475 0028 2370     		strb	r3, [r4]
1934:Drivers/lsm303agr/Src/lsm303agr_reg.c **** 
 4476              		.loc 1 1934 7 is_stmt 1 view .LVU1145
 4477              	.L274:
1950:Drivers/lsm303agr/Src/lsm303agr_reg.c **** }
 4478              		.loc 1 1950 1 is_stmt 0 view .LVU1146
 4479 002a 02B0     		add	sp, sp, #8
 4480              	.LCFI177:
 4481              		.cfi_remember_state
 4482              		.cfi_def_cfa_offset 8
 4483              		@ sp needed
 4484 002c 10BD     		pop	{r4, pc}
 4485              	.LVL286:
 4486              	.L275:
 4487              	.LCFI178:
 4488              		.cfi_restore_state
1937:Drivers/lsm303agr/Src/lsm303agr_reg.c ****       break;
 4489              		.loc 1 1937 7 is_stmt 1 view .LVU1147
1937:Drivers/lsm303agr/Src/lsm303agr_reg.c ****       break;
 4490              		.loc 1 1937 12 is_stmt 0 view .LVU1148
 4491 002e 0123     		movs	r3, #1
 4492 0030 2370     		strb	r3, [r4]
1938:Drivers/lsm303agr/Src/lsm303agr_reg.c **** 
 4493              		.loc 1 1938 7 is_stmt 1 view .LVU1149
 4494 0032 FAE7     		b	.L274
 4495              	.L276:
1941:Drivers/lsm303agr/Src/lsm303agr_reg.c ****       break;
 4496              		.loc 1 1941 7 view .LVU1150
1941:Drivers/lsm303agr/Src/lsm303agr_reg.c ****       break;
 4497              		.loc 1 1941 12 is_stmt 0 view .LVU1151
 4498 0034 0223     		movs	r3, #2
 4499 0036 2370     		strb	r3, [r4]
1942:Drivers/lsm303agr/Src/lsm303agr_reg.c **** 
 4500              		.loc 1 1942 7 is_stmt 1 view .LVU1152
 4501 0038 F7E7     		b	.L274
 4502              		.cfi_endproc
 4503              	.LFE204:
 4505              		.section	.text.lsm303agr_xl_data_format_set,"ax",%progbits
 4506              		.align	1
 4507              		.global	lsm303agr_xl_data_format_set
 4508              		.syntax unified
 4509              		.thumb
 4510              		.thumb_func
 4512              	lsm303agr_xl_data_format_set:
 4513              	.LVL287:
 4514              	.LFB205:
1951:Drivers/lsm303agr/Src/lsm303agr_reg.c **** 
1952:Drivers/lsm303agr/Src/lsm303agr_reg.c **** /**
1953:Drivers/lsm303agr/Src/lsm303agr_reg.c ****   * @brief  Big/Little Endian data selection.[set]
1954:Drivers/lsm303agr/Src/lsm303agr_reg.c ****   *
1955:Drivers/lsm303agr/Src/lsm303agr_reg.c ****   * @param  ctx    Read / write interface definitions.(ptr)
ARM GAS  C:\Users\SF\AppData\Local\Temp\ccFGOSN0.s 			page 117


1956:Drivers/lsm303agr/Src/lsm303agr_reg.c ****   * @param  val    Change the values of ble in reg CTRL_REG4_A
1957:Drivers/lsm303agr/Src/lsm303agr_reg.c ****   * @retval        Interface status (MANDATORY: return 0 -> no Error).
1958:Drivers/lsm303agr/Src/lsm303agr_reg.c ****   *
1959:Drivers/lsm303agr/Src/lsm303agr_reg.c ****   */
1960:Drivers/lsm303agr/Src/lsm303agr_reg.c **** int32_t lsm303agr_xl_data_format_set(stmdev_ctx_t *ctx,
1961:Drivers/lsm303agr/Src/lsm303agr_reg.c ****                                      lsm303agr_ble_a_t val)
1962:Drivers/lsm303agr/Src/lsm303agr_reg.c **** {
 4515              		.loc 1 1962 1 view -0
 4516              		.cfi_startproc
 4517              		@ args = 0, pretend = 0, frame = 8
 4518              		@ frame_needed = 0, uses_anonymous_args = 0
 4519              		.loc 1 1962 1 is_stmt 0 view .LVU1154
 4520 0000 30B5     		push	{r4, r5, lr}
 4521              	.LCFI179:
 4522              		.cfi_def_cfa_offset 12
 4523              		.cfi_offset 4, -12
 4524              		.cfi_offset 5, -8
 4525              		.cfi_offset 14, -4
 4526 0002 83B0     		sub	sp, sp, #12
 4527              	.LCFI180:
 4528              		.cfi_def_cfa_offset 24
 4529 0004 0446     		mov	r4, r0
 4530 0006 0D46     		mov	r5, r1
1963:Drivers/lsm303agr/Src/lsm303agr_reg.c ****   lsm303agr_ctrl_reg4_a_t ctrl_reg4_a;
 4531              		.loc 1 1963 3 is_stmt 1 view .LVU1155
1964:Drivers/lsm303agr/Src/lsm303agr_reg.c ****   int32_t ret;
 4532              		.loc 1 1964 3 view .LVU1156
1965:Drivers/lsm303agr/Src/lsm303agr_reg.c **** 
1966:Drivers/lsm303agr/Src/lsm303agr_reg.c ****   ret = lsm303agr_read_reg(ctx, LSM303AGR_CTRL_REG4_A,
 4533              		.loc 1 1966 3 view .LVU1157
 4534              		.loc 1 1966 9 is_stmt 0 view .LVU1158
 4535 0008 0123     		movs	r3, #1
 4536 000a 01AA     		add	r2, sp, #4
 4537 000c 2321     		movs	r1, #35
 4538              	.LVL288:
 4539              		.loc 1 1966 9 view .LVU1159
 4540 000e FFF7FEFF 		bl	lsm303agr_read_reg
 4541              	.LVL289:
1967:Drivers/lsm303agr/Src/lsm303agr_reg.c ****                            (uint8_t *)&ctrl_reg4_a, 1);
1968:Drivers/lsm303agr/Src/lsm303agr_reg.c **** 
1969:Drivers/lsm303agr/Src/lsm303agr_reg.c ****   if (ret == 0)
 4542              		.loc 1 1969 3 is_stmt 1 view .LVU1160
 4543              		.loc 1 1969 6 is_stmt 0 view .LVU1161
 4544 0012 08B1     		cbz	r0, .L284
 4545              	.LVL290:
 4546              	.L281:
1970:Drivers/lsm303agr/Src/lsm303agr_reg.c ****   {
1971:Drivers/lsm303agr/Src/lsm303agr_reg.c ****     ctrl_reg4_a.ble = (uint8_t)val;
1972:Drivers/lsm303agr/Src/lsm303agr_reg.c ****     ret = lsm303agr_write_reg(ctx, LSM303AGR_CTRL_REG4_A,
1973:Drivers/lsm303agr/Src/lsm303agr_reg.c ****                               (uint8_t *)&ctrl_reg4_a, 1);
1974:Drivers/lsm303agr/Src/lsm303agr_reg.c ****   }
1975:Drivers/lsm303agr/Src/lsm303agr_reg.c **** 
1976:Drivers/lsm303agr/Src/lsm303agr_reg.c ****   return ret;
1977:Drivers/lsm303agr/Src/lsm303agr_reg.c **** }
 4547              		.loc 1 1977 1 view .LVU1162
 4548 0014 03B0     		add	sp, sp, #12
 4549              	.LCFI181:
ARM GAS  C:\Users\SF\AppData\Local\Temp\ccFGOSN0.s 			page 118


 4550              		.cfi_remember_state
 4551              		.cfi_def_cfa_offset 12
 4552              		@ sp needed
 4553 0016 30BD     		pop	{r4, r5, pc}
 4554              	.LVL291:
 4555              	.L284:
 4556              	.LCFI182:
 4557              		.cfi_restore_state
1971:Drivers/lsm303agr/Src/lsm303agr_reg.c ****     ret = lsm303agr_write_reg(ctx, LSM303AGR_CTRL_REG4_A,
 4558              		.loc 1 1971 5 is_stmt 1 view .LVU1163
1971:Drivers/lsm303agr/Src/lsm303agr_reg.c ****     ret = lsm303agr_write_reg(ctx, LSM303AGR_CTRL_REG4_A,
 4559              		.loc 1 1971 21 is_stmt 0 view .LVU1164
 4560 0018 9DF80430 		ldrb	r3, [sp, #4]	@ zero_extendqisi2
 4561 001c 65F38613 		bfi	r3, r5, #6, #1
 4562 0020 8DF80430 		strb	r3, [sp, #4]
1972:Drivers/lsm303agr/Src/lsm303agr_reg.c ****                               (uint8_t *)&ctrl_reg4_a, 1);
 4563              		.loc 1 1972 5 is_stmt 1 view .LVU1165
1972:Drivers/lsm303agr/Src/lsm303agr_reg.c ****                               (uint8_t *)&ctrl_reg4_a, 1);
 4564              		.loc 1 1972 11 is_stmt 0 view .LVU1166
 4565 0024 0123     		movs	r3, #1
 4566              	.LVL292:
1972:Drivers/lsm303agr/Src/lsm303agr_reg.c ****                               (uint8_t *)&ctrl_reg4_a, 1);
 4567              		.loc 1 1972 11 view .LVU1167
 4568 0026 01AA     		add	r2, sp, #4
 4569 0028 2321     		movs	r1, #35
 4570 002a 2046     		mov	r0, r4
 4571 002c FFF7FEFF 		bl	lsm303agr_write_reg
 4572              	.LVL293:
1976:Drivers/lsm303agr/Src/lsm303agr_reg.c **** }
 4573              		.loc 1 1976 3 is_stmt 1 view .LVU1168
1976:Drivers/lsm303agr/Src/lsm303agr_reg.c **** }
 4574              		.loc 1 1976 10 is_stmt 0 view .LVU1169
 4575 0030 F0E7     		b	.L281
 4576              		.cfi_endproc
 4577              	.LFE205:
 4579              		.section	.text.lsm303agr_xl_data_format_get,"ax",%progbits
 4580              		.align	1
 4581              		.global	lsm303agr_xl_data_format_get
 4582              		.syntax unified
 4583              		.thumb
 4584              		.thumb_func
 4586              	lsm303agr_xl_data_format_get:
 4587              	.LVL294:
 4588              	.LFB206:
1978:Drivers/lsm303agr/Src/lsm303agr_reg.c **** 
1979:Drivers/lsm303agr/Src/lsm303agr_reg.c **** /**
1980:Drivers/lsm303agr/Src/lsm303agr_reg.c ****   * @brief  Big/Little Endian data selection.[get]
1981:Drivers/lsm303agr/Src/lsm303agr_reg.c ****   *
1982:Drivers/lsm303agr/Src/lsm303agr_reg.c ****   * @param  ctx    Read / write interface definitions.(ptr)
1983:Drivers/lsm303agr/Src/lsm303agr_reg.c ****   * @param  val    Get the values of ble in reg CTRL_REG4_A.(ptr)
1984:Drivers/lsm303agr/Src/lsm303agr_reg.c ****   * @retval        Interface status (MANDATORY: return 0 -> no Error).
1985:Drivers/lsm303agr/Src/lsm303agr_reg.c ****   *
1986:Drivers/lsm303agr/Src/lsm303agr_reg.c ****   */
1987:Drivers/lsm303agr/Src/lsm303agr_reg.c **** int32_t lsm303agr_xl_data_format_get(stmdev_ctx_t *ctx,
1988:Drivers/lsm303agr/Src/lsm303agr_reg.c ****                                      lsm303agr_ble_a_t *val)
1989:Drivers/lsm303agr/Src/lsm303agr_reg.c **** {
 4589              		.loc 1 1989 1 is_stmt 1 view -0
ARM GAS  C:\Users\SF\AppData\Local\Temp\ccFGOSN0.s 			page 119


 4590              		.cfi_startproc
 4591              		@ args = 0, pretend = 0, frame = 8
 4592              		@ frame_needed = 0, uses_anonymous_args = 0
 4593              		.loc 1 1989 1 is_stmt 0 view .LVU1171
 4594 0000 10B5     		push	{r4, lr}
 4595              	.LCFI183:
 4596              		.cfi_def_cfa_offset 8
 4597              		.cfi_offset 4, -8
 4598              		.cfi_offset 14, -4
 4599 0002 82B0     		sub	sp, sp, #8
 4600              	.LCFI184:
 4601              		.cfi_def_cfa_offset 16
 4602 0004 0C46     		mov	r4, r1
1990:Drivers/lsm303agr/Src/lsm303agr_reg.c ****   lsm303agr_ctrl_reg4_a_t ctrl_reg4_a;
 4603              		.loc 1 1990 3 is_stmt 1 view .LVU1172
1991:Drivers/lsm303agr/Src/lsm303agr_reg.c ****   int32_t ret;
 4604              		.loc 1 1991 3 view .LVU1173
1992:Drivers/lsm303agr/Src/lsm303agr_reg.c **** 
1993:Drivers/lsm303agr/Src/lsm303agr_reg.c ****   ret = lsm303agr_read_reg(ctx, LSM303AGR_CTRL_REG4_A,
 4605              		.loc 1 1993 3 view .LVU1174
 4606              		.loc 1 1993 9 is_stmt 0 view .LVU1175
 4607 0006 0123     		movs	r3, #1
 4608 0008 01AA     		add	r2, sp, #4
 4609 000a 2321     		movs	r1, #35
 4610              	.LVL295:
 4611              		.loc 1 1993 9 view .LVU1176
 4612 000c FFF7FEFF 		bl	lsm303agr_read_reg
 4613              	.LVL296:
1994:Drivers/lsm303agr/Src/lsm303agr_reg.c ****                            (uint8_t *)&ctrl_reg4_a, 1);
1995:Drivers/lsm303agr/Src/lsm303agr_reg.c **** 
1996:Drivers/lsm303agr/Src/lsm303agr_reg.c ****   switch (ctrl_reg4_a.ble)
 4614              		.loc 1 1996 3 is_stmt 1 view .LVU1177
 4615              		.loc 1 1996 22 is_stmt 0 view .LVU1178
 4616 0010 9DF80430 		ldrb	r3, [sp, #4]	@ zero_extendqisi2
 4617 0014 C3F38012 		ubfx	r2, r3, #6, #1
 4618              		.loc 1 1996 3 view .LVU1179
 4619 0018 13F0400F 		tst	r3, #64
 4620 001c 03D0     		beq	.L286
 4621 001e 32B9     		cbnz	r2, .L287
1997:Drivers/lsm303agr/Src/lsm303agr_reg.c ****   {
1998:Drivers/lsm303agr/Src/lsm303agr_reg.c ****     case LSM303AGR_XL_LSB_AT_LOW_ADD:
1999:Drivers/lsm303agr/Src/lsm303agr_reg.c ****       *val = LSM303AGR_XL_LSB_AT_LOW_ADD;
2000:Drivers/lsm303agr/Src/lsm303agr_reg.c ****       break;
2001:Drivers/lsm303agr/Src/lsm303agr_reg.c **** 
2002:Drivers/lsm303agr/Src/lsm303agr_reg.c ****     case LSM303AGR_XL_MSB_AT_LOW_ADD:
2003:Drivers/lsm303agr/Src/lsm303agr_reg.c ****       *val = LSM303AGR_XL_MSB_AT_LOW_ADD;
2004:Drivers/lsm303agr/Src/lsm303agr_reg.c ****       break;
2005:Drivers/lsm303agr/Src/lsm303agr_reg.c **** 
2006:Drivers/lsm303agr/Src/lsm303agr_reg.c ****     default:
2007:Drivers/lsm303agr/Src/lsm303agr_reg.c ****       *val = LSM303AGR_XL_LSB_AT_LOW_ADD;
 4622              		.loc 1 2007 7 is_stmt 1 view .LVU1180
 4623              		.loc 1 2007 12 is_stmt 0 view .LVU1181
 4624 0020 0023     		movs	r3, #0
 4625 0022 2370     		strb	r3, [r4]
2008:Drivers/lsm303agr/Src/lsm303agr_reg.c ****       break;
 4626              		.loc 1 2008 7 is_stmt 1 view .LVU1182
2009:Drivers/lsm303agr/Src/lsm303agr_reg.c ****   }
ARM GAS  C:\Users\SF\AppData\Local\Temp\ccFGOSN0.s 			page 120


2010:Drivers/lsm303agr/Src/lsm303agr_reg.c **** 
2011:Drivers/lsm303agr/Src/lsm303agr_reg.c ****   return ret;
 4627              		.loc 1 2011 3 view .LVU1183
 4628              		.loc 1 2011 10 is_stmt 0 view .LVU1184
 4629 0024 01E0     		b	.L285
 4630              	.L286:
1999:Drivers/lsm303agr/Src/lsm303agr_reg.c ****       break;
 4631              		.loc 1 1999 7 is_stmt 1 view .LVU1185
1999:Drivers/lsm303agr/Src/lsm303agr_reg.c ****       break;
 4632              		.loc 1 1999 12 is_stmt 0 view .LVU1186
 4633 0026 0023     		movs	r3, #0
 4634 0028 2370     		strb	r3, [r4]
2000:Drivers/lsm303agr/Src/lsm303agr_reg.c **** 
 4635              		.loc 1 2000 7 is_stmt 1 view .LVU1187
 4636              	.L285:
2012:Drivers/lsm303agr/Src/lsm303agr_reg.c **** }
 4637              		.loc 1 2012 1 is_stmt 0 view .LVU1188
 4638 002a 02B0     		add	sp, sp, #8
 4639              	.LCFI185:
 4640              		.cfi_remember_state
 4641              		.cfi_def_cfa_offset 8
 4642              		@ sp needed
 4643 002c 10BD     		pop	{r4, pc}
 4644              	.LVL297:
 4645              	.L287:
 4646              	.LCFI186:
 4647              		.cfi_restore_state
2003:Drivers/lsm303agr/Src/lsm303agr_reg.c ****       break;
 4648              		.loc 1 2003 7 is_stmt 1 view .LVU1189
2003:Drivers/lsm303agr/Src/lsm303agr_reg.c ****       break;
 4649              		.loc 1 2003 12 is_stmt 0 view .LVU1190
 4650 002e 0123     		movs	r3, #1
 4651 0030 2370     		strb	r3, [r4]
2004:Drivers/lsm303agr/Src/lsm303agr_reg.c **** 
 4652              		.loc 1 2004 7 is_stmt 1 view .LVU1191
 4653 0032 FAE7     		b	.L285
 4654              		.cfi_endproc
 4655              	.LFE206:
 4657              		.section	.text.lsm303agr_xl_boot_set,"ax",%progbits
 4658              		.align	1
 4659              		.global	lsm303agr_xl_boot_set
 4660              		.syntax unified
 4661              		.thumb
 4662              		.thumb_func
 4664              	lsm303agr_xl_boot_set:
 4665              	.LVL298:
 4666              	.LFB207:
2013:Drivers/lsm303agr/Src/lsm303agr_reg.c **** 
2014:Drivers/lsm303agr/Src/lsm303agr_reg.c **** /**
2015:Drivers/lsm303agr/Src/lsm303agr_reg.c ****   * @brief  Reboot memory content. Reload the calibration parameters.[set]
2016:Drivers/lsm303agr/Src/lsm303agr_reg.c ****   *
2017:Drivers/lsm303agr/Src/lsm303agr_reg.c ****   * @param  ctx    Read / write interface definitions.(ptr)
2018:Drivers/lsm303agr/Src/lsm303agr_reg.c ****   * @param  val    Change the values of boot in reg CTRL_REG5_A
2019:Drivers/lsm303agr/Src/lsm303agr_reg.c ****   * @retval        Interface status (MANDATORY: return 0 -> no Error).
2020:Drivers/lsm303agr/Src/lsm303agr_reg.c ****   *
2021:Drivers/lsm303agr/Src/lsm303agr_reg.c ****   */
2022:Drivers/lsm303agr/Src/lsm303agr_reg.c **** int32_t lsm303agr_xl_boot_set(stmdev_ctx_t *ctx, uint8_t val)
ARM GAS  C:\Users\SF\AppData\Local\Temp\ccFGOSN0.s 			page 121


2023:Drivers/lsm303agr/Src/lsm303agr_reg.c **** {
 4667              		.loc 1 2023 1 view -0
 4668              		.cfi_startproc
 4669              		@ args = 0, pretend = 0, frame = 8
 4670              		@ frame_needed = 0, uses_anonymous_args = 0
 4671              		.loc 1 2023 1 is_stmt 0 view .LVU1193
 4672 0000 30B5     		push	{r4, r5, lr}
 4673              	.LCFI187:
 4674              		.cfi_def_cfa_offset 12
 4675              		.cfi_offset 4, -12
 4676              		.cfi_offset 5, -8
 4677              		.cfi_offset 14, -4
 4678 0002 83B0     		sub	sp, sp, #12
 4679              	.LCFI188:
 4680              		.cfi_def_cfa_offset 24
 4681 0004 0446     		mov	r4, r0
 4682 0006 0D46     		mov	r5, r1
2024:Drivers/lsm303agr/Src/lsm303agr_reg.c ****   lsm303agr_ctrl_reg5_a_t ctrl_reg5_a;
 4683              		.loc 1 2024 3 is_stmt 1 view .LVU1194
2025:Drivers/lsm303agr/Src/lsm303agr_reg.c ****   int32_t ret;
 4684              		.loc 1 2025 3 view .LVU1195
2026:Drivers/lsm303agr/Src/lsm303agr_reg.c **** 
2027:Drivers/lsm303agr/Src/lsm303agr_reg.c ****   ret = lsm303agr_read_reg(ctx, LSM303AGR_CTRL_REG5_A,
 4685              		.loc 1 2027 3 view .LVU1196
 4686              		.loc 1 2027 9 is_stmt 0 view .LVU1197
 4687 0008 0123     		movs	r3, #1
 4688 000a 01AA     		add	r2, sp, #4
 4689 000c 2421     		movs	r1, #36
 4690              	.LVL299:
 4691              		.loc 1 2027 9 view .LVU1198
 4692 000e FFF7FEFF 		bl	lsm303agr_read_reg
 4693              	.LVL300:
2028:Drivers/lsm303agr/Src/lsm303agr_reg.c ****                            (uint8_t *)&ctrl_reg5_a, 1);
2029:Drivers/lsm303agr/Src/lsm303agr_reg.c **** 
2030:Drivers/lsm303agr/Src/lsm303agr_reg.c ****   if (ret == 0)
 4694              		.loc 1 2030 3 is_stmt 1 view .LVU1199
 4695              		.loc 1 2030 6 is_stmt 0 view .LVU1200
 4696 0012 08B1     		cbz	r0, .L295
 4697              	.LVL301:
 4698              	.L292:
2031:Drivers/lsm303agr/Src/lsm303agr_reg.c ****   {
2032:Drivers/lsm303agr/Src/lsm303agr_reg.c ****     ctrl_reg5_a.boot = (uint8_t)val;
2033:Drivers/lsm303agr/Src/lsm303agr_reg.c ****     ret = lsm303agr_write_reg(ctx, LSM303AGR_CTRL_REG5_A,
2034:Drivers/lsm303agr/Src/lsm303agr_reg.c ****                               (uint8_t *)&ctrl_reg5_a, 1);
2035:Drivers/lsm303agr/Src/lsm303agr_reg.c ****   }
2036:Drivers/lsm303agr/Src/lsm303agr_reg.c **** 
2037:Drivers/lsm303agr/Src/lsm303agr_reg.c ****   return ret;
2038:Drivers/lsm303agr/Src/lsm303agr_reg.c **** }
 4699              		.loc 1 2038 1 view .LVU1201
 4700 0014 03B0     		add	sp, sp, #12
 4701              	.LCFI189:
 4702              		.cfi_remember_state
 4703              		.cfi_def_cfa_offset 12
 4704              		@ sp needed
 4705 0016 30BD     		pop	{r4, r5, pc}
 4706              	.LVL302:
 4707              	.L295:
ARM GAS  C:\Users\SF\AppData\Local\Temp\ccFGOSN0.s 			page 122


 4708              	.LCFI190:
 4709              		.cfi_restore_state
2032:Drivers/lsm303agr/Src/lsm303agr_reg.c ****     ret = lsm303agr_write_reg(ctx, LSM303AGR_CTRL_REG5_A,
 4710              		.loc 1 2032 5 is_stmt 1 view .LVU1202
2032:Drivers/lsm303agr/Src/lsm303agr_reg.c ****     ret = lsm303agr_write_reg(ctx, LSM303AGR_CTRL_REG5_A,
 4711              		.loc 1 2032 22 is_stmt 0 view .LVU1203
 4712 0018 9DF80430 		ldrb	r3, [sp, #4]	@ zero_extendqisi2
 4713 001c 65F3C713 		bfi	r3, r5, #7, #1
 4714 0020 8DF80430 		strb	r3, [sp, #4]
2033:Drivers/lsm303agr/Src/lsm303agr_reg.c ****                               (uint8_t *)&ctrl_reg5_a, 1);
 4715              		.loc 1 2033 5 is_stmt 1 view .LVU1204
2033:Drivers/lsm303agr/Src/lsm303agr_reg.c ****                               (uint8_t *)&ctrl_reg5_a, 1);
 4716              		.loc 1 2033 11 is_stmt 0 view .LVU1205
 4717 0024 0123     		movs	r3, #1
 4718              	.LVL303:
2033:Drivers/lsm303agr/Src/lsm303agr_reg.c ****                               (uint8_t *)&ctrl_reg5_a, 1);
 4719              		.loc 1 2033 11 view .LVU1206
 4720 0026 01AA     		add	r2, sp, #4
 4721 0028 2421     		movs	r1, #36
 4722 002a 2046     		mov	r0, r4
 4723 002c FFF7FEFF 		bl	lsm303agr_write_reg
 4724              	.LVL304:
2037:Drivers/lsm303agr/Src/lsm303agr_reg.c **** }
 4725              		.loc 1 2037 3 is_stmt 1 view .LVU1207
2037:Drivers/lsm303agr/Src/lsm303agr_reg.c **** }
 4726              		.loc 1 2037 10 is_stmt 0 view .LVU1208
 4727 0030 F0E7     		b	.L292
 4728              		.cfi_endproc
 4729              	.LFE207:
 4731              		.section	.text.lsm303agr_xl_boot_get,"ax",%progbits
 4732              		.align	1
 4733              		.global	lsm303agr_xl_boot_get
 4734              		.syntax unified
 4735              		.thumb
 4736              		.thumb_func
 4738              	lsm303agr_xl_boot_get:
 4739              	.LVL305:
 4740              	.LFB208:
2039:Drivers/lsm303agr/Src/lsm303agr_reg.c **** 
2040:Drivers/lsm303agr/Src/lsm303agr_reg.c **** /**
2041:Drivers/lsm303agr/Src/lsm303agr_reg.c ****   * @brief  Reboot memory content. Reload the calibration parameters.[get]
2042:Drivers/lsm303agr/Src/lsm303agr_reg.c ****   *
2043:Drivers/lsm303agr/Src/lsm303agr_reg.c ****   * @param  ctx    Read / write interface definitions.(ptr)
2044:Drivers/lsm303agr/Src/lsm303agr_reg.c ****   * @param  val    Get the values of boot in reg CTRL_REG5_A.(ptr)
2045:Drivers/lsm303agr/Src/lsm303agr_reg.c ****   * @retval        Interface status (MANDATORY: return 0 -> no Error).
2046:Drivers/lsm303agr/Src/lsm303agr_reg.c ****   *
2047:Drivers/lsm303agr/Src/lsm303agr_reg.c ****   */
2048:Drivers/lsm303agr/Src/lsm303agr_reg.c **** int32_t lsm303agr_xl_boot_get(stmdev_ctx_t *ctx, uint8_t *val)
2049:Drivers/lsm303agr/Src/lsm303agr_reg.c **** {
 4741              		.loc 1 2049 1 is_stmt 1 view -0
 4742              		.cfi_startproc
 4743              		@ args = 0, pretend = 0, frame = 8
 4744              		@ frame_needed = 0, uses_anonymous_args = 0
 4745              		.loc 1 2049 1 is_stmt 0 view .LVU1210
 4746 0000 10B5     		push	{r4, lr}
 4747              	.LCFI191:
 4748              		.cfi_def_cfa_offset 8
ARM GAS  C:\Users\SF\AppData\Local\Temp\ccFGOSN0.s 			page 123


 4749              		.cfi_offset 4, -8
 4750              		.cfi_offset 14, -4
 4751 0002 82B0     		sub	sp, sp, #8
 4752              	.LCFI192:
 4753              		.cfi_def_cfa_offset 16
 4754 0004 0C46     		mov	r4, r1
2050:Drivers/lsm303agr/Src/lsm303agr_reg.c ****   lsm303agr_ctrl_reg5_a_t ctrl_reg5_a;
 4755              		.loc 1 2050 3 is_stmt 1 view .LVU1211
2051:Drivers/lsm303agr/Src/lsm303agr_reg.c ****   int32_t ret;
 4756              		.loc 1 2051 3 view .LVU1212
2052:Drivers/lsm303agr/Src/lsm303agr_reg.c **** 
2053:Drivers/lsm303agr/Src/lsm303agr_reg.c ****   ret = lsm303agr_read_reg(ctx, LSM303AGR_CTRL_REG5_A,
 4757              		.loc 1 2053 3 view .LVU1213
 4758              		.loc 1 2053 9 is_stmt 0 view .LVU1214
 4759 0006 0123     		movs	r3, #1
 4760 0008 01AA     		add	r2, sp, #4
 4761 000a 2421     		movs	r1, #36
 4762              	.LVL306:
 4763              		.loc 1 2053 9 view .LVU1215
 4764 000c FFF7FEFF 		bl	lsm303agr_read_reg
 4765              	.LVL307:
2054:Drivers/lsm303agr/Src/lsm303agr_reg.c ****                            (uint8_t *)&ctrl_reg5_a, 1);
2055:Drivers/lsm303agr/Src/lsm303agr_reg.c ****   *val = ctrl_reg5_a.boot;
 4766              		.loc 1 2055 3 is_stmt 1 view .LVU1216
 4767              		.loc 1 2055 21 is_stmt 0 view .LVU1217
 4768 0010 9DF80430 		ldrb	r3, [sp, #4]	@ zero_extendqisi2
 4769 0014 C3F3C013 		ubfx	r3, r3, #7, #1
 4770              		.loc 1 2055 8 view .LVU1218
 4771 0018 2370     		strb	r3, [r4]
2056:Drivers/lsm303agr/Src/lsm303agr_reg.c **** 
2057:Drivers/lsm303agr/Src/lsm303agr_reg.c ****   return ret;
 4772              		.loc 1 2057 3 is_stmt 1 view .LVU1219
2058:Drivers/lsm303agr/Src/lsm303agr_reg.c **** }
 4773              		.loc 1 2058 1 is_stmt 0 view .LVU1220
 4774 001a 02B0     		add	sp, sp, #8
 4775              	.LCFI193:
 4776              		.cfi_def_cfa_offset 8
 4777              		@ sp needed
 4778 001c 10BD     		pop	{r4, pc}
 4779              		.loc 1 2058 1 view .LVU1221
 4780              		.cfi_endproc
 4781              	.LFE208:
 4783              		.section	.text.lsm303agr_xl_status_get,"ax",%progbits
 4784              		.align	1
 4785              		.global	lsm303agr_xl_status_get
 4786              		.syntax unified
 4787              		.thumb
 4788              		.thumb_func
 4790              	lsm303agr_xl_status_get:
 4791              	.LVL308:
 4792              	.LFB209:
2059:Drivers/lsm303agr/Src/lsm303agr_reg.c **** 
2060:Drivers/lsm303agr/Src/lsm303agr_reg.c **** /**
2061:Drivers/lsm303agr/Src/lsm303agr_reg.c ****   * @brief  Info about device status.[get]
2062:Drivers/lsm303agr/Src/lsm303agr_reg.c ****   *
2063:Drivers/lsm303agr/Src/lsm303agr_reg.c ****   * @param  ctx    Read / write interface definitions.(ptr)
2064:Drivers/lsm303agr/Src/lsm303agr_reg.c ****   * @param  val    Get register STATUS_REG_A.(ptr)
ARM GAS  C:\Users\SF\AppData\Local\Temp\ccFGOSN0.s 			page 124


2065:Drivers/lsm303agr/Src/lsm303agr_reg.c ****   * @retval        Interface status (MANDATORY: return 0 -> no Error).
2066:Drivers/lsm303agr/Src/lsm303agr_reg.c ****   *
2067:Drivers/lsm303agr/Src/lsm303agr_reg.c ****   */
2068:Drivers/lsm303agr/Src/lsm303agr_reg.c **** int32_t lsm303agr_xl_status_get(stmdev_ctx_t *ctx,
2069:Drivers/lsm303agr/Src/lsm303agr_reg.c ****                                 lsm303agr_status_reg_a_t *val)
2070:Drivers/lsm303agr/Src/lsm303agr_reg.c **** {
 4793              		.loc 1 2070 1 is_stmt 1 view -0
 4794              		.cfi_startproc
 4795              		@ args = 0, pretend = 0, frame = 0
 4796              		@ frame_needed = 0, uses_anonymous_args = 0
 4797              		.loc 1 2070 1 is_stmt 0 view .LVU1223
 4798 0000 08B5     		push	{r3, lr}
 4799              	.LCFI194:
 4800              		.cfi_def_cfa_offset 8
 4801              		.cfi_offset 3, -8
 4802              		.cfi_offset 14, -4
 4803 0002 0A46     		mov	r2, r1
2071:Drivers/lsm303agr/Src/lsm303agr_reg.c ****   int32_t ret;
 4804              		.loc 1 2071 3 is_stmt 1 view .LVU1224
2072:Drivers/lsm303agr/Src/lsm303agr_reg.c **** 
2073:Drivers/lsm303agr/Src/lsm303agr_reg.c ****   ret = lsm303agr_read_reg(ctx, LSM303AGR_STATUS_REG_A, (uint8_t *) val, 1);
 4805              		.loc 1 2073 3 view .LVU1225
 4806              		.loc 1 2073 9 is_stmt 0 view .LVU1226
 4807 0004 0123     		movs	r3, #1
 4808 0006 2721     		movs	r1, #39
 4809              	.LVL309:
 4810              		.loc 1 2073 9 view .LVU1227
 4811 0008 FFF7FEFF 		bl	lsm303agr_read_reg
 4812              	.LVL310:
2074:Drivers/lsm303agr/Src/lsm303agr_reg.c **** 
2075:Drivers/lsm303agr/Src/lsm303agr_reg.c ****   return ret;
 4813              		.loc 1 2075 3 is_stmt 1 view .LVU1228
2076:Drivers/lsm303agr/Src/lsm303agr_reg.c **** }
 4814              		.loc 1 2076 1 is_stmt 0 view .LVU1229
 4815 000c 08BD     		pop	{r3, pc}
 4816              		.cfi_endproc
 4817              	.LFE209:
 4819              		.section	.text.lsm303agr_read_xl,"ax",%progbits
 4820              		.align	1
 4821              		.global	lsm303agr_read_xl
 4822              		.syntax unified
 4823              		.thumb
 4824              		.thumb_func
 4826              	lsm303agr_read_xl:
 4827              	.LVL311:
 4828              	.LFB136:
 248:Drivers/lsm303agr/Src/lsm303agr_reg.c ****  	lsm303agr_reg_t reg;
 4829              		.loc 1 248 73 is_stmt 1 view -0
 4830              		.cfi_startproc
 4831              		@ args = 0, pretend = 0, frame = 8
 4832              		@ frame_needed = 0, uses_anonymous_args = 0
 248:Drivers/lsm303agr/Src/lsm303agr_reg.c ****  	lsm303agr_reg_t reg;
 4833              		.loc 1 248 73 is_stmt 0 view .LVU1231
 4834 0000 30B5     		push	{r4, r5, lr}
 4835              	.LCFI195:
 4836              		.cfi_def_cfa_offset 12
 4837              		.cfi_offset 4, -12
ARM GAS  C:\Users\SF\AppData\Local\Temp\ccFGOSN0.s 			page 125


 4838              		.cfi_offset 5, -8
 4839              		.cfi_offset 14, -4
 4840 0002 83B0     		sub	sp, sp, #12
 4841              	.LCFI196:
 4842              		.cfi_def_cfa_offset 24
 4843 0004 0546     		mov	r5, r0
 4844 0006 0C46     		mov	r4, r1
 249:Drivers/lsm303agr/Src/lsm303agr_reg.c ****     lsm303agr_xl_status_get(ctx_xl, &reg.status_reg_a);
 4845              		.loc 1 249 3 is_stmt 1 view .LVU1232
 250:Drivers/lsm303agr/Src/lsm303agr_reg.c **** 
 4846              		.loc 1 250 5 view .LVU1233
 4847 0008 01A9     		add	r1, sp, #4
 4848              	.LVL312:
 250:Drivers/lsm303agr/Src/lsm303agr_reg.c **** 
 4849              		.loc 1 250 5 is_stmt 0 view .LVU1234
 4850 000a FFF7FEFF 		bl	lsm303agr_xl_status_get
 4851              	.LVL313:
 252:Drivers/lsm303agr/Src/lsm303agr_reg.c ****       /* Read accelerometer data */
 4852              		.loc 1 252 5 is_stmt 1 view .LVU1235
 252:Drivers/lsm303agr/Src/lsm303agr_reg.c ****       /* Read accelerometer data */
 4853              		.loc 1 252 9 is_stmt 0 view .LVU1236
 4854 000e 9DF80430 		ldrb	r3, [sp, #4]	@ zero_extendqisi2
 252:Drivers/lsm303agr/Src/lsm303agr_reg.c ****       /* Read accelerometer data */
 4855              		.loc 1 252 8 view .LVU1237
 4856 0012 13F0080F 		tst	r3, #8
 4857 0016 01D1     		bne	.L303
 4858              	.L300:
 258:Drivers/lsm303agr/Src/lsm303agr_reg.c **** 
 4859              		.loc 1 258 1 view .LVU1238
 4860 0018 03B0     		add	sp, sp, #12
 4861              	.LCFI197:
 4862              		.cfi_remember_state
 4863              		.cfi_def_cfa_offset 12
 4864              		@ sp needed
 4865 001a 30BD     		pop	{r4, r5, pc}
 4866              	.LVL314:
 4867              	.L303:
 4868              	.LCFI198:
 4869              		.cfi_restore_state
 4870              	.LBB2:
 254:Drivers/lsm303agr/Src/lsm303agr_reg.c ****       lsm303agr_acceleration_raw_get(ctx_xl, raw_acceleration);
 4871              		.loc 1 254 7 is_stmt 1 view .LVU1239
 4872 001c 0023     		movs	r3, #0
 4873 001e 2360     		str	r3, [r4]	@ unaligned
 4874 0020 A380     		strh	r3, [r4, #4]	@ unaligned
 255:Drivers/lsm303agr/Src/lsm303agr_reg.c ****     }
 4875              		.loc 1 255 7 view .LVU1240
 4876 0022 2146     		mov	r1, r4
 4877 0024 2846     		mov	r0, r5
 4878 0026 FFF7FEFF 		bl	lsm303agr_acceleration_raw_get
 4879              	.LVL315:
 4880              	.LBE2:
 258:Drivers/lsm303agr/Src/lsm303agr_reg.c **** 
 4881              		.loc 1 258 1 is_stmt 0 view .LVU1241
 4882 002a F5E7     		b	.L300
 4883              		.cfi_endproc
 4884              	.LFE136:
ARM GAS  C:\Users\SF\AppData\Local\Temp\ccFGOSN0.s 			page 126


 4886              		.section	.text.lsm303agr_calib_xl,"ax",%progbits
 4887              		.align	1
 4888              		.global	lsm303agr_calib_xl
 4889              		.syntax unified
 4890              		.thumb
 4891              		.thumb_func
 4893              	lsm303agr_calib_xl:
 4894              	.LVL316:
 4895              	.LFB134:
 208:Drivers/lsm303agr/Src/lsm303agr_reg.c **** 
 4896              		.loc 1 208 94 is_stmt 1 view -0
 4897              		.cfi_startproc
 4898              		@ args = 0, pretend = 0, frame = 0
 4899              		@ frame_needed = 0, uses_anonymous_args = 0
 208:Drivers/lsm303agr/Src/lsm303agr_reg.c **** 
 4900              		.loc 1 208 94 is_stmt 0 view .LVU1243
 4901 0000 F8B5     		push	{r3, r4, r5, r6, r7, lr}
 4902              	.LCFI199:
 4903              		.cfi_def_cfa_offset 24
 4904              		.cfi_offset 3, -24
 4905              		.cfi_offset 4, -20
 4906              		.cfi_offset 5, -16
 4907              		.cfi_offset 6, -12
 4908              		.cfi_offset 7, -8
 4909              		.cfi_offset 14, -4
 4910 0002 2DED048B 		vpush.64	{d8, d9}
 4911              	.LCFI200:
 4912              		.cfi_def_cfa_offset 40
 4913              		.cfi_offset 80, -40
 4914              		.cfi_offset 81, -36
 4915              		.cfi_offset 82, -32
 4916              		.cfi_offset 83, -28
 4917 0006 0646     		mov	r6, r0
 4918 0008 0D46     		mov	r5, r1
 4919 000a 1746     		mov	r7, r2
 210:Drivers/lsm303agr/Src/lsm303agr_reg.c ****     float sumY = 0;
 4920              		.loc 1 210 5 is_stmt 1 view .LVU1244
 4921              	.LVL317:
 211:Drivers/lsm303agr/Src/lsm303agr_reg.c ****     float sumZ = 0;
 4922              		.loc 1 211 5 view .LVU1245
 212:Drivers/lsm303agr/Src/lsm303agr_reg.c ****     int16_t samples = 100;
 4923              		.loc 1 212 5 view .LVU1246
 213:Drivers/lsm303agr/Src/lsm303agr_reg.c **** 
 4924              		.loc 1 213 5 view .LVU1247
 215:Drivers/lsm303agr/Src/lsm303agr_reg.c ****     {
 4925              		.loc 1 215 5 view .LVU1248
 4926              	.LBB3:
 215:Drivers/lsm303agr/Src/lsm303agr_reg.c ****     {
 4927              		.loc 1 215 10 view .LVU1249
 215:Drivers/lsm303agr/Src/lsm303agr_reg.c ****     {
 4928              		.loc 1 215 18 is_stmt 0 view .LVU1250
 4929 000c 0024     		movs	r4, #0
 4930              	.LBE3:
 212:Drivers/lsm303agr/Src/lsm303agr_reg.c ****     int16_t samples = 100;
 4931              		.loc 1 212 11 view .LVU1251
 4932 000e 9FED1E8A 		vldr.32	s16, .L308
 211:Drivers/lsm303agr/Src/lsm303agr_reg.c ****     float sumZ = 0;
ARM GAS  C:\Users\SF\AppData\Local\Temp\ccFGOSN0.s 			page 127


 4933              		.loc 1 211 11 view .LVU1252
 4934 0012 F0EE488A 		vmov.f32	s17, s16
 210:Drivers/lsm303agr/Src/lsm303agr_reg.c ****     float sumY = 0;
 4935              		.loc 1 210 11 view .LVU1253
 4936 0016 B0EE489A 		vmov.f32	s18, s16
 4937              	.LBB4:
 215:Drivers/lsm303agr/Src/lsm303agr_reg.c ****     {
 4938              		.loc 1 215 5 view .LVU1254
 4939 001a 22E0     		b	.L305
 4940              	.LVL318:
 4941              	.L306:
 217:Drivers/lsm303agr/Src/lsm303agr_reg.c **** 
 4942              		.loc 1 217 6 is_stmt 1 discriminator 3 view .LVU1255
 4943 001c 2946     		mov	r1, r5
 4944 001e 3046     		mov	r0, r6
 4945 0020 FFF7FEFF 		bl	lsm303agr_read_xl
 4946              	.LVL319:
 219:Drivers/lsm303agr/Src/lsm303agr_reg.c ****       sumY += data_raw_acceleration[1];
 4947              		.loc 1 219 7 discriminator 3 view .LVU1256
 219:Drivers/lsm303agr/Src/lsm303agr_reg.c ****       sumY += data_raw_acceleration[1];
 4948              		.loc 1 219 36 is_stmt 0 discriminator 3 view .LVU1257
 4949 0024 B5F90030 		ldrsh	r3, [r5]
 4950 0028 07EE903A 		vmov	s15, r3	@ int
 219:Drivers/lsm303agr/Src/lsm303agr_reg.c ****       sumY += data_raw_acceleration[1];
 4951              		.loc 1 219 12 discriminator 3 view .LVU1258
 4952 002c F8EEE77A 		vcvt.f32.s32	s15, s15
 4953 0030 39EE279A 		vadd.f32	s18, s18, s15
 4954              	.LVL320:
 220:Drivers/lsm303agr/Src/lsm303agr_reg.c ****       sumZ += 16384 - data_raw_acceleration[2];
 4955              		.loc 1 220 7 is_stmt 1 discriminator 3 view .LVU1259
 220:Drivers/lsm303agr/Src/lsm303agr_reg.c ****       sumZ += 16384 - data_raw_acceleration[2];
 4956              		.loc 1 220 36 is_stmt 0 discriminator 3 view .LVU1260
 4957 0034 B5F90230 		ldrsh	r3, [r5, #2]
 4958 0038 07EE903A 		vmov	s15, r3	@ int
 220:Drivers/lsm303agr/Src/lsm303agr_reg.c ****       sumZ += 16384 - data_raw_acceleration[2];
 4959              		.loc 1 220 12 discriminator 3 view .LVU1261
 4960 003c F8EEE77A 		vcvt.f32.s32	s15, s15
 4961 0040 78EEA78A 		vadd.f32	s17, s17, s15
 4962              	.LVL321:
 221:Drivers/lsm303agr/Src/lsm303agr_reg.c **** 
 4963              		.loc 1 221 7 is_stmt 1 discriminator 3 view .LVU1262
 221:Drivers/lsm303agr/Src/lsm303agr_reg.c **** 
 4964              		.loc 1 221 44 is_stmt 0 discriminator 3 view .LVU1263
 4965 0044 B5F90430 		ldrsh	r3, [r5, #4]
 221:Drivers/lsm303agr/Src/lsm303agr_reg.c **** 
 4966              		.loc 1 221 21 discriminator 3 view .LVU1264
 4967 0048 C3F58043 		rsb	r3, r3, #16384
 221:Drivers/lsm303agr/Src/lsm303agr_reg.c **** 
 4968              		.loc 1 221 12 discriminator 3 view .LVU1265
 4969 004c 07EE903A 		vmov	s15, r3	@ int
 4970 0050 F8EEE77A 		vcvt.f32.s32	s15, s15
 4971 0054 38EE278A 		vadd.f32	s16, s16, s15
 4972              	.LVL322:
 223:Drivers/lsm303agr/Src/lsm303agr_reg.c ****      }
 4973              		.loc 1 223 7 is_stmt 1 discriminator 3 view .LVU1266
 223:Drivers/lsm303agr/Src/lsm303agr_reg.c ****      }
 4974              		.loc 1 223 13 is_stmt 0 discriminator 3 view .LVU1267
ARM GAS  C:\Users\SF\AppData\Local\Temp\ccFGOSN0.s 			page 128


 4975 0058 F368     		ldr	r3, [r6, #12]
 223:Drivers/lsm303agr/Src/lsm303agr_reg.c ****      }
 4976              		.loc 1 223 7 discriminator 3 view .LVU1268
 4977 005a 0A20     		movs	r0, #10
 4978 005c 9847     		blx	r3
 4979              	.LVL323:
 215:Drivers/lsm303agr/Src/lsm303agr_reg.c ****     {
 4980              		.loc 1 215 38 is_stmt 1 discriminator 3 view .LVU1269
 4981 005e 0134     		adds	r4, r4, #1
 4982              	.LVL324:
 215:Drivers/lsm303agr/Src/lsm303agr_reg.c ****     {
 4983              		.loc 1 215 38 is_stmt 0 discriminator 3 view .LVU1270
 4984 0060 E4B2     		uxtb	r4, r4
 4985              	.LVL325:
 4986              	.L305:
 215:Drivers/lsm303agr/Src/lsm303agr_reg.c ****     {
 4987              		.loc 1 215 25 is_stmt 1 discriminator 1 view .LVU1271
 215:Drivers/lsm303agr/Src/lsm303agr_reg.c ****     {
 4988              		.loc 1 215 5 is_stmt 0 discriminator 1 view .LVU1272
 4989 0062 632C     		cmp	r4, #99
 4990 0064 DAD9     		bls	.L306
 4991              	.LBE4:
 226:Drivers/lsm303agr/Src/lsm303agr_reg.c ****     delta[1] = sumY / samples;
 4992              		.loc 1 226 5 is_stmt 1 view .LVU1273
 226:Drivers/lsm303agr/Src/lsm303agr_reg.c ****     delta[1] = sumY / samples;
 4993              		.loc 1 226 21 is_stmt 0 view .LVU1274
 4994 0066 DFED097A 		vldr.32	s15, .L308+4
 4995 006a 89EE277A 		vdiv.f32	s14, s18, s15
 226:Drivers/lsm303agr/Src/lsm303agr_reg.c ****     delta[1] = sumY / samples;
 4996              		.loc 1 226 14 view .LVU1275
 4997 006e 87ED007A 		vstr.32	s14, [r7]
 227:Drivers/lsm303agr/Src/lsm303agr_reg.c ****     delta[2] = sumZ / samples;
 4998              		.loc 1 227 5 is_stmt 1 view .LVU1276
 227:Drivers/lsm303agr/Src/lsm303agr_reg.c ****     delta[2] = sumZ / samples;
 4999              		.loc 1 227 21 is_stmt 0 view .LVU1277
 5000 0072 88EEA77A 		vdiv.f32	s14, s17, s15
 227:Drivers/lsm303agr/Src/lsm303agr_reg.c ****     delta[2] = sumZ / samples;
 5001              		.loc 1 227 14 view .LVU1278
 5002 0076 87ED017A 		vstr.32	s14, [r7, #4]
 228:Drivers/lsm303agr/Src/lsm303agr_reg.c **** }
 5003              		.loc 1 228 5 is_stmt 1 view .LVU1279
 228:Drivers/lsm303agr/Src/lsm303agr_reg.c **** }
 5004              		.loc 1 228 21 is_stmt 0 view .LVU1280
 5005 007a 88EE277A 		vdiv.f32	s14, s16, s15
 228:Drivers/lsm303agr/Src/lsm303agr_reg.c **** }
 5006              		.loc 1 228 14 view .LVU1281
 5007 007e 87ED027A 		vstr.32	s14, [r7, #8]
 229:Drivers/lsm303agr/Src/lsm303agr_reg.c **** 
 5008              		.loc 1 229 1 view .LVU1282
 5009 0082 BDEC048B 		vldm	sp!, {d8-d9}
 5010              	.LCFI201:
 5011              		.cfi_restore 82
 5012              		.cfi_restore 83
 5013              		.cfi_restore 80
 5014              		.cfi_restore 81
 5015              		.cfi_def_cfa_offset 24
 5016              	.LVL326:
ARM GAS  C:\Users\SF\AppData\Local\Temp\ccFGOSN0.s 			page 129


 229:Drivers/lsm303agr/Src/lsm303agr_reg.c **** 
 5017              		.loc 1 229 1 view .LVU1283
 5018 0086 F8BD     		pop	{r3, r4, r5, r6, r7, pc}
 5019              	.LVL327:
 5020              	.L309:
 229:Drivers/lsm303agr/Src/lsm303agr_reg.c **** 
 5021              		.loc 1 229 1 view .LVU1284
 5022              		.align	2
 5023              	.L308:
 5024 0088 00000000 		.word	0
 5025 008c 0000C842 		.word	1120403456
 5026              		.cfi_endproc
 5027              	.LFE134:
 5029              		.section	.text.lsm303agr_read_calibrated_xl,"ax",%progbits
 5030              		.align	1
 5031              		.global	lsm303agr_read_calibrated_xl
 5032              		.syntax unified
 5033              		.thumb
 5034              		.thumb_func
 5036              	lsm303agr_read_calibrated_xl:
 5037              	.LVL328:
 5038              	.LFB137:
 260:Drivers/lsm303agr/Src/lsm303agr_reg.c ****  	lsm303agr_reg_t reg;
 5039              		.loc 1 260 98 is_stmt 1 view -0
 5040              		.cfi_startproc
 5041              		@ args = 0, pretend = 0, frame = 8
 5042              		@ frame_needed = 0, uses_anonymous_args = 0
 260:Drivers/lsm303agr/Src/lsm303agr_reg.c ****  	lsm303agr_reg_t reg;
 5043              		.loc 1 260 98 is_stmt 0 view .LVU1286
 5044 0000 70B5     		push	{r4, r5, r6, lr}
 5045              	.LCFI202:
 5046              		.cfi_def_cfa_offset 16
 5047              		.cfi_offset 4, -16
 5048              		.cfi_offset 5, -12
 5049              		.cfi_offset 6, -8
 5050              		.cfi_offset 14, -4
 5051 0002 82B0     		sub	sp, sp, #8
 5052              	.LCFI203:
 5053              		.cfi_def_cfa_offset 24
 5054 0004 0646     		mov	r6, r0
 5055 0006 0C46     		mov	r4, r1
 5056 0008 1546     		mov	r5, r2
 261:Drivers/lsm303agr/Src/lsm303agr_reg.c ****     lsm303agr_xl_status_get(ctx_xl, &reg.status_reg_a);
 5057              		.loc 1 261 3 is_stmt 1 view .LVU1287
 262:Drivers/lsm303agr/Src/lsm303agr_reg.c **** 
 5058              		.loc 1 262 5 view .LVU1288
 5059 000a 01A9     		add	r1, sp, #4
 5060              	.LVL329:
 262:Drivers/lsm303agr/Src/lsm303agr_reg.c **** 
 5061              		.loc 1 262 5 is_stmt 0 view .LVU1289
 5062 000c FFF7FEFF 		bl	lsm303agr_xl_status_get
 5063              	.LVL330:
 264:Drivers/lsm303agr/Src/lsm303agr_reg.c ****       /* Read accelerometer data */
 5064              		.loc 1 264 5 is_stmt 1 view .LVU1290
 264:Drivers/lsm303agr/Src/lsm303agr_reg.c ****       /* Read accelerometer data */
 5065              		.loc 1 264 9 is_stmt 0 view .LVU1291
 5066 0010 9DF80430 		ldrb	r3, [sp, #4]	@ zero_extendqisi2
ARM GAS  C:\Users\SF\AppData\Local\Temp\ccFGOSN0.s 			page 130


 264:Drivers/lsm303agr/Src/lsm303agr_reg.c ****       /* Read accelerometer data */
 5067              		.loc 1 264 8 view .LVU1292
 5068 0014 13F0080F 		tst	r3, #8
 5069 0018 01D1     		bne	.L313
 5070              	.L310:
 273:Drivers/lsm303agr/Src/lsm303agr_reg.c **** 
 5071              		.loc 1 273 1 view .LVU1293
 5072 001a 02B0     		add	sp, sp, #8
 5073              	.LCFI204:
 5074              		.cfi_remember_state
 5075              		.cfi_def_cfa_offset 16
 5076              		@ sp needed
 5077 001c 70BD     		pop	{r4, r5, r6, pc}
 5078              	.LVL331:
 5079              	.L313:
 5080              	.LCFI205:
 5081              		.cfi_restore_state
 5082              	.LBB5:
 266:Drivers/lsm303agr/Src/lsm303agr_reg.c ****       lsm303agr_acceleration_raw_get(ctx_xl, raw_acceleration);
 5083              		.loc 1 266 7 is_stmt 1 view .LVU1294
 5084 001e 0023     		movs	r3, #0
 5085 0020 2360     		str	r3, [r4]	@ unaligned
 5086 0022 A380     		strh	r3, [r4, #4]	@ unaligned
 267:Drivers/lsm303agr/Src/lsm303agr_reg.c ****       raw_acceleration[0] = raw_acceleration[0] - delta[0];
 5087              		.loc 1 267 7 view .LVU1295
 5088 0024 2146     		mov	r1, r4
 5089 0026 3046     		mov	r0, r6
 5090 0028 FFF7FEFF 		bl	lsm303agr_acceleration_raw_get
 5091              	.LVL332:
 268:Drivers/lsm303agr/Src/lsm303agr_reg.c ****       raw_acceleration[1] = raw_acceleration[1] - delta[1];
 5092              		.loc 1 268 7 view .LVU1296
 268:Drivers/lsm303agr/Src/lsm303agr_reg.c ****       raw_acceleration[1] = raw_acceleration[1] - delta[1];
 5093              		.loc 1 268 45 is_stmt 0 view .LVU1297
 5094 002c B4F90030 		ldrsh	r3, [r4]
 5095 0030 07EE903A 		vmov	s15, r3	@ int
 268:Drivers/lsm303agr/Src/lsm303agr_reg.c ****       raw_acceleration[1] = raw_acceleration[1] - delta[1];
 5096              		.loc 1 268 56 view .LVU1298
 5097 0034 95ED007A 		vldr.32	s14, [r5]
 268:Drivers/lsm303agr/Src/lsm303agr_reg.c ****       raw_acceleration[1] = raw_acceleration[1] - delta[1];
 5098              		.loc 1 268 49 view .LVU1299
 5099 0038 F8EEE77A 		vcvt.f32.s32	s15, s15
 5100 003c 77EEC77A 		vsub.f32	s15, s15, s14
 268:Drivers/lsm303agr/Src/lsm303agr_reg.c ****       raw_acceleration[1] = raw_acceleration[1] - delta[1];
 5101              		.loc 1 268 27 view .LVU1300
 5102 0040 FDEEE77A 		vcvt.s32.f32	s15, s15
 5103 0044 17EE903A 		vmov	r3, s15	@ int
 5104 0048 2380     		strh	r3, [r4]	@ movhi
 269:Drivers/lsm303agr/Src/lsm303agr_reg.c ****       raw_acceleration[2] = raw_acceleration[2] + delta[2];
 5105              		.loc 1 269 7 is_stmt 1 view .LVU1301
 269:Drivers/lsm303agr/Src/lsm303agr_reg.c ****       raw_acceleration[2] = raw_acceleration[2] + delta[2];
 5106              		.loc 1 269 45 is_stmt 0 view .LVU1302
 5107 004a B4F90230 		ldrsh	r3, [r4, #2]
 5108 004e 07EE903A 		vmov	s15, r3	@ int
 269:Drivers/lsm303agr/Src/lsm303agr_reg.c ****       raw_acceleration[2] = raw_acceleration[2] + delta[2];
 5109              		.loc 1 269 56 view .LVU1303
 5110 0052 95ED017A 		vldr.32	s14, [r5, #4]
 269:Drivers/lsm303agr/Src/lsm303agr_reg.c ****       raw_acceleration[2] = raw_acceleration[2] + delta[2];
ARM GAS  C:\Users\SF\AppData\Local\Temp\ccFGOSN0.s 			page 131


 5111              		.loc 1 269 49 view .LVU1304
 5112 0056 F8EEE77A 		vcvt.f32.s32	s15, s15
 5113 005a 77EEC77A 		vsub.f32	s15, s15, s14
 269:Drivers/lsm303agr/Src/lsm303agr_reg.c ****       raw_acceleration[2] = raw_acceleration[2] + delta[2];
 5114              		.loc 1 269 27 view .LVU1305
 5115 005e FDEEE77A 		vcvt.s32.f32	s15, s15
 5116 0062 17EE903A 		vmov	r3, s15	@ int
 5117 0066 6380     		strh	r3, [r4, #2]	@ movhi
 270:Drivers/lsm303agr/Src/lsm303agr_reg.c ****     }
 5118              		.loc 1 270 7 is_stmt 1 view .LVU1306
 270:Drivers/lsm303agr/Src/lsm303agr_reg.c ****     }
 5119              		.loc 1 270 45 is_stmt 0 view .LVU1307
 5120 0068 B4F90430 		ldrsh	r3, [r4, #4]
 5121 006c 07EE903A 		vmov	s15, r3	@ int
 270:Drivers/lsm303agr/Src/lsm303agr_reg.c ****     }
 5122              		.loc 1 270 56 view .LVU1308
 5123 0070 95ED027A 		vldr.32	s14, [r5, #8]
 270:Drivers/lsm303agr/Src/lsm303agr_reg.c ****     }
 5124              		.loc 1 270 49 view .LVU1309
 5125 0074 F8EEE77A 		vcvt.f32.s32	s15, s15
 5126 0078 77EE877A 		vadd.f32	s15, s15, s14
 270:Drivers/lsm303agr/Src/lsm303agr_reg.c ****     }
 5127              		.loc 1 270 27 view .LVU1310
 5128 007c FDEEE77A 		vcvt.s32.f32	s15, s15
 5129 0080 17EE903A 		vmov	r3, s15	@ int
 5130 0084 A380     		strh	r3, [r4, #4]	@ movhi
 5131              	.LBE5:
 273:Drivers/lsm303agr/Src/lsm303agr_reg.c **** 
 5132              		.loc 1 273 1 view .LVU1311
 5133 0086 C8E7     		b	.L310
 5134              		.cfi_endproc
 5135              	.LFE137:
 5137              		.section	.text.lsm303agr_mag_device_id_get,"ax",%progbits
 5138              		.align	1
 5139              		.global	lsm303agr_mag_device_id_get
 5140              		.syntax unified
 5141              		.thumb
 5142              		.thumb_func
 5144              	lsm303agr_mag_device_id_get:
 5145              	.LVL333:
 5146              	.LFB210:
2077:Drivers/lsm303agr/Src/lsm303agr_reg.c **** 
2078:Drivers/lsm303agr/Src/lsm303agr_reg.c **** /**
2079:Drivers/lsm303agr/Src/lsm303agr_reg.c ****   * @brief  DeviceWhoamI.[get]
2080:Drivers/lsm303agr/Src/lsm303agr_reg.c ****   *
2081:Drivers/lsm303agr/Src/lsm303agr_reg.c ****   * @param  ctx    Read / write interface definitions.(ptr)
2082:Drivers/lsm303agr/Src/lsm303agr_reg.c ****   * @param  buff   Buffer that stores data read.(ptr)
2083:Drivers/lsm303agr/Src/lsm303agr_reg.c ****   * @retval        Interface status (MANDATORY: return 0 -> no Error).
2084:Drivers/lsm303agr/Src/lsm303agr_reg.c ****   *
2085:Drivers/lsm303agr/Src/lsm303agr_reg.c ****   */
2086:Drivers/lsm303agr/Src/lsm303agr_reg.c **** int32_t lsm303agr_mag_device_id_get(stmdev_ctx_t *ctx, uint8_t *buff)
2087:Drivers/lsm303agr/Src/lsm303agr_reg.c **** {
 5147              		.loc 1 2087 1 is_stmt 1 view -0
 5148              		.cfi_startproc
 5149              		@ args = 0, pretend = 0, frame = 0
 5150              		@ frame_needed = 0, uses_anonymous_args = 0
 5151              		.loc 1 2087 1 is_stmt 0 view .LVU1313
ARM GAS  C:\Users\SF\AppData\Local\Temp\ccFGOSN0.s 			page 132


 5152 0000 08B5     		push	{r3, lr}
 5153              	.LCFI206:
 5154              		.cfi_def_cfa_offset 8
 5155              		.cfi_offset 3, -8
 5156              		.cfi_offset 14, -4
 5157 0002 0A46     		mov	r2, r1
2088:Drivers/lsm303agr/Src/lsm303agr_reg.c ****   int32_t ret;
 5158              		.loc 1 2088 3 is_stmt 1 view .LVU1314
2089:Drivers/lsm303agr/Src/lsm303agr_reg.c **** 
2090:Drivers/lsm303agr/Src/lsm303agr_reg.c ****   ret = lsm303agr_read_reg(ctx, LSM303AGR_WHO_AM_I_M, buff, 1);
 5159              		.loc 1 2090 3 view .LVU1315
 5160              		.loc 1 2090 9 is_stmt 0 view .LVU1316
 5161 0004 0123     		movs	r3, #1
 5162 0006 4F21     		movs	r1, #79
 5163              	.LVL334:
 5164              		.loc 1 2090 9 view .LVU1317
 5165 0008 FFF7FEFF 		bl	lsm303agr_read_reg
 5166              	.LVL335:
2091:Drivers/lsm303agr/Src/lsm303agr_reg.c **** 
2092:Drivers/lsm303agr/Src/lsm303agr_reg.c ****   return ret;
 5167              		.loc 1 2092 3 is_stmt 1 view .LVU1318
2093:Drivers/lsm303agr/Src/lsm303agr_reg.c **** }
 5168              		.loc 1 2093 1 is_stmt 0 view .LVU1319
 5169 000c 08BD     		pop	{r3, pc}
 5170              		.cfi_endproc
 5171              	.LFE210:
 5173              		.section	.text.lsm303agr_mag_reset_set,"ax",%progbits
 5174              		.align	1
 5175              		.global	lsm303agr_mag_reset_set
 5176              		.syntax unified
 5177              		.thumb
 5178              		.thumb_func
 5180              	lsm303agr_mag_reset_set:
 5181              	.LVL336:
 5182              	.LFB211:
2094:Drivers/lsm303agr/Src/lsm303agr_reg.c **** 
2095:Drivers/lsm303agr/Src/lsm303agr_reg.c **** /**
2096:Drivers/lsm303agr/Src/lsm303agr_reg.c ****   * @brief  Software reset. Restore the default values in user registers.[set]
2097:Drivers/lsm303agr/Src/lsm303agr_reg.c ****   *
2098:Drivers/lsm303agr/Src/lsm303agr_reg.c ****   * @param  ctx    Read / write interface definitions.(ptr)
2099:Drivers/lsm303agr/Src/lsm303agr_reg.c ****   * @param  val    Change the values of soft_rst in reg CFG_REG_A_M
2100:Drivers/lsm303agr/Src/lsm303agr_reg.c ****   * @retval        Interface status (MANDATORY: return 0 -> no Error).
2101:Drivers/lsm303agr/Src/lsm303agr_reg.c ****   *
2102:Drivers/lsm303agr/Src/lsm303agr_reg.c ****   */
2103:Drivers/lsm303agr/Src/lsm303agr_reg.c **** int32_t lsm303agr_mag_reset_set(stmdev_ctx_t *ctx, uint8_t val)
2104:Drivers/lsm303agr/Src/lsm303agr_reg.c **** {
 5183              		.loc 1 2104 1 is_stmt 1 view -0
 5184              		.cfi_startproc
 5185              		@ args = 0, pretend = 0, frame = 8
 5186              		@ frame_needed = 0, uses_anonymous_args = 0
 5187              		.loc 1 2104 1 is_stmt 0 view .LVU1321
 5188 0000 30B5     		push	{r4, r5, lr}
 5189              	.LCFI207:
 5190              		.cfi_def_cfa_offset 12
 5191              		.cfi_offset 4, -12
 5192              		.cfi_offset 5, -8
 5193              		.cfi_offset 14, -4
ARM GAS  C:\Users\SF\AppData\Local\Temp\ccFGOSN0.s 			page 133


 5194 0002 83B0     		sub	sp, sp, #12
 5195              	.LCFI208:
 5196              		.cfi_def_cfa_offset 24
 5197 0004 0446     		mov	r4, r0
 5198 0006 0D46     		mov	r5, r1
2105:Drivers/lsm303agr/Src/lsm303agr_reg.c ****   lsm303agr_cfg_reg_a_m_t cfg_reg_a_m;
 5199              		.loc 1 2105 3 is_stmt 1 view .LVU1322
2106:Drivers/lsm303agr/Src/lsm303agr_reg.c ****   int32_t ret;
 5200              		.loc 1 2106 3 view .LVU1323
2107:Drivers/lsm303agr/Src/lsm303agr_reg.c **** 
2108:Drivers/lsm303agr/Src/lsm303agr_reg.c ****   ret = lsm303agr_read_reg(ctx, LSM303AGR_CFG_REG_A_M,
 5201              		.loc 1 2108 3 view .LVU1324
 5202              		.loc 1 2108 9 is_stmt 0 view .LVU1325
 5203 0008 0123     		movs	r3, #1
 5204 000a 01AA     		add	r2, sp, #4
 5205 000c 6021     		movs	r1, #96
 5206              	.LVL337:
 5207              		.loc 1 2108 9 view .LVU1326
 5208 000e FFF7FEFF 		bl	lsm303agr_read_reg
 5209              	.LVL338:
2109:Drivers/lsm303agr/Src/lsm303agr_reg.c ****                            (uint8_t *)&cfg_reg_a_m, 1);
2110:Drivers/lsm303agr/Src/lsm303agr_reg.c **** 
2111:Drivers/lsm303agr/Src/lsm303agr_reg.c ****   if (ret == 0)
 5210              		.loc 1 2111 3 is_stmt 1 view .LVU1327
 5211              		.loc 1 2111 6 is_stmt 0 view .LVU1328
 5212 0012 08B1     		cbz	r0, .L319
 5213              	.LVL339:
 5214              	.L316:
2112:Drivers/lsm303agr/Src/lsm303agr_reg.c ****   {
2113:Drivers/lsm303agr/Src/lsm303agr_reg.c ****     cfg_reg_a_m.soft_rst = (uint8_t)val;
2114:Drivers/lsm303agr/Src/lsm303agr_reg.c ****     ret = lsm303agr_write_reg(ctx, LSM303AGR_CFG_REG_A_M,
2115:Drivers/lsm303agr/Src/lsm303agr_reg.c ****                               (uint8_t *)&cfg_reg_a_m, 1);
2116:Drivers/lsm303agr/Src/lsm303agr_reg.c ****   }
2117:Drivers/lsm303agr/Src/lsm303agr_reg.c **** 
2118:Drivers/lsm303agr/Src/lsm303agr_reg.c ****   return ret;
2119:Drivers/lsm303agr/Src/lsm303agr_reg.c **** }
 5215              		.loc 1 2119 1 view .LVU1329
 5216 0014 03B0     		add	sp, sp, #12
 5217              	.LCFI209:
 5218              		.cfi_remember_state
 5219              		.cfi_def_cfa_offset 12
 5220              		@ sp needed
 5221 0016 30BD     		pop	{r4, r5, pc}
 5222              	.LVL340:
 5223              	.L319:
 5224              	.LCFI210:
 5225              		.cfi_restore_state
2113:Drivers/lsm303agr/Src/lsm303agr_reg.c ****     ret = lsm303agr_write_reg(ctx, LSM303AGR_CFG_REG_A_M,
 5226              		.loc 1 2113 5 is_stmt 1 view .LVU1330
2113:Drivers/lsm303agr/Src/lsm303agr_reg.c ****     ret = lsm303agr_write_reg(ctx, LSM303AGR_CFG_REG_A_M,
 5227              		.loc 1 2113 26 is_stmt 0 view .LVU1331
 5228 0018 9DF80430 		ldrb	r3, [sp, #4]	@ zero_extendqisi2
 5229 001c 65F34513 		bfi	r3, r5, #5, #1
 5230 0020 8DF80430 		strb	r3, [sp, #4]
2114:Drivers/lsm303agr/Src/lsm303agr_reg.c ****                               (uint8_t *)&cfg_reg_a_m, 1);
 5231              		.loc 1 2114 5 is_stmt 1 view .LVU1332
2114:Drivers/lsm303agr/Src/lsm303agr_reg.c ****                               (uint8_t *)&cfg_reg_a_m, 1);
ARM GAS  C:\Users\SF\AppData\Local\Temp\ccFGOSN0.s 			page 134


 5232              		.loc 1 2114 11 is_stmt 0 view .LVU1333
 5233 0024 0123     		movs	r3, #1
 5234              	.LVL341:
2114:Drivers/lsm303agr/Src/lsm303agr_reg.c ****                               (uint8_t *)&cfg_reg_a_m, 1);
 5235              		.loc 1 2114 11 view .LVU1334
 5236 0026 01AA     		add	r2, sp, #4
 5237 0028 6021     		movs	r1, #96
 5238 002a 2046     		mov	r0, r4
 5239 002c FFF7FEFF 		bl	lsm303agr_write_reg
 5240              	.LVL342:
2118:Drivers/lsm303agr/Src/lsm303agr_reg.c **** }
 5241              		.loc 1 2118 3 is_stmt 1 view .LVU1335
2118:Drivers/lsm303agr/Src/lsm303agr_reg.c **** }
 5242              		.loc 1 2118 10 is_stmt 0 view .LVU1336
 5243 0030 F0E7     		b	.L316
 5244              		.cfi_endproc
 5245              	.LFE211:
 5247              		.section	.text.lsm303agr_mag_reset_get,"ax",%progbits
 5248              		.align	1
 5249              		.global	lsm303agr_mag_reset_get
 5250              		.syntax unified
 5251              		.thumb
 5252              		.thumb_func
 5254              	lsm303agr_mag_reset_get:
 5255              	.LVL343:
 5256              	.LFB212:
2120:Drivers/lsm303agr/Src/lsm303agr_reg.c **** 
2121:Drivers/lsm303agr/Src/lsm303agr_reg.c **** /**
2122:Drivers/lsm303agr/Src/lsm303agr_reg.c ****   * @brief  Software reset. Restore the default values in user registers.[get]
2123:Drivers/lsm303agr/Src/lsm303agr_reg.c ****   *
2124:Drivers/lsm303agr/Src/lsm303agr_reg.c ****   * @param  ctx    Read / write interface definitions.(ptr)
2125:Drivers/lsm303agr/Src/lsm303agr_reg.c ****   * @param  val    Change the values of soft_rst in reg CFG_REG_A_M.(ptr)
2126:Drivers/lsm303agr/Src/lsm303agr_reg.c ****   * @retval        Interface status (MANDATORY: return 0 -> no Error).
2127:Drivers/lsm303agr/Src/lsm303agr_reg.c ****   *
2128:Drivers/lsm303agr/Src/lsm303agr_reg.c ****   */
2129:Drivers/lsm303agr/Src/lsm303agr_reg.c **** int32_t lsm303agr_mag_reset_get(stmdev_ctx_t *ctx, uint8_t *val)
2130:Drivers/lsm303agr/Src/lsm303agr_reg.c **** {
 5257              		.loc 1 2130 1 is_stmt 1 view -0
 5258              		.cfi_startproc
 5259              		@ args = 0, pretend = 0, frame = 8
 5260              		@ frame_needed = 0, uses_anonymous_args = 0
 5261              		.loc 1 2130 1 is_stmt 0 view .LVU1338
 5262 0000 10B5     		push	{r4, lr}
 5263              	.LCFI211:
 5264              		.cfi_def_cfa_offset 8
 5265              		.cfi_offset 4, -8
 5266              		.cfi_offset 14, -4
 5267 0002 82B0     		sub	sp, sp, #8
 5268              	.LCFI212:
 5269              		.cfi_def_cfa_offset 16
 5270 0004 0C46     		mov	r4, r1
2131:Drivers/lsm303agr/Src/lsm303agr_reg.c ****   lsm303agr_cfg_reg_a_m_t cfg_reg_a_m;
 5271              		.loc 1 2131 3 is_stmt 1 view .LVU1339
2132:Drivers/lsm303agr/Src/lsm303agr_reg.c ****   int32_t ret;
 5272              		.loc 1 2132 3 view .LVU1340
2133:Drivers/lsm303agr/Src/lsm303agr_reg.c **** 
2134:Drivers/lsm303agr/Src/lsm303agr_reg.c ****   ret = lsm303agr_read_reg(ctx, LSM303AGR_CFG_REG_A_M,
ARM GAS  C:\Users\SF\AppData\Local\Temp\ccFGOSN0.s 			page 135


 5273              		.loc 1 2134 3 view .LVU1341
 5274              		.loc 1 2134 9 is_stmt 0 view .LVU1342
 5275 0006 0123     		movs	r3, #1
 5276 0008 01AA     		add	r2, sp, #4
 5277 000a 6021     		movs	r1, #96
 5278              	.LVL344:
 5279              		.loc 1 2134 9 view .LVU1343
 5280 000c FFF7FEFF 		bl	lsm303agr_read_reg
 5281              	.LVL345:
2135:Drivers/lsm303agr/Src/lsm303agr_reg.c ****                            (uint8_t *)&cfg_reg_a_m, 1);
2136:Drivers/lsm303agr/Src/lsm303agr_reg.c ****   *val = cfg_reg_a_m.soft_rst;
 5282              		.loc 1 2136 3 is_stmt 1 view .LVU1344
 5283              		.loc 1 2136 21 is_stmt 0 view .LVU1345
 5284 0010 9DF80430 		ldrb	r3, [sp, #4]	@ zero_extendqisi2
 5285 0014 C3F34013 		ubfx	r3, r3, #5, #1
 5286              		.loc 1 2136 8 view .LVU1346
 5287 0018 2370     		strb	r3, [r4]
2137:Drivers/lsm303agr/Src/lsm303agr_reg.c **** 
2138:Drivers/lsm303agr/Src/lsm303agr_reg.c ****   return ret;
 5288              		.loc 1 2138 3 is_stmt 1 view .LVU1347
2139:Drivers/lsm303agr/Src/lsm303agr_reg.c **** }
 5289              		.loc 1 2139 1 is_stmt 0 view .LVU1348
 5290 001a 02B0     		add	sp, sp, #8
 5291              	.LCFI213:
 5292              		.cfi_def_cfa_offset 8
 5293              		@ sp needed
 5294 001c 10BD     		pop	{r4, pc}
 5295              		.loc 1 2139 1 view .LVU1349
 5296              		.cfi_endproc
 5297              	.LFE212:
 5299              		.section	.text.lsm303agr_mag_boot_set,"ax",%progbits
 5300              		.align	1
 5301              		.global	lsm303agr_mag_boot_set
 5302              		.syntax unified
 5303              		.thumb
 5304              		.thumb_func
 5306              	lsm303agr_mag_boot_set:
 5307              	.LVL346:
 5308              	.LFB213:
2140:Drivers/lsm303agr/Src/lsm303agr_reg.c **** 
2141:Drivers/lsm303agr/Src/lsm303agr_reg.c **** /**
2142:Drivers/lsm303agr/Src/lsm303agr_reg.c ****   * @brief  Reboot memory content. Reload the calibration parameters.[set]
2143:Drivers/lsm303agr/Src/lsm303agr_reg.c ****   *
2144:Drivers/lsm303agr/Src/lsm303agr_reg.c ****   * @param  ctx    Read / write interface definitions.(ptr)
2145:Drivers/lsm303agr/Src/lsm303agr_reg.c ****   * @param  val    Change the values of reboot in reg CFG_REG_A_M
2146:Drivers/lsm303agr/Src/lsm303agr_reg.c ****   * @retval        Interface status (MANDATORY: return 0 -> no Error).
2147:Drivers/lsm303agr/Src/lsm303agr_reg.c ****   *
2148:Drivers/lsm303agr/Src/lsm303agr_reg.c ****   */
2149:Drivers/lsm303agr/Src/lsm303agr_reg.c **** int32_t lsm303agr_mag_boot_set(stmdev_ctx_t *ctx, uint8_t val)
2150:Drivers/lsm303agr/Src/lsm303agr_reg.c **** {
 5309              		.loc 1 2150 1 is_stmt 1 view -0
 5310              		.cfi_startproc
 5311              		@ args = 0, pretend = 0, frame = 8
 5312              		@ frame_needed = 0, uses_anonymous_args = 0
 5313              		.loc 1 2150 1 is_stmt 0 view .LVU1351
 5314 0000 30B5     		push	{r4, r5, lr}
 5315              	.LCFI214:
ARM GAS  C:\Users\SF\AppData\Local\Temp\ccFGOSN0.s 			page 136


 5316              		.cfi_def_cfa_offset 12
 5317              		.cfi_offset 4, -12
 5318              		.cfi_offset 5, -8
 5319              		.cfi_offset 14, -4
 5320 0002 83B0     		sub	sp, sp, #12
 5321              	.LCFI215:
 5322              		.cfi_def_cfa_offset 24
 5323 0004 0446     		mov	r4, r0
 5324 0006 0D46     		mov	r5, r1
2151:Drivers/lsm303agr/Src/lsm303agr_reg.c ****   lsm303agr_cfg_reg_a_m_t cfg_reg_a_m;
 5325              		.loc 1 2151 3 is_stmt 1 view .LVU1352
2152:Drivers/lsm303agr/Src/lsm303agr_reg.c ****   int32_t ret;
 5326              		.loc 1 2152 3 view .LVU1353
2153:Drivers/lsm303agr/Src/lsm303agr_reg.c **** 
2154:Drivers/lsm303agr/Src/lsm303agr_reg.c ****   ret = lsm303agr_read_reg(ctx, LSM303AGR_CFG_REG_A_M,
 5327              		.loc 1 2154 3 view .LVU1354
 5328              		.loc 1 2154 9 is_stmt 0 view .LVU1355
 5329 0008 0123     		movs	r3, #1
 5330 000a 01AA     		add	r2, sp, #4
 5331 000c 6021     		movs	r1, #96
 5332              	.LVL347:
 5333              		.loc 1 2154 9 view .LVU1356
 5334 000e FFF7FEFF 		bl	lsm303agr_read_reg
 5335              	.LVL348:
2155:Drivers/lsm303agr/Src/lsm303agr_reg.c ****                            (uint8_t *)&cfg_reg_a_m, 1);
2156:Drivers/lsm303agr/Src/lsm303agr_reg.c **** 
2157:Drivers/lsm303agr/Src/lsm303agr_reg.c ****   if (ret == 0)
 5336              		.loc 1 2157 3 is_stmt 1 view .LVU1357
 5337              		.loc 1 2157 6 is_stmt 0 view .LVU1358
 5338 0012 08B1     		cbz	r0, .L325
 5339              	.LVL349:
 5340              	.L322:
2158:Drivers/lsm303agr/Src/lsm303agr_reg.c ****   {
2159:Drivers/lsm303agr/Src/lsm303agr_reg.c ****     cfg_reg_a_m.reboot = (uint8_t)val;
2160:Drivers/lsm303agr/Src/lsm303agr_reg.c ****     ret = lsm303agr_write_reg(ctx, LSM303AGR_CFG_REG_A_M,
2161:Drivers/lsm303agr/Src/lsm303agr_reg.c ****                               (uint8_t *)&cfg_reg_a_m, 1);
2162:Drivers/lsm303agr/Src/lsm303agr_reg.c ****   }
2163:Drivers/lsm303agr/Src/lsm303agr_reg.c **** 
2164:Drivers/lsm303agr/Src/lsm303agr_reg.c ****   return ret;
2165:Drivers/lsm303agr/Src/lsm303agr_reg.c **** }
 5341              		.loc 1 2165 1 view .LVU1359
 5342 0014 03B0     		add	sp, sp, #12
 5343              	.LCFI216:
 5344              		.cfi_remember_state
 5345              		.cfi_def_cfa_offset 12
 5346              		@ sp needed
 5347 0016 30BD     		pop	{r4, r5, pc}
 5348              	.LVL350:
 5349              	.L325:
 5350              	.LCFI217:
 5351              		.cfi_restore_state
2159:Drivers/lsm303agr/Src/lsm303agr_reg.c ****     ret = lsm303agr_write_reg(ctx, LSM303AGR_CFG_REG_A_M,
 5352              		.loc 1 2159 5 is_stmt 1 view .LVU1360
2159:Drivers/lsm303agr/Src/lsm303agr_reg.c ****     ret = lsm303agr_write_reg(ctx, LSM303AGR_CFG_REG_A_M,
 5353              		.loc 1 2159 24 is_stmt 0 view .LVU1361
 5354 0018 9DF80430 		ldrb	r3, [sp, #4]	@ zero_extendqisi2
 5355 001c 65F38613 		bfi	r3, r5, #6, #1
ARM GAS  C:\Users\SF\AppData\Local\Temp\ccFGOSN0.s 			page 137


 5356 0020 8DF80430 		strb	r3, [sp, #4]
2160:Drivers/lsm303agr/Src/lsm303agr_reg.c ****                               (uint8_t *)&cfg_reg_a_m, 1);
 5357              		.loc 1 2160 5 is_stmt 1 view .LVU1362
2160:Drivers/lsm303agr/Src/lsm303agr_reg.c ****                               (uint8_t *)&cfg_reg_a_m, 1);
 5358              		.loc 1 2160 11 is_stmt 0 view .LVU1363
 5359 0024 0123     		movs	r3, #1
 5360              	.LVL351:
2160:Drivers/lsm303agr/Src/lsm303agr_reg.c ****                               (uint8_t *)&cfg_reg_a_m, 1);
 5361              		.loc 1 2160 11 view .LVU1364
 5362 0026 01AA     		add	r2, sp, #4
 5363 0028 6021     		movs	r1, #96
 5364 002a 2046     		mov	r0, r4
 5365 002c FFF7FEFF 		bl	lsm303agr_write_reg
 5366              	.LVL352:
2164:Drivers/lsm303agr/Src/lsm303agr_reg.c **** }
 5367              		.loc 1 2164 3 is_stmt 1 view .LVU1365
2164:Drivers/lsm303agr/Src/lsm303agr_reg.c **** }
 5368              		.loc 1 2164 10 is_stmt 0 view .LVU1366
 5369 0030 F0E7     		b	.L322
 5370              		.cfi_endproc
 5371              	.LFE213:
 5373              		.section	.text.lsm303agr_init,"ax",%progbits
 5374              		.align	1
 5375              		.global	lsm303agr_init
 5376              		.syntax unified
 5377              		.thumb
 5378              		.thumb_func
 5380              	lsm303agr_init:
 5381              	.LVL353:
 5382              	.LFB133:
 140:Drivers/lsm303agr/Src/lsm303agr_reg.c **** 	  ctx_xl->write_reg = lsm303agr_write;
 5383              		.loc 1 140 66 is_stmt 1 view -0
 5384              		.cfi_startproc
 5385              		@ args = 0, pretend = 0, frame = 8
 5386              		@ frame_needed = 0, uses_anonymous_args = 0
 140:Drivers/lsm303agr/Src/lsm303agr_reg.c **** 	  ctx_xl->write_reg = lsm303agr_write;
 5387              		.loc 1 140 66 is_stmt 0 view .LVU1368
 5388 0000 30B5     		push	{r4, r5, lr}
 5389              	.LCFI218:
 5390              		.cfi_def_cfa_offset 12
 5391              		.cfi_offset 4, -12
 5392              		.cfi_offset 5, -8
 5393              		.cfi_offset 14, -4
 5394 0002 83B0     		sub	sp, sp, #12
 5395              	.LCFI219:
 5396              		.cfi_def_cfa_offset 24
 5397 0004 0546     		mov	r5, r0
 5398 0006 0C46     		mov	r4, r1
 141:Drivers/lsm303agr/Src/lsm303agr_reg.c **** 	  ctx_xl->read_reg = lsm303agr_read;
 5399              		.loc 1 141 4 is_stmt 1 view .LVU1369
 141:Drivers/lsm303agr/Src/lsm303agr_reg.c **** 	  ctx_xl->read_reg = lsm303agr_read;
 5400              		.loc 1 141 22 is_stmt 0 view .LVU1370
 5401 0008 4048     		ldr	r0, .L332
 5402              	.LVL354:
 141:Drivers/lsm303agr/Src/lsm303agr_reg.c **** 	  ctx_xl->read_reg = lsm303agr_read;
 5403              		.loc 1 141 22 view .LVU1371
 5404 000a 6860     		str	r0, [r5, #4]
ARM GAS  C:\Users\SF\AppData\Local\Temp\ccFGOSN0.s 			page 138


 142:Drivers/lsm303agr/Src/lsm303agr_reg.c **** 	  ctx_xl->handle = (void *)&xl_bus;
 5405              		.loc 1 142 4 is_stmt 1 view .LVU1372
 142:Drivers/lsm303agr/Src/lsm303agr_reg.c **** 	  ctx_xl->handle = (void *)&xl_bus;
 5406              		.loc 1 142 21 is_stmt 0 view .LVU1373
 5407 000c 4049     		ldr	r1, .L332+4
 5408              	.LVL355:
 142:Drivers/lsm303agr/Src/lsm303agr_reg.c **** 	  ctx_xl->handle = (void *)&xl_bus;
 5409              		.loc 1 142 21 view .LVU1374
 5410 000e A960     		str	r1, [r5, #8]
 143:Drivers/lsm303agr/Src/lsm303agr_reg.c **** 	  ctx_xl->mdelay = HAL_Delay;
 5411              		.loc 1 143 4 is_stmt 1 view .LVU1375
 143:Drivers/lsm303agr/Src/lsm303agr_reg.c **** 	  ctx_xl->mdelay = HAL_Delay;
 5412              		.loc 1 143 19 is_stmt 0 view .LVU1376
 5413 0010 404B     		ldr	r3, .L332+8
 5414 0012 2B61     		str	r3, [r5, #16]
 144:Drivers/lsm303agr/Src/lsm303agr_reg.c **** 	  ctx_xl->munlock = lsm303agr_unlock_I2C_bus;
 5415              		.loc 1 144 4 is_stmt 1 view .LVU1377
 144:Drivers/lsm303agr/Src/lsm303agr_reg.c **** 	  ctx_xl->munlock = lsm303agr_unlock_I2C_bus;
 5416              		.loc 1 144 19 is_stmt 0 view .LVU1378
 5417 0014 404A     		ldr	r2, .L332+12
 5418 0016 EA60     		str	r2, [r5, #12]
 145:Drivers/lsm303agr/Src/lsm303agr_reg.c **** 
 5419              		.loc 1 145 4 is_stmt 1 view .LVU1379
 145:Drivers/lsm303agr/Src/lsm303agr_reg.c **** 
 5420              		.loc 1 145 20 is_stmt 0 view .LVU1380
 5421 0018 404B     		ldr	r3, .L332+16
 5422 001a 2B60     		str	r3, [r5]
 147:Drivers/lsm303agr/Src/lsm303agr_reg.c **** 	  ctx_mag->read_reg = lsm303agr_read;
 5423              		.loc 1 147 4 is_stmt 1 view .LVU1381
 147:Drivers/lsm303agr/Src/lsm303agr_reg.c **** 	  ctx_mag->read_reg = lsm303agr_read;
 5424              		.loc 1 147 23 is_stmt 0 view .LVU1382
 5425 001c 6060     		str	r0, [r4, #4]
 148:Drivers/lsm303agr/Src/lsm303agr_reg.c **** 	  ctx_mag->handle = (void *)&mag_bus;
 5426              		.loc 1 148 4 is_stmt 1 view .LVU1383
 148:Drivers/lsm303agr/Src/lsm303agr_reg.c **** 	  ctx_mag->handle = (void *)&mag_bus;
 5427              		.loc 1 148 22 is_stmt 0 view .LVU1384
 5428 001e A160     		str	r1, [r4, #8]
 149:Drivers/lsm303agr/Src/lsm303agr_reg.c **** 	  ctx_mag->mdelay = HAL_Delay;
 5429              		.loc 1 149 4 is_stmt 1 view .LVU1385
 149:Drivers/lsm303agr/Src/lsm303agr_reg.c **** 	  ctx_mag->mdelay = HAL_Delay;
 5430              		.loc 1 149 20 is_stmt 0 view .LVU1386
 5431 0020 3F49     		ldr	r1, .L332+20
 5432 0022 2161     		str	r1, [r4, #16]
 150:Drivers/lsm303agr/Src/lsm303agr_reg.c **** 	  ctx_mag->munlock = lsm303agr_unlock_I2C_bus;
 5433              		.loc 1 150 4 is_stmt 1 view .LVU1387
 150:Drivers/lsm303agr/Src/lsm303agr_reg.c **** 	  ctx_mag->munlock = lsm303agr_unlock_I2C_bus;
 5434              		.loc 1 150 20 is_stmt 0 view .LVU1388
 5435 0024 E260     		str	r2, [r4, #12]
 151:Drivers/lsm303agr/Src/lsm303agr_reg.c **** 
 5436              		.loc 1 151 4 is_stmt 1 view .LVU1389
 151:Drivers/lsm303agr/Src/lsm303agr_reg.c **** 
 5437              		.loc 1 151 21 is_stmt 0 view .LVU1390
 5438 0026 2360     		str	r3, [r4]
 153:Drivers/lsm303agr/Src/lsm303agr_reg.c **** 
 5439              		.loc 1 153 4 is_stmt 1 view .LVU1391
 153:Drivers/lsm303agr/Src/lsm303agr_reg.c **** 
 5440              		.loc 1 153 10 is_stmt 0 view .LVU1392
ARM GAS  C:\Users\SF\AppData\Local\Temp\ccFGOSN0.s 			page 139


 5441 0028 EB68     		ldr	r3, [r5, #12]
 153:Drivers/lsm303agr/Src/lsm303agr_reg.c **** 
 5442              		.loc 1 153 4 view .LVU1393
 5443 002a 6420     		movs	r0, #100
 5444 002c 9847     		blx	r3
 5445              	.LVL356:
 155:Drivers/lsm303agr/Src/lsm303agr_reg.c **** 	  lsm303agr_xl_device_id_get(ctx_xl, &whoamI);
 5446              		.loc 1 155 4 is_stmt 1 view .LVU1394
 155:Drivers/lsm303agr/Src/lsm303agr_reg.c **** 	  lsm303agr_xl_device_id_get(ctx_xl, &whoamI);
 5447              		.loc 1 155 12 is_stmt 0 view .LVU1395
 5448 002e 0023     		movs	r3, #0
 5449 0030 ADF80630 		strh	r3, [sp, #6]	@ movhi
 156:Drivers/lsm303agr/Src/lsm303agr_reg.c **** 
 5450              		.loc 1 156 4 is_stmt 1 view .LVU1396
 5451 0034 0DF10601 		add	r1, sp, #6
 5452 0038 2846     		mov	r0, r5
 5453 003a FFF7FEFF 		bl	lsm303agr_xl_device_id_get
 5454              	.LVL357:
 158:Drivers/lsm303agr/Src/lsm303agr_reg.c **** 		  ctx_xl->munlock(ctx_xl);
 5455              		.loc 1 158 4 view .LVU1397
 158:Drivers/lsm303agr/Src/lsm303agr_reg.c **** 		  ctx_xl->munlock(ctx_xl);
 5456              		.loc 1 158 10 is_stmt 0 view .LVU1398
 5457 003e 12E0     		b	.L327
 5458              	.L328:
 159:Drivers/lsm303agr/Src/lsm303agr_reg.c **** 
 5459              		.loc 1 159 5 is_stmt 1 view .LVU1399
 159:Drivers/lsm303agr/Src/lsm303agr_reg.c **** 
 5460              		.loc 1 159 11 is_stmt 0 view .LVU1400
 5461 0040 2B68     		ldr	r3, [r5]
 159:Drivers/lsm303agr/Src/lsm303agr_reg.c **** 
 5462              		.loc 1 159 5 view .LVU1401
 5463 0042 2846     		mov	r0, r5
 5464 0044 9847     		blx	r3
 5465              	.LVL358:
 161:Drivers/lsm303agr/Src/lsm303agr_reg.c **** 
 5466              		.loc 1 161 5 is_stmt 1 view .LVU1402
 5467 0046 0DF10601 		add	r1, sp, #6
 5468 004a 2846     		mov	r0, r5
 5469 004c FFF7FEFF 		bl	lsm303agr_xl_device_id_get
 5470              	.LVL359:
 163:Drivers/lsm303agr/Src/lsm303agr_reg.c **** 		  lsm303agr_mag_boot_set(ctx_mag, 1);
 5471              		.loc 1 163 5 view .LVU1403
 5472 0050 0121     		movs	r1, #1
 5473 0052 2846     		mov	r0, r5
 5474 0054 FFF7FEFF 		bl	lsm303agr_xl_boot_set
 5475              	.LVL360:
 164:Drivers/lsm303agr/Src/lsm303agr_reg.c **** 
 5476              		.loc 1 164 5 view .LVU1404
 5477 0058 0121     		movs	r1, #1
 5478 005a 2046     		mov	r0, r4
 5479 005c FFF7FEFF 		bl	lsm303agr_mag_boot_set
 5480              	.LVL361:
 166:Drivers/lsm303agr/Src/lsm303agr_reg.c **** 
 5481              		.loc 1 166 5 view .LVU1405
 166:Drivers/lsm303agr/Src/lsm303agr_reg.c **** 
 5482              		.loc 1 166 11 is_stmt 0 view .LVU1406
 5483 0060 EB68     		ldr	r3, [r5, #12]
ARM GAS  C:\Users\SF\AppData\Local\Temp\ccFGOSN0.s 			page 140


 166:Drivers/lsm303agr/Src/lsm303agr_reg.c **** 
 5484              		.loc 1 166 5 view .LVU1407
 5485 0062 6420     		movs	r0, #100
 5486 0064 9847     		blx	r3
 5487              	.LVL362:
 5488              	.L327:
 158:Drivers/lsm303agr/Src/lsm303agr_reg.c **** 		  ctx_xl->munlock(ctx_xl);
 5489              		.loc 1 158 10 is_stmt 1 view .LVU1408
 158:Drivers/lsm303agr/Src/lsm303agr_reg.c **** 		  ctx_xl->munlock(ctx_xl);
 5490              		.loc 1 158 19 is_stmt 0 view .LVU1409
 5491 0066 BDF90630 		ldrsh	r3, [sp, #6]
 158:Drivers/lsm303agr/Src/lsm303agr_reg.c **** 		  ctx_xl->munlock(ctx_xl);
 5492              		.loc 1 158 10 view .LVU1410
 5493 006a 332B     		cmp	r3, #51
 5494 006c E8D1     		bne	.L328
 171:Drivers/lsm303agr/Src/lsm303agr_reg.c **** 	  lsm303agr_mag_device_id_get(ctx_mag, &whoamI);
 5495              		.loc 1 171 4 is_stmt 1 view .LVU1411
 171:Drivers/lsm303agr/Src/lsm303agr_reg.c **** 	  lsm303agr_mag_device_id_get(ctx_mag, &whoamI);
 5496              		.loc 1 171 11 is_stmt 0 view .LVU1412
 5497 006e 0023     		movs	r3, #0
 5498 0070 ADF80630 		strh	r3, [sp, #6]	@ movhi
 172:Drivers/lsm303agr/Src/lsm303agr_reg.c **** 
 5499              		.loc 1 172 4 is_stmt 1 view .LVU1413
 5500 0074 0DF10601 		add	r1, sp, #6
 5501 0078 2046     		mov	r0, r4
 5502 007a FFF7FEFF 		bl	lsm303agr_mag_device_id_get
 5503              	.LVL363:
 174:Drivers/lsm303agr/Src/lsm303agr_reg.c **** 		  ctx_mag->munlock(ctx_mag);
 5504              		.loc 1 174 4 view .LVU1414
 174:Drivers/lsm303agr/Src/lsm303agr_reg.c **** 		  ctx_mag->munlock(ctx_mag);
 5505              		.loc 1 174 10 is_stmt 0 view .LVU1415
 5506 007e 12E0     		b	.L329
 5507              	.L330:
 175:Drivers/lsm303agr/Src/lsm303agr_reg.c **** 
 5508              		.loc 1 175 5 is_stmt 1 view .LVU1416
 175:Drivers/lsm303agr/Src/lsm303agr_reg.c **** 
 5509              		.loc 1 175 12 is_stmt 0 view .LVU1417
 5510 0080 2368     		ldr	r3, [r4]
 175:Drivers/lsm303agr/Src/lsm303agr_reg.c **** 
 5511              		.loc 1 175 5 view .LVU1418
 5512 0082 2046     		mov	r0, r4
 5513 0084 9847     		blx	r3
 5514              	.LVL364:
 177:Drivers/lsm303agr/Src/lsm303agr_reg.c **** 
 5515              		.loc 1 177 5 is_stmt 1 view .LVU1419
 5516 0086 0DF10601 		add	r1, sp, #6
 5517 008a 2046     		mov	r0, r4
 5518 008c FFF7FEFF 		bl	lsm303agr_xl_device_id_get
 5519              	.LVL365:
 179:Drivers/lsm303agr/Src/lsm303agr_reg.c **** 		  lsm303agr_mag_boot_set(ctx_mag, 1);
 5520              		.loc 1 179 5 view .LVU1420
 5521 0090 0121     		movs	r1, #1
 5522 0092 2046     		mov	r0, r4
 5523 0094 FFF7FEFF 		bl	lsm303agr_xl_boot_set
 5524              	.LVL366:
 180:Drivers/lsm303agr/Src/lsm303agr_reg.c **** 
 5525              		.loc 1 180 5 view .LVU1421
ARM GAS  C:\Users\SF\AppData\Local\Temp\ccFGOSN0.s 			page 141


 5526 0098 0121     		movs	r1, #1
 5527 009a 2046     		mov	r0, r4
 5528 009c FFF7FEFF 		bl	lsm303agr_mag_boot_set
 5529              	.LVL367:
 182:Drivers/lsm303agr/Src/lsm303agr_reg.c **** 	  }
 5530              		.loc 1 182 5 view .LVU1422
 182:Drivers/lsm303agr/Src/lsm303agr_reg.c **** 	  }
 5531              		.loc 1 182 12 is_stmt 0 view .LVU1423
 5532 00a0 E368     		ldr	r3, [r4, #12]
 182:Drivers/lsm303agr/Src/lsm303agr_reg.c **** 	  }
 5533              		.loc 1 182 5 view .LVU1424
 5534 00a2 6420     		movs	r0, #100
 5535 00a4 9847     		blx	r3
 5536              	.LVL368:
 5537              	.L329:
 174:Drivers/lsm303agr/Src/lsm303agr_reg.c **** 		  ctx_mag->munlock(ctx_mag);
 5538              		.loc 1 174 10 is_stmt 1 view .LVU1425
 174:Drivers/lsm303agr/Src/lsm303agr_reg.c **** 		  ctx_mag->munlock(ctx_mag);
 5539              		.loc 1 174 19 is_stmt 0 view .LVU1426
 5540 00a6 BDF90630 		ldrsh	r3, [sp, #6]
 174:Drivers/lsm303agr/Src/lsm303agr_reg.c **** 		  ctx_mag->munlock(ctx_mag);
 5541              		.loc 1 174 10 view .LVU1427
 5542 00aa 402B     		cmp	r3, #64
 5543 00ac E8D1     		bne	.L330
 186:Drivers/lsm303agr/Src/lsm303agr_reg.c **** 	  lsm303agr_xl_block_data_update_set(ctx_xl, PROPERTY_ENABLE);
 5544              		.loc 1 186 4 is_stmt 1 view .LVU1428
 5545 00ae 0121     		movs	r1, #1
 5546 00b0 2046     		mov	r0, r4
 5547 00b2 FFF7FEFF 		bl	lsm303agr_mag_reset_set
 5548              	.LVL369:
 187:Drivers/lsm303agr/Src/lsm303agr_reg.c **** 	  lsm303agr_mag_block_data_update_set(ctx_mag, PROPERTY_ENABLE);
 5549              		.loc 1 187 4 view .LVU1429
 5550 00b6 0121     		movs	r1, #1
 5551 00b8 2846     		mov	r0, r5
 5552 00ba FFF7FEFF 		bl	lsm303agr_xl_block_data_update_set
 5553              	.LVL370:
 188:Drivers/lsm303agr/Src/lsm303agr_reg.c **** 	  /* Set Output Data Rate */
 5554              		.loc 1 188 4 view .LVU1430
 5555 00be 0121     		movs	r1, #1
 5556 00c0 2046     		mov	r0, r4
 5557 00c2 FFF7FEFF 		bl	lsm303agr_mag_block_data_update_set
 5558              	.LVL371:
 190:Drivers/lsm303agr/Src/lsm303agr_reg.c **** 	  lsm303agr_mag_data_rate_set(ctx_mag, LSM303AGR_MG_ODR_10Hz);
 5559              		.loc 1 190 4 view .LVU1431
 5560 00c6 0121     		movs	r1, #1
 5561 00c8 2846     		mov	r0, r5
 5562 00ca FFF7FEFF 		bl	lsm303agr_xl_data_rate_set
 5563              	.LVL372:
 191:Drivers/lsm303agr/Src/lsm303agr_reg.c **** 	  /* Set accelerometer full scale */
 5564              		.loc 1 191 4 view .LVU1432
 5565 00ce 0021     		movs	r1, #0
 5566 00d0 2046     		mov	r0, r4
 5567 00d2 FFF7FEFF 		bl	lsm303agr_mag_data_rate_set
 5568              	.LVL373:
 193:Drivers/lsm303agr/Src/lsm303agr_reg.c **** 	  /* Set / Reset magnetic sensor mode */
 5569              		.loc 1 193 4 view .LVU1433
 5570 00d6 0021     		movs	r1, #0
ARM GAS  C:\Users\SF\AppData\Local\Temp\ccFGOSN0.s 			page 142


 5571 00d8 2846     		mov	r0, r5
 5572 00da FFF7FEFF 		bl	lsm303agr_xl_full_scale_set
 5573              	.LVL374:
 195:Drivers/lsm303agr/Src/lsm303agr_reg.c **** 	                                 LSM303AGR_SENS_OFF_CANC_EVERY_ODR);
 5574              		.loc 1 195 4 view .LVU1434
 5575 00de 0121     		movs	r1, #1
 5576 00e0 2046     		mov	r0, r4
 5577 00e2 FFF7FEFF 		bl	lsm303agr_mag_set_rst_mode_set
 5578              	.LVL375:
 198:Drivers/lsm303agr/Src/lsm303agr_reg.c **** 	  /* Enable temperature sensor */
 5579              		.loc 1 198 4 view .LVU1435
 5580 00e6 0121     		movs	r1, #1
 5581 00e8 2046     		mov	r0, r4
 5582 00ea FFF7FEFF 		bl	lsm303agr_mag_offset_temp_comp_set
 5583              	.LVL376:
 200:Drivers/lsm303agr/Src/lsm303agr_reg.c **** 	  /* Set device in continuous mode */
 5584              		.loc 1 200 4 view .LVU1436
 5585 00ee 0321     		movs	r1, #3
 5586 00f0 2846     		mov	r0, r5
 5587 00f2 FFF7FEFF 		bl	lsm303agr_temperature_meas_set
 5588              	.LVL377:
 202:Drivers/lsm303agr/Src/lsm303agr_reg.c **** 	  /* Set magnetometer in continuous mode */
 5589              		.loc 1 202 4 view .LVU1437
 5590 00f6 0021     		movs	r1, #0
 5591 00f8 2846     		mov	r0, r5
 5592 00fa FFF7FEFF 		bl	lsm303agr_xl_operating_mode_set
 5593              	.LVL378:
 204:Drivers/lsm303agr/Src/lsm303agr_reg.c **** 	                                   LSM303AGR_CONTINUOUS_MODE);
 5594              		.loc 1 204 4 view .LVU1438
 5595 00fe 0021     		movs	r1, #0
 5596 0100 2046     		mov	r0, r4
 5597 0102 FFF7FEFF 		bl	lsm303agr_mag_operating_mode_set
 5598              	.LVL379:
 206:Drivers/lsm303agr/Src/lsm303agr_reg.c **** 
 5599              		.loc 1 206 1 is_stmt 0 view .LVU1439
 5600 0106 03B0     		add	sp, sp, #12
 5601              	.LCFI220:
 5602              		.cfi_def_cfa_offset 12
 5603              		@ sp needed
 5604 0108 30BD     		pop	{r4, r5, pc}
 5605              	.LVL380:
 5606              	.L333:
 206:Drivers/lsm303agr/Src/lsm303agr_reg.c **** 
 5607              		.loc 1 206 1 view .LVU1440
 5608 010a 00BF     		.align	2
 5609              	.L332:
 5610 010c 00000000 		.word	lsm303agr_write
 5611 0110 00000000 		.word	lsm303agr_read
 5612 0114 00000000 		.word	.LANCHOR0
 5613 0118 00000000 		.word	HAL_Delay
 5614 011c 00000000 		.word	lsm303agr_unlock_I2C_bus
 5615 0120 00000000 		.word	.LANCHOR1
 5616              		.cfi_endproc
 5617              	.LFE133:
 5619              		.section	.text.lsm303agr_mag_boot_get,"ax",%progbits
 5620              		.align	1
 5621              		.global	lsm303agr_mag_boot_get
ARM GAS  C:\Users\SF\AppData\Local\Temp\ccFGOSN0.s 			page 143


 5622              		.syntax unified
 5623              		.thumb
 5624              		.thumb_func
 5626              	lsm303agr_mag_boot_get:
 5627              	.LVL381:
 5628              	.LFB214:
2166:Drivers/lsm303agr/Src/lsm303agr_reg.c **** 
2167:Drivers/lsm303agr/Src/lsm303agr_reg.c **** /**
2168:Drivers/lsm303agr/Src/lsm303agr_reg.c ****   * @brief  Reboot memory content. Reload the calibration parameters.[get]
2169:Drivers/lsm303agr/Src/lsm303agr_reg.c ****   *
2170:Drivers/lsm303agr/Src/lsm303agr_reg.c ****   * @param  ctx    Read / write interface definitions.(ptr)
2171:Drivers/lsm303agr/Src/lsm303agr_reg.c ****   * @param  val    Get the values of reboot in reg CFG_REG_A_M.(ptr)
2172:Drivers/lsm303agr/Src/lsm303agr_reg.c ****   * @retval        Interface status (MANDATORY: return 0 -> no Error).
2173:Drivers/lsm303agr/Src/lsm303agr_reg.c ****   *
2174:Drivers/lsm303agr/Src/lsm303agr_reg.c ****   */
2175:Drivers/lsm303agr/Src/lsm303agr_reg.c **** int32_t lsm303agr_mag_boot_get(stmdev_ctx_t *ctx, uint8_t *val)
2176:Drivers/lsm303agr/Src/lsm303agr_reg.c **** {
 5629              		.loc 1 2176 1 is_stmt 1 view -0
 5630              		.cfi_startproc
 5631              		@ args = 0, pretend = 0, frame = 8
 5632              		@ frame_needed = 0, uses_anonymous_args = 0
 5633              		.loc 1 2176 1 is_stmt 0 view .LVU1442
 5634 0000 10B5     		push	{r4, lr}
 5635              	.LCFI221:
 5636              		.cfi_def_cfa_offset 8
 5637              		.cfi_offset 4, -8
 5638              		.cfi_offset 14, -4
 5639 0002 82B0     		sub	sp, sp, #8
 5640              	.LCFI222:
 5641              		.cfi_def_cfa_offset 16
 5642 0004 0C46     		mov	r4, r1
2177:Drivers/lsm303agr/Src/lsm303agr_reg.c ****   lsm303agr_cfg_reg_a_m_t cfg_reg_a_m;
 5643              		.loc 1 2177 3 is_stmt 1 view .LVU1443
2178:Drivers/lsm303agr/Src/lsm303agr_reg.c ****   int32_t ret;
 5644              		.loc 1 2178 3 view .LVU1444
2179:Drivers/lsm303agr/Src/lsm303agr_reg.c **** 
2180:Drivers/lsm303agr/Src/lsm303agr_reg.c ****   ret = lsm303agr_read_reg(ctx, LSM303AGR_CFG_REG_A_M,
 5645              		.loc 1 2180 3 view .LVU1445
 5646              		.loc 1 2180 9 is_stmt 0 view .LVU1446
 5647 0006 0123     		movs	r3, #1
 5648 0008 01AA     		add	r2, sp, #4
 5649 000a 6021     		movs	r1, #96
 5650              	.LVL382:
 5651              		.loc 1 2180 9 view .LVU1447
 5652 000c FFF7FEFF 		bl	lsm303agr_read_reg
 5653              	.LVL383:
2181:Drivers/lsm303agr/Src/lsm303agr_reg.c ****                            (uint8_t *)&cfg_reg_a_m, 1);
2182:Drivers/lsm303agr/Src/lsm303agr_reg.c ****   *val = cfg_reg_a_m.reboot;
 5654              		.loc 1 2182 3 is_stmt 1 view .LVU1448
 5655              		.loc 1 2182 21 is_stmt 0 view .LVU1449
 5656 0010 9DF80430 		ldrb	r3, [sp, #4]	@ zero_extendqisi2
 5657 0014 C3F38013 		ubfx	r3, r3, #6, #1
 5658              		.loc 1 2182 8 view .LVU1450
 5659 0018 2370     		strb	r3, [r4]
2183:Drivers/lsm303agr/Src/lsm303agr_reg.c **** 
2184:Drivers/lsm303agr/Src/lsm303agr_reg.c ****   return ret;
 5660              		.loc 1 2184 3 is_stmt 1 view .LVU1451
ARM GAS  C:\Users\SF\AppData\Local\Temp\ccFGOSN0.s 			page 144


2185:Drivers/lsm303agr/Src/lsm303agr_reg.c **** }
 5661              		.loc 1 2185 1 is_stmt 0 view .LVU1452
 5662 001a 02B0     		add	sp, sp, #8
 5663              	.LCFI223:
 5664              		.cfi_def_cfa_offset 8
 5665              		@ sp needed
 5666 001c 10BD     		pop	{r4, pc}
 5667              		.loc 1 2185 1 view .LVU1453
 5668              		.cfi_endproc
 5669              	.LFE214:
 5671              		.section	.text.lsm303agr_mag_self_test_set,"ax",%progbits
 5672              		.align	1
 5673              		.global	lsm303agr_mag_self_test_set
 5674              		.syntax unified
 5675              		.thumb
 5676              		.thumb_func
 5678              	lsm303agr_mag_self_test_set:
 5679              	.LVL384:
 5680              	.LFB215:
2186:Drivers/lsm303agr/Src/lsm303agr_reg.c **** 
2187:Drivers/lsm303agr/Src/lsm303agr_reg.c **** /**
2188:Drivers/lsm303agr/Src/lsm303agr_reg.c ****   * @brief  Selftest.[set]
2189:Drivers/lsm303agr/Src/lsm303agr_reg.c ****   *
2190:Drivers/lsm303agr/Src/lsm303agr_reg.c ****   * @param  ctx    Read / write interface definitions.(ptr)
2191:Drivers/lsm303agr/Src/lsm303agr_reg.c ****   * @param  val    Change the values of self_test in reg CFG_REG_C_M
2192:Drivers/lsm303agr/Src/lsm303agr_reg.c ****   * @retval        Interface status (MANDATORY: return 0 -> no Error).
2193:Drivers/lsm303agr/Src/lsm303agr_reg.c ****   *
2194:Drivers/lsm303agr/Src/lsm303agr_reg.c ****   */
2195:Drivers/lsm303agr/Src/lsm303agr_reg.c **** int32_t lsm303agr_mag_self_test_set(stmdev_ctx_t *ctx, uint8_t val)
2196:Drivers/lsm303agr/Src/lsm303agr_reg.c **** {
 5681              		.loc 1 2196 1 is_stmt 1 view -0
 5682              		.cfi_startproc
 5683              		@ args = 0, pretend = 0, frame = 8
 5684              		@ frame_needed = 0, uses_anonymous_args = 0
 5685              		.loc 1 2196 1 is_stmt 0 view .LVU1455
 5686 0000 30B5     		push	{r4, r5, lr}
 5687              	.LCFI224:
 5688              		.cfi_def_cfa_offset 12
 5689              		.cfi_offset 4, -12
 5690              		.cfi_offset 5, -8
 5691              		.cfi_offset 14, -4
 5692 0002 83B0     		sub	sp, sp, #12
 5693              	.LCFI225:
 5694              		.cfi_def_cfa_offset 24
 5695 0004 0446     		mov	r4, r0
 5696 0006 0D46     		mov	r5, r1
2197:Drivers/lsm303agr/Src/lsm303agr_reg.c ****   lsm303agr_cfg_reg_c_m_t cfg_reg_c_m;
 5697              		.loc 1 2197 3 is_stmt 1 view .LVU1456
2198:Drivers/lsm303agr/Src/lsm303agr_reg.c ****   int32_t ret;
 5698              		.loc 1 2198 3 view .LVU1457
2199:Drivers/lsm303agr/Src/lsm303agr_reg.c **** 
2200:Drivers/lsm303agr/Src/lsm303agr_reg.c ****   ret = lsm303agr_read_reg(ctx, LSM303AGR_CFG_REG_C_M,
 5699              		.loc 1 2200 3 view .LVU1458
 5700              		.loc 1 2200 9 is_stmt 0 view .LVU1459
 5701 0008 0123     		movs	r3, #1
 5702 000a 01AA     		add	r2, sp, #4
 5703 000c 6221     		movs	r1, #98
ARM GAS  C:\Users\SF\AppData\Local\Temp\ccFGOSN0.s 			page 145


 5704              	.LVL385:
 5705              		.loc 1 2200 9 view .LVU1460
 5706 000e FFF7FEFF 		bl	lsm303agr_read_reg
 5707              	.LVL386:
2201:Drivers/lsm303agr/Src/lsm303agr_reg.c ****                            (uint8_t *)&cfg_reg_c_m, 1);
2202:Drivers/lsm303agr/Src/lsm303agr_reg.c **** 
2203:Drivers/lsm303agr/Src/lsm303agr_reg.c ****   if (ret == 0)
 5708              		.loc 1 2203 3 is_stmt 1 view .LVU1461
 5709              		.loc 1 2203 6 is_stmt 0 view .LVU1462
 5710 0012 08B1     		cbz	r0, .L339
 5711              	.LVL387:
 5712              	.L336:
2204:Drivers/lsm303agr/Src/lsm303agr_reg.c ****   {
2205:Drivers/lsm303agr/Src/lsm303agr_reg.c ****     cfg_reg_c_m.self_test = (uint8_t)val;
2206:Drivers/lsm303agr/Src/lsm303agr_reg.c ****     ret = lsm303agr_write_reg(ctx, LSM303AGR_CFG_REG_C_M,
2207:Drivers/lsm303agr/Src/lsm303agr_reg.c ****                               (uint8_t *)&cfg_reg_c_m, 1);
2208:Drivers/lsm303agr/Src/lsm303agr_reg.c ****   }
2209:Drivers/lsm303agr/Src/lsm303agr_reg.c **** 
2210:Drivers/lsm303agr/Src/lsm303agr_reg.c ****   return ret;
2211:Drivers/lsm303agr/Src/lsm303agr_reg.c **** }
 5713              		.loc 1 2211 1 view .LVU1463
 5714 0014 03B0     		add	sp, sp, #12
 5715              	.LCFI226:
 5716              		.cfi_remember_state
 5717              		.cfi_def_cfa_offset 12
 5718              		@ sp needed
 5719 0016 30BD     		pop	{r4, r5, pc}
 5720              	.LVL388:
 5721              	.L339:
 5722              	.LCFI227:
 5723              		.cfi_restore_state
2205:Drivers/lsm303agr/Src/lsm303agr_reg.c ****     ret = lsm303agr_write_reg(ctx, LSM303AGR_CFG_REG_C_M,
 5724              		.loc 1 2205 5 is_stmt 1 view .LVU1464
2205:Drivers/lsm303agr/Src/lsm303agr_reg.c ****     ret = lsm303agr_write_reg(ctx, LSM303AGR_CFG_REG_C_M,
 5725              		.loc 1 2205 27 is_stmt 0 view .LVU1465
 5726 0018 9DF80430 		ldrb	r3, [sp, #4]	@ zero_extendqisi2
 5727 001c 65F34103 		bfi	r3, r5, #1, #1
 5728 0020 8DF80430 		strb	r3, [sp, #4]
2206:Drivers/lsm303agr/Src/lsm303agr_reg.c ****                               (uint8_t *)&cfg_reg_c_m, 1);
 5729              		.loc 1 2206 5 is_stmt 1 view .LVU1466
2206:Drivers/lsm303agr/Src/lsm303agr_reg.c ****                               (uint8_t *)&cfg_reg_c_m, 1);
 5730              		.loc 1 2206 11 is_stmt 0 view .LVU1467
 5731 0024 0123     		movs	r3, #1
 5732              	.LVL389:
2206:Drivers/lsm303agr/Src/lsm303agr_reg.c ****                               (uint8_t *)&cfg_reg_c_m, 1);
 5733              		.loc 1 2206 11 view .LVU1468
 5734 0026 01AA     		add	r2, sp, #4
 5735 0028 6221     		movs	r1, #98
 5736 002a 2046     		mov	r0, r4
 5737 002c FFF7FEFF 		bl	lsm303agr_write_reg
 5738              	.LVL390:
2210:Drivers/lsm303agr/Src/lsm303agr_reg.c **** }
 5739              		.loc 1 2210 3 is_stmt 1 view .LVU1469
2210:Drivers/lsm303agr/Src/lsm303agr_reg.c **** }
 5740              		.loc 1 2210 10 is_stmt 0 view .LVU1470
 5741 0030 F0E7     		b	.L336
 5742              		.cfi_endproc
ARM GAS  C:\Users\SF\AppData\Local\Temp\ccFGOSN0.s 			page 146


 5743              	.LFE215:
 5745              		.section	.text.lsm303agr_mag_self_test_get,"ax",%progbits
 5746              		.align	1
 5747              		.global	lsm303agr_mag_self_test_get
 5748              		.syntax unified
 5749              		.thumb
 5750              		.thumb_func
 5752              	lsm303agr_mag_self_test_get:
 5753              	.LVL391:
 5754              	.LFB216:
2212:Drivers/lsm303agr/Src/lsm303agr_reg.c **** 
2213:Drivers/lsm303agr/Src/lsm303agr_reg.c **** /**
2214:Drivers/lsm303agr/Src/lsm303agr_reg.c ****   * @brief  Selftest.[get]
2215:Drivers/lsm303agr/Src/lsm303agr_reg.c ****   *
2216:Drivers/lsm303agr/Src/lsm303agr_reg.c ****   * @param  ctx    Read / write interface definitions.(ptr)
2217:Drivers/lsm303agr/Src/lsm303agr_reg.c ****   * @param  val    Get the values of self_test in reg CFG_REG_C_M.(ptr)
2218:Drivers/lsm303agr/Src/lsm303agr_reg.c ****   * @retval        Interface status (MANDATORY: return 0 -> no Error).
2219:Drivers/lsm303agr/Src/lsm303agr_reg.c ****   *
2220:Drivers/lsm303agr/Src/lsm303agr_reg.c ****   */
2221:Drivers/lsm303agr/Src/lsm303agr_reg.c **** int32_t lsm303agr_mag_self_test_get(stmdev_ctx_t *ctx, uint8_t *val)
2222:Drivers/lsm303agr/Src/lsm303agr_reg.c **** {
 5755              		.loc 1 2222 1 is_stmt 1 view -0
 5756              		.cfi_startproc
 5757              		@ args = 0, pretend = 0, frame = 8
 5758              		@ frame_needed = 0, uses_anonymous_args = 0
 5759              		.loc 1 2222 1 is_stmt 0 view .LVU1472
 5760 0000 10B5     		push	{r4, lr}
 5761              	.LCFI228:
 5762              		.cfi_def_cfa_offset 8
 5763              		.cfi_offset 4, -8
 5764              		.cfi_offset 14, -4
 5765 0002 82B0     		sub	sp, sp, #8
 5766              	.LCFI229:
 5767              		.cfi_def_cfa_offset 16
 5768 0004 0C46     		mov	r4, r1
2223:Drivers/lsm303agr/Src/lsm303agr_reg.c ****   lsm303agr_cfg_reg_c_m_t cfg_reg_c_m;
 5769              		.loc 1 2223 3 is_stmt 1 view .LVU1473
2224:Drivers/lsm303agr/Src/lsm303agr_reg.c ****   int32_t ret;
 5770              		.loc 1 2224 3 view .LVU1474
2225:Drivers/lsm303agr/Src/lsm303agr_reg.c **** 
2226:Drivers/lsm303agr/Src/lsm303agr_reg.c ****   ret = lsm303agr_read_reg(ctx, LSM303AGR_CFG_REG_C_M,
 5771              		.loc 1 2226 3 view .LVU1475
 5772              		.loc 1 2226 9 is_stmt 0 view .LVU1476
 5773 0006 0123     		movs	r3, #1
 5774 0008 01AA     		add	r2, sp, #4
 5775 000a 6221     		movs	r1, #98
 5776              	.LVL392:
 5777              		.loc 1 2226 9 view .LVU1477
 5778 000c FFF7FEFF 		bl	lsm303agr_read_reg
 5779              	.LVL393:
2227:Drivers/lsm303agr/Src/lsm303agr_reg.c ****                            (uint8_t *)&cfg_reg_c_m, 1);
2228:Drivers/lsm303agr/Src/lsm303agr_reg.c ****   *val = cfg_reg_c_m.self_test;
 5780              		.loc 1 2228 3 is_stmt 1 view .LVU1478
 5781              		.loc 1 2228 21 is_stmt 0 view .LVU1479
 5782 0010 9DF80430 		ldrb	r3, [sp, #4]	@ zero_extendqisi2
 5783 0014 C3F34003 		ubfx	r3, r3, #1, #1
 5784              		.loc 1 2228 8 view .LVU1480
ARM GAS  C:\Users\SF\AppData\Local\Temp\ccFGOSN0.s 			page 147


 5785 0018 2370     		strb	r3, [r4]
2229:Drivers/lsm303agr/Src/lsm303agr_reg.c **** 
2230:Drivers/lsm303agr/Src/lsm303agr_reg.c ****   return ret;
 5786              		.loc 1 2230 3 is_stmt 1 view .LVU1481
2231:Drivers/lsm303agr/Src/lsm303agr_reg.c **** }
 5787              		.loc 1 2231 1 is_stmt 0 view .LVU1482
 5788 001a 02B0     		add	sp, sp, #8
 5789              	.LCFI230:
 5790              		.cfi_def_cfa_offset 8
 5791              		@ sp needed
 5792 001c 10BD     		pop	{r4, pc}
 5793              		.loc 1 2231 1 view .LVU1483
 5794              		.cfi_endproc
 5795              	.LFE216:
 5797              		.section	.text.lsm303agr_mag_data_format_set,"ax",%progbits
 5798              		.align	1
 5799              		.global	lsm303agr_mag_data_format_set
 5800              		.syntax unified
 5801              		.thumb
 5802              		.thumb_func
 5804              	lsm303agr_mag_data_format_set:
 5805              	.LVL394:
 5806              	.LFB217:
2232:Drivers/lsm303agr/Src/lsm303agr_reg.c **** 
2233:Drivers/lsm303agr/Src/lsm303agr_reg.c **** /**
2234:Drivers/lsm303agr/Src/lsm303agr_reg.c ****   * @brief  Big/Little Endian data selection.[set]
2235:Drivers/lsm303agr/Src/lsm303agr_reg.c ****   *
2236:Drivers/lsm303agr/Src/lsm303agr_reg.c ****   * @param  ctx    Read / write interface definitions.(ptr)
2237:Drivers/lsm303agr/Src/lsm303agr_reg.c ****   * @param  val    Change the values of ble in reg CFG_REG_C_M
2238:Drivers/lsm303agr/Src/lsm303agr_reg.c ****   * @retval        Interface status (MANDATORY: return 0 -> no Error).
2239:Drivers/lsm303agr/Src/lsm303agr_reg.c ****   *
2240:Drivers/lsm303agr/Src/lsm303agr_reg.c ****   */
2241:Drivers/lsm303agr/Src/lsm303agr_reg.c **** int32_t lsm303agr_mag_data_format_set(stmdev_ctx_t *ctx,
2242:Drivers/lsm303agr/Src/lsm303agr_reg.c ****                                       lsm303agr_ble_m_t val)
2243:Drivers/lsm303agr/Src/lsm303agr_reg.c **** {
 5807              		.loc 1 2243 1 is_stmt 1 view -0
 5808              		.cfi_startproc
 5809              		@ args = 0, pretend = 0, frame = 8
 5810              		@ frame_needed = 0, uses_anonymous_args = 0
 5811              		.loc 1 2243 1 is_stmt 0 view .LVU1485
 5812 0000 30B5     		push	{r4, r5, lr}
 5813              	.LCFI231:
 5814              		.cfi_def_cfa_offset 12
 5815              		.cfi_offset 4, -12
 5816              		.cfi_offset 5, -8
 5817              		.cfi_offset 14, -4
 5818 0002 83B0     		sub	sp, sp, #12
 5819              	.LCFI232:
 5820              		.cfi_def_cfa_offset 24
 5821 0004 0446     		mov	r4, r0
 5822 0006 0D46     		mov	r5, r1
2244:Drivers/lsm303agr/Src/lsm303agr_reg.c ****   lsm303agr_cfg_reg_c_m_t cfg_reg_c_m;
 5823              		.loc 1 2244 3 is_stmt 1 view .LVU1486
2245:Drivers/lsm303agr/Src/lsm303agr_reg.c ****   int32_t ret;
 5824              		.loc 1 2245 3 view .LVU1487
2246:Drivers/lsm303agr/Src/lsm303agr_reg.c **** 
2247:Drivers/lsm303agr/Src/lsm303agr_reg.c ****   ret = lsm303agr_read_reg(ctx, LSM303AGR_CFG_REG_C_M,
ARM GAS  C:\Users\SF\AppData\Local\Temp\ccFGOSN0.s 			page 148


 5825              		.loc 1 2247 3 view .LVU1488
 5826              		.loc 1 2247 9 is_stmt 0 view .LVU1489
 5827 0008 0123     		movs	r3, #1
 5828 000a 01AA     		add	r2, sp, #4
 5829 000c 6221     		movs	r1, #98
 5830              	.LVL395:
 5831              		.loc 1 2247 9 view .LVU1490
 5832 000e FFF7FEFF 		bl	lsm303agr_read_reg
 5833              	.LVL396:
2248:Drivers/lsm303agr/Src/lsm303agr_reg.c ****                            (uint8_t *)&cfg_reg_c_m, 1);
2249:Drivers/lsm303agr/Src/lsm303agr_reg.c **** 
2250:Drivers/lsm303agr/Src/lsm303agr_reg.c ****   if (ret == 0)
 5834              		.loc 1 2250 3 is_stmt 1 view .LVU1491
 5835              		.loc 1 2250 6 is_stmt 0 view .LVU1492
 5836 0012 08B1     		cbz	r0, .L345
 5837              	.LVL397:
 5838              	.L342:
2251:Drivers/lsm303agr/Src/lsm303agr_reg.c ****   {
2252:Drivers/lsm303agr/Src/lsm303agr_reg.c ****     cfg_reg_c_m.ble = (uint8_t)val;
2253:Drivers/lsm303agr/Src/lsm303agr_reg.c ****     ret = lsm303agr_write_reg(ctx, LSM303AGR_CFG_REG_C_M,
2254:Drivers/lsm303agr/Src/lsm303agr_reg.c ****                               (uint8_t *)&cfg_reg_c_m, 1);
2255:Drivers/lsm303agr/Src/lsm303agr_reg.c ****   }
2256:Drivers/lsm303agr/Src/lsm303agr_reg.c **** 
2257:Drivers/lsm303agr/Src/lsm303agr_reg.c ****   return ret;
2258:Drivers/lsm303agr/Src/lsm303agr_reg.c **** }
 5839              		.loc 1 2258 1 view .LVU1493
 5840 0014 03B0     		add	sp, sp, #12
 5841              	.LCFI233:
 5842              		.cfi_remember_state
 5843              		.cfi_def_cfa_offset 12
 5844              		@ sp needed
 5845 0016 30BD     		pop	{r4, r5, pc}
 5846              	.LVL398:
 5847              	.L345:
 5848              	.LCFI234:
 5849              		.cfi_restore_state
2252:Drivers/lsm303agr/Src/lsm303agr_reg.c ****     ret = lsm303agr_write_reg(ctx, LSM303AGR_CFG_REG_C_M,
 5850              		.loc 1 2252 5 is_stmt 1 view .LVU1494
2252:Drivers/lsm303agr/Src/lsm303agr_reg.c ****     ret = lsm303agr_write_reg(ctx, LSM303AGR_CFG_REG_C_M,
 5851              		.loc 1 2252 21 is_stmt 0 view .LVU1495
 5852 0018 9DF80430 		ldrb	r3, [sp, #4]	@ zero_extendqisi2
 5853 001c 65F3C303 		bfi	r3, r5, #3, #1
 5854 0020 8DF80430 		strb	r3, [sp, #4]
2253:Drivers/lsm303agr/Src/lsm303agr_reg.c ****                               (uint8_t *)&cfg_reg_c_m, 1);
 5855              		.loc 1 2253 5 is_stmt 1 view .LVU1496
2253:Drivers/lsm303agr/Src/lsm303agr_reg.c ****                               (uint8_t *)&cfg_reg_c_m, 1);
 5856              		.loc 1 2253 11 is_stmt 0 view .LVU1497
 5857 0024 0123     		movs	r3, #1
 5858              	.LVL399:
2253:Drivers/lsm303agr/Src/lsm303agr_reg.c ****                               (uint8_t *)&cfg_reg_c_m, 1);
 5859              		.loc 1 2253 11 view .LVU1498
 5860 0026 01AA     		add	r2, sp, #4
 5861 0028 6221     		movs	r1, #98
 5862 002a 2046     		mov	r0, r4
 5863 002c FFF7FEFF 		bl	lsm303agr_write_reg
 5864              	.LVL400:
2257:Drivers/lsm303agr/Src/lsm303agr_reg.c **** }
ARM GAS  C:\Users\SF\AppData\Local\Temp\ccFGOSN0.s 			page 149


 5865              		.loc 1 2257 3 is_stmt 1 view .LVU1499
2257:Drivers/lsm303agr/Src/lsm303agr_reg.c **** }
 5866              		.loc 1 2257 10 is_stmt 0 view .LVU1500
 5867 0030 F0E7     		b	.L342
 5868              		.cfi_endproc
 5869              	.LFE217:
 5871              		.section	.text.lsm303agr_mag_data_format_get,"ax",%progbits
 5872              		.align	1
 5873              		.global	lsm303agr_mag_data_format_get
 5874              		.syntax unified
 5875              		.thumb
 5876              		.thumb_func
 5878              	lsm303agr_mag_data_format_get:
 5879              	.LVL401:
 5880              	.LFB218:
2259:Drivers/lsm303agr/Src/lsm303agr_reg.c **** 
2260:Drivers/lsm303agr/Src/lsm303agr_reg.c **** /**
2261:Drivers/lsm303agr/Src/lsm303agr_reg.c ****   * @brief  Big/Little Endian data selection.[get]
2262:Drivers/lsm303agr/Src/lsm303agr_reg.c ****   *
2263:Drivers/lsm303agr/Src/lsm303agr_reg.c ****   * @param  ctx    Read / write interface definitions.(ptr)
2264:Drivers/lsm303agr/Src/lsm303agr_reg.c ****   * @param  val    Get the values of ble in reg CFG_REG_C_M.(ptr)
2265:Drivers/lsm303agr/Src/lsm303agr_reg.c ****   * @retval        Interface status (MANDATORY: return 0 -> no Error).
2266:Drivers/lsm303agr/Src/lsm303agr_reg.c ****   *
2267:Drivers/lsm303agr/Src/lsm303agr_reg.c ****   */
2268:Drivers/lsm303agr/Src/lsm303agr_reg.c **** int32_t lsm303agr_mag_data_format_get(stmdev_ctx_t *ctx,
2269:Drivers/lsm303agr/Src/lsm303agr_reg.c ****                                       lsm303agr_ble_m_t *val)
2270:Drivers/lsm303agr/Src/lsm303agr_reg.c **** {
 5881              		.loc 1 2270 1 is_stmt 1 view -0
 5882              		.cfi_startproc
 5883              		@ args = 0, pretend = 0, frame = 8
 5884              		@ frame_needed = 0, uses_anonymous_args = 0
 5885              		.loc 1 2270 1 is_stmt 0 view .LVU1502
 5886 0000 10B5     		push	{r4, lr}
 5887              	.LCFI235:
 5888              		.cfi_def_cfa_offset 8
 5889              		.cfi_offset 4, -8
 5890              		.cfi_offset 14, -4
 5891 0002 82B0     		sub	sp, sp, #8
 5892              	.LCFI236:
 5893              		.cfi_def_cfa_offset 16
 5894 0004 0C46     		mov	r4, r1
2271:Drivers/lsm303agr/Src/lsm303agr_reg.c ****   lsm303agr_cfg_reg_c_m_t cfg_reg_c_m;
 5895              		.loc 1 2271 3 is_stmt 1 view .LVU1503
2272:Drivers/lsm303agr/Src/lsm303agr_reg.c ****   int32_t ret;
 5896              		.loc 1 2272 3 view .LVU1504
2273:Drivers/lsm303agr/Src/lsm303agr_reg.c **** 
2274:Drivers/lsm303agr/Src/lsm303agr_reg.c ****   ret = lsm303agr_read_reg(ctx, LSM303AGR_CFG_REG_C_M,
 5897              		.loc 1 2274 3 view .LVU1505
 5898              		.loc 1 2274 9 is_stmt 0 view .LVU1506
 5899 0006 0123     		movs	r3, #1
 5900 0008 01AA     		add	r2, sp, #4
 5901 000a 6221     		movs	r1, #98
 5902              	.LVL402:
 5903              		.loc 1 2274 9 view .LVU1507
 5904 000c FFF7FEFF 		bl	lsm303agr_read_reg
 5905              	.LVL403:
2275:Drivers/lsm303agr/Src/lsm303agr_reg.c ****                            (uint8_t *)&cfg_reg_c_m, 1);
ARM GAS  C:\Users\SF\AppData\Local\Temp\ccFGOSN0.s 			page 150


2276:Drivers/lsm303agr/Src/lsm303agr_reg.c **** 
2277:Drivers/lsm303agr/Src/lsm303agr_reg.c ****   switch (cfg_reg_c_m.ble)
 5906              		.loc 1 2277 3 is_stmt 1 view .LVU1508
 5907              		.loc 1 2277 22 is_stmt 0 view .LVU1509
 5908 0010 9DF80430 		ldrb	r3, [sp, #4]	@ zero_extendqisi2
 5909 0014 C3F3C002 		ubfx	r2, r3, #3, #1
 5910              		.loc 1 2277 3 view .LVU1510
 5911 0018 13F0080F 		tst	r3, #8
 5912 001c 03D0     		beq	.L347
 5913 001e 32B9     		cbnz	r2, .L348
2278:Drivers/lsm303agr/Src/lsm303agr_reg.c ****   {
2279:Drivers/lsm303agr/Src/lsm303agr_reg.c ****     case LSM303AGR_MG_LSB_AT_LOW_ADD:
2280:Drivers/lsm303agr/Src/lsm303agr_reg.c ****       *val = LSM303AGR_MG_LSB_AT_LOW_ADD;
2281:Drivers/lsm303agr/Src/lsm303agr_reg.c ****       break;
2282:Drivers/lsm303agr/Src/lsm303agr_reg.c **** 
2283:Drivers/lsm303agr/Src/lsm303agr_reg.c ****     case LSM303AGR_MG_MSB_AT_LOW_ADD:
2284:Drivers/lsm303agr/Src/lsm303agr_reg.c ****       *val = LSM303AGR_MG_MSB_AT_LOW_ADD;
2285:Drivers/lsm303agr/Src/lsm303agr_reg.c ****       break;
2286:Drivers/lsm303agr/Src/lsm303agr_reg.c **** 
2287:Drivers/lsm303agr/Src/lsm303agr_reg.c ****     default:
2288:Drivers/lsm303agr/Src/lsm303agr_reg.c ****       *val = LSM303AGR_MG_LSB_AT_LOW_ADD;
 5914              		.loc 1 2288 7 is_stmt 1 view .LVU1511
 5915              		.loc 1 2288 12 is_stmt 0 view .LVU1512
 5916 0020 0023     		movs	r3, #0
 5917 0022 2370     		strb	r3, [r4]
2289:Drivers/lsm303agr/Src/lsm303agr_reg.c ****       break;
 5918              		.loc 1 2289 7 is_stmt 1 view .LVU1513
2290:Drivers/lsm303agr/Src/lsm303agr_reg.c ****   }
2291:Drivers/lsm303agr/Src/lsm303agr_reg.c **** 
2292:Drivers/lsm303agr/Src/lsm303agr_reg.c ****   return ret;
 5919              		.loc 1 2292 3 view .LVU1514
 5920              		.loc 1 2292 10 is_stmt 0 view .LVU1515
 5921 0024 01E0     		b	.L346
 5922              	.L347:
2280:Drivers/lsm303agr/Src/lsm303agr_reg.c ****       break;
 5923              		.loc 1 2280 7 is_stmt 1 view .LVU1516
2280:Drivers/lsm303agr/Src/lsm303agr_reg.c ****       break;
 5924              		.loc 1 2280 12 is_stmt 0 view .LVU1517
 5925 0026 0023     		movs	r3, #0
 5926 0028 2370     		strb	r3, [r4]
2281:Drivers/lsm303agr/Src/lsm303agr_reg.c **** 
 5927              		.loc 1 2281 7 is_stmt 1 view .LVU1518
 5928              	.L346:
2293:Drivers/lsm303agr/Src/lsm303agr_reg.c **** }
 5929              		.loc 1 2293 1 is_stmt 0 view .LVU1519
 5930 002a 02B0     		add	sp, sp, #8
 5931              	.LCFI237:
 5932              		.cfi_remember_state
 5933              		.cfi_def_cfa_offset 8
 5934              		@ sp needed
 5935 002c 10BD     		pop	{r4, pc}
 5936              	.LVL404:
 5937              	.L348:
 5938              	.LCFI238:
 5939              		.cfi_restore_state
2284:Drivers/lsm303agr/Src/lsm303agr_reg.c ****       break;
 5940              		.loc 1 2284 7 is_stmt 1 view .LVU1520
ARM GAS  C:\Users\SF\AppData\Local\Temp\ccFGOSN0.s 			page 151


2284:Drivers/lsm303agr/Src/lsm303agr_reg.c ****       break;
 5941              		.loc 1 2284 12 is_stmt 0 view .LVU1521
 5942 002e 0123     		movs	r3, #1
 5943 0030 2370     		strb	r3, [r4]
2285:Drivers/lsm303agr/Src/lsm303agr_reg.c **** 
 5944              		.loc 1 2285 7 is_stmt 1 view .LVU1522
 5945 0032 FAE7     		b	.L346
 5946              		.cfi_endproc
 5947              	.LFE218:
 5949              		.section	.text.lsm303agr_mag_status_get,"ax",%progbits
 5950              		.align	1
 5951              		.global	lsm303agr_mag_status_get
 5952              		.syntax unified
 5953              		.thumb
 5954              		.thumb_func
 5956              	lsm303agr_mag_status_get:
 5957              	.LVL405:
 5958              	.LFB219:
2294:Drivers/lsm303agr/Src/lsm303agr_reg.c **** 
2295:Drivers/lsm303agr/Src/lsm303agr_reg.c **** /**
2296:Drivers/lsm303agr/Src/lsm303agr_reg.c ****   * @brief  Info about device status.[get]
2297:Drivers/lsm303agr/Src/lsm303agr_reg.c ****   *
2298:Drivers/lsm303agr/Src/lsm303agr_reg.c ****   * @param  ctx    Read / write interface definitions.(ptr)
2299:Drivers/lsm303agr/Src/lsm303agr_reg.c ****   * @param  val    Get registers STATUS_REG_M.(ptr)
2300:Drivers/lsm303agr/Src/lsm303agr_reg.c ****   * @retval        Interface status (MANDATORY: return 0 -> no Error).
2301:Drivers/lsm303agr/Src/lsm303agr_reg.c ****   *
2302:Drivers/lsm303agr/Src/lsm303agr_reg.c ****   */
2303:Drivers/lsm303agr/Src/lsm303agr_reg.c **** int32_t lsm303agr_mag_status_get(stmdev_ctx_t *ctx,
2304:Drivers/lsm303agr/Src/lsm303agr_reg.c ****                                  lsm303agr_status_reg_m_t *val)
2305:Drivers/lsm303agr/Src/lsm303agr_reg.c **** {
 5959              		.loc 1 2305 1 view -0
 5960              		.cfi_startproc
 5961              		@ args = 0, pretend = 0, frame = 0
 5962              		@ frame_needed = 0, uses_anonymous_args = 0
 5963              		.loc 1 2305 1 is_stmt 0 view .LVU1524
 5964 0000 08B5     		push	{r3, lr}
 5965              	.LCFI239:
 5966              		.cfi_def_cfa_offset 8
 5967              		.cfi_offset 3, -8
 5968              		.cfi_offset 14, -4
 5969 0002 0A46     		mov	r2, r1
2306:Drivers/lsm303agr/Src/lsm303agr_reg.c ****   int32_t ret;
 5970              		.loc 1 2306 3 is_stmt 1 view .LVU1525
2307:Drivers/lsm303agr/Src/lsm303agr_reg.c **** 
2308:Drivers/lsm303agr/Src/lsm303agr_reg.c ****   ret = lsm303agr_read_reg(ctx, LSM303AGR_STATUS_REG_M, (uint8_t *) val, 1);
 5971              		.loc 1 2308 3 view .LVU1526
 5972              		.loc 1 2308 9 is_stmt 0 view .LVU1527
 5973 0004 0123     		movs	r3, #1
 5974 0006 6721     		movs	r1, #103
 5975              	.LVL406:
 5976              		.loc 1 2308 9 view .LVU1528
 5977 0008 FFF7FEFF 		bl	lsm303agr_read_reg
 5978              	.LVL407:
2309:Drivers/lsm303agr/Src/lsm303agr_reg.c **** 
2310:Drivers/lsm303agr/Src/lsm303agr_reg.c ****   return ret;
 5979              		.loc 1 2310 3 is_stmt 1 view .LVU1529
2311:Drivers/lsm303agr/Src/lsm303agr_reg.c **** }
ARM GAS  C:\Users\SF\AppData\Local\Temp\ccFGOSN0.s 			page 152


 5980              		.loc 1 2311 1 is_stmt 0 view .LVU1530
 5981 000c 08BD     		pop	{r3, pc}
 5982              		.cfi_endproc
 5983              	.LFE219:
 5985              		.section	.text.lsm303agr_read_mag,"ax",%progbits
 5986              		.align	1
 5987              		.global	lsm303agr_read_mag
 5988              		.syntax unified
 5989              		.thumb
 5990              		.thumb_func
 5992              	lsm303agr_read_mag:
 5993              	.LVL408:
 5994              	.LFB135:
 231:Drivers/lsm303agr/Src/lsm303agr_reg.c ****  	lsm303agr_reg_t reg;
 5995              		.loc 1 231 70 is_stmt 1 view -0
 5996              		.cfi_startproc
 5997              		@ args = 0, pretend = 0, frame = 8
 5998              		@ frame_needed = 0, uses_anonymous_args = 0
 231:Drivers/lsm303agr/Src/lsm303agr_reg.c ****  	lsm303agr_reg_t reg;
 5999              		.loc 1 231 70 is_stmt 0 view .LVU1532
 6000 0000 30B5     		push	{r4, r5, lr}
 6001              	.LCFI240:
 6002              		.cfi_def_cfa_offset 12
 6003              		.cfi_offset 4, -12
 6004              		.cfi_offset 5, -8
 6005              		.cfi_offset 14, -4
 6006 0002 83B0     		sub	sp, sp, #12
 6007              	.LCFI241:
 6008              		.cfi_def_cfa_offset 24
 6009 0004 0546     		mov	r5, r0
 6010 0006 0C46     		mov	r4, r1
 232:Drivers/lsm303agr/Src/lsm303agr_reg.c **** 
 6011              		.loc 1 232 3 is_stmt 1 view .LVU1533
 234:Drivers/lsm303agr/Src/lsm303agr_reg.c **** 
 6012              		.loc 1 234 5 view .LVU1534
 6013 0008 01A9     		add	r1, sp, #4
 6014              	.LVL409:
 234:Drivers/lsm303agr/Src/lsm303agr_reg.c **** 
 6015              		.loc 1 234 5 is_stmt 0 view .LVU1535
 6016 000a FFF7FEFF 		bl	lsm303agr_mag_status_get
 6017              	.LVL410:
 236:Drivers/lsm303agr/Src/lsm303agr_reg.c ****       /* Read magnetic field data */
 6018              		.loc 1 236 5 is_stmt 1 view .LVU1536
 236:Drivers/lsm303agr/Src/lsm303agr_reg.c ****       /* Read magnetic field data */
 6019              		.loc 1 236 9 is_stmt 0 view .LVU1537
 6020 000e 9DF80430 		ldrb	r3, [sp, #4]	@ zero_extendqisi2
 236:Drivers/lsm303agr/Src/lsm303agr_reg.c ****       /* Read magnetic field data */
 6021              		.loc 1 236 8 view .LVU1538
 6022 0012 13F0080F 		tst	r3, #8
 6023 0016 01D1     		bne	.L358
 6024              	.L355:
 245:Drivers/lsm303agr/Src/lsm303agr_reg.c **** 
 6025              		.loc 1 245 1 view .LVU1539
 6026 0018 03B0     		add	sp, sp, #12
 6027              	.LCFI242:
 6028              		.cfi_remember_state
 6029              		.cfi_def_cfa_offset 12
ARM GAS  C:\Users\SF\AppData\Local\Temp\ccFGOSN0.s 			page 153


 6030              		@ sp needed
 6031 001a 30BD     		pop	{r4, r5, pc}
 6032              	.LVL411:
 6033              	.L358:
 6034              	.LCFI243:
 6035              		.cfi_restore_state
 6036              	.LBB6:
 238:Drivers/lsm303agr/Src/lsm303agr_reg.c ****       lsm303agr_magnetic_raw_get(ctx_mg, raw_magnetic);
 6037              		.loc 1 238 7 is_stmt 1 view .LVU1540
 6038 001c 0023     		movs	r3, #0
 6039 001e 2360     		str	r3, [r4]	@ unaligned
 6040 0020 A380     		strh	r3, [r4, #4]	@ unaligned
 239:Drivers/lsm303agr/Src/lsm303agr_reg.c ****       raw_magnetic[0] = (raw_magnetic[0] * soft_magnetic_x[0] + raw_magnetic[1]*soft_magnetic_x[1] 
 6041              		.loc 1 239 7 view .LVU1541
 6042 0022 2146     		mov	r1, r4
 6043 0024 2846     		mov	r0, r5
 6044 0026 FFF7FEFF 		bl	lsm303agr_magnetic_raw_get
 6045              	.LVL412:
 240:Drivers/lsm303agr/Src/lsm303agr_reg.c ****       raw_magnetic[1] = (raw_magnetic[0] * soft_magnetic_y[0] + raw_magnetic[1]*soft_magnetic_y[1] 
 6046              		.loc 1 240 7 view .LVU1542
 240:Drivers/lsm303agr/Src/lsm303agr_reg.c ****       raw_magnetic[1] = (raw_magnetic[0] * soft_magnetic_y[0] + raw_magnetic[1]*soft_magnetic_y[1] 
 6047              		.loc 1 240 38 is_stmt 0 view .LVU1543
 6048 002a B4F90030 		ldrsh	r3, [r4]
 6049 002e 07EE903A 		vmov	s15, r3	@ int
 240:Drivers/lsm303agr/Src/lsm303agr_reg.c ****       raw_magnetic[1] = (raw_magnetic[0] * soft_magnetic_y[0] + raw_magnetic[1]*soft_magnetic_y[1] 
 6050              		.loc 1 240 59 view .LVU1544
 6051 0032 2D4B     		ldr	r3, .L359
 6052 0034 93ED007A 		vldr.32	s14, [r3]
 240:Drivers/lsm303agr/Src/lsm303agr_reg.c ****       raw_magnetic[1] = (raw_magnetic[0] * soft_magnetic_y[0] + raw_magnetic[1]*soft_magnetic_y[1] 
 6053              		.loc 1 240 42 view .LVU1545
 6054 0038 F8EEE77A 		vcvt.f32.s32	s15, s15
 6055 003c 67EE877A 		vmul.f32	s15, s15, s14
 240:Drivers/lsm303agr/Src/lsm303agr_reg.c ****       raw_magnetic[1] = (raw_magnetic[0] * soft_magnetic_y[0] + raw_magnetic[1]*soft_magnetic_y[1] 
 6056              		.loc 1 240 77 view .LVU1546
 6057 0040 B4F90220 		ldrsh	r2, [r4, #2]
 6058 0044 06EE102A 		vmov	s12, r2	@ int
 240:Drivers/lsm303agr/Src/lsm303agr_reg.c ****       raw_magnetic[1] = (raw_magnetic[0] * soft_magnetic_y[0] + raw_magnetic[1]*soft_magnetic_y[1] 
 6059              		.loc 1 240 80 view .LVU1547
 6060 0048 B8EEC66A 		vcvt.f32.s32	s12, s12
 240:Drivers/lsm303agr/Src/lsm303agr_reg.c ****       raw_magnetic[1] = (raw_magnetic[0] * soft_magnetic_y[0] + raw_magnetic[1]*soft_magnetic_y[1] 
 6061              		.loc 1 240 96 view .LVU1548
 6062 004c 93ED017A 		vldr.32	s14, [r3, #4]
 240:Drivers/lsm303agr/Src/lsm303agr_reg.c ****       raw_magnetic[1] = (raw_magnetic[0] * soft_magnetic_y[0] + raw_magnetic[1]*soft_magnetic_y[1] 
 6063              		.loc 1 240 80 view .LVU1549
 6064 0050 26EE077A 		vmul.f32	s14, s12, s14
 240:Drivers/lsm303agr/Src/lsm303agr_reg.c ****       raw_magnetic[1] = (raw_magnetic[0] * soft_magnetic_y[0] + raw_magnetic[1]*soft_magnetic_y[1] 
 6065              		.loc 1 240 63 view .LVU1550
 6066 0054 77EE877A 		vadd.f32	s15, s15, s14
 240:Drivers/lsm303agr/Src/lsm303agr_reg.c ****       raw_magnetic[1] = (raw_magnetic[0] * soft_magnetic_y[0] + raw_magnetic[1]*soft_magnetic_y[1] 
 6067              		.loc 1 240 114 view .LVU1551
 6068 0058 B4F90420 		ldrsh	r2, [r4, #4]
 6069 005c 06EE902A 		vmov	s13, r2	@ int
 240:Drivers/lsm303agr/Src/lsm303agr_reg.c ****       raw_magnetic[1] = (raw_magnetic[0] * soft_magnetic_y[0] + raw_magnetic[1]*soft_magnetic_y[1] 
 6070              		.loc 1 240 117 view .LVU1552
 6071 0060 F8EEE66A 		vcvt.f32.s32	s13, s13
 240:Drivers/lsm303agr/Src/lsm303agr_reg.c ****       raw_magnetic[1] = (raw_magnetic[0] * soft_magnetic_y[0] + raw_magnetic[1]*soft_magnetic_y[1] 
 6072              		.loc 1 240 133 view .LVU1553
ARM GAS  C:\Users\SF\AppData\Local\Temp\ccFGOSN0.s 			page 154


 6073 0064 93ED027A 		vldr.32	s14, [r3, #8]
 240:Drivers/lsm303agr/Src/lsm303agr_reg.c ****       raw_magnetic[1] = (raw_magnetic[0] * soft_magnetic_y[0] + raw_magnetic[1]*soft_magnetic_y[1] 
 6074              		.loc 1 240 117 view .LVU1554
 6075 0068 26EE877A 		vmul.f32	s14, s13, s14
 240:Drivers/lsm303agr/Src/lsm303agr_reg.c ****       raw_magnetic[1] = (raw_magnetic[0] * soft_magnetic_y[0] + raw_magnetic[1]*soft_magnetic_y[1] 
 6076              		.loc 1 240 100 view .LVU1555
 6077 006c 77EE877A 		vadd.f32	s15, s15, s14
 240:Drivers/lsm303agr/Src/lsm303agr_reg.c ****       raw_magnetic[1] = (raw_magnetic[0] * soft_magnetic_y[0] + raw_magnetic[1]*soft_magnetic_y[1] 
 6078              		.loc 1 240 23 view .LVU1556
 6079 0070 FDEEE77A 		vcvt.s32.f32	s15, s15
 6080 0074 17EE903A 		vmov	r3, s15	@ int
 6081 0078 1BB2     		sxth	r3, r3
 6082 007a 2380     		strh	r3, [r4]	@ movhi
 241:Drivers/lsm303agr/Src/lsm303agr_reg.c ****       raw_magnetic[2] = (raw_magnetic[0] * soft_magnetic_z[0] + raw_magnetic[1]*soft_magnetic_z[1] 
 6083              		.loc 1 241 7 is_stmt 1 view .LVU1557
 241:Drivers/lsm303agr/Src/lsm303agr_reg.c ****       raw_magnetic[2] = (raw_magnetic[0] * soft_magnetic_z[0] + raw_magnetic[1]*soft_magnetic_z[1] 
 6084              		.loc 1 241 42 is_stmt 0 view .LVU1558
 6085 007c 07EE903A 		vmov	s15, r3	@ int
 6086 0080 F8EEE77A 		vcvt.f32.s32	s15, s15
 241:Drivers/lsm303agr/Src/lsm303agr_reg.c ****       raw_magnetic[2] = (raw_magnetic[0] * soft_magnetic_z[0] + raw_magnetic[1]*soft_magnetic_z[1] 
 6087              		.loc 1 241 59 view .LVU1559
 6088 0084 194B     		ldr	r3, .L359+4
 6089 0086 93ED007A 		vldr.32	s14, [r3]
 241:Drivers/lsm303agr/Src/lsm303agr_reg.c ****       raw_magnetic[2] = (raw_magnetic[0] * soft_magnetic_z[0] + raw_magnetic[1]*soft_magnetic_z[1] 
 6090              		.loc 1 241 42 view .LVU1560
 6091 008a 27EE877A 		vmul.f32	s14, s15, s14
 241:Drivers/lsm303agr/Src/lsm303agr_reg.c ****       raw_magnetic[2] = (raw_magnetic[0] * soft_magnetic_z[0] + raw_magnetic[1]*soft_magnetic_z[1] 
 6092              		.loc 1 241 96 view .LVU1561
 6093 008e D3ED015A 		vldr.32	s11, [r3, #4]
 241:Drivers/lsm303agr/Src/lsm303agr_reg.c ****       raw_magnetic[2] = (raw_magnetic[0] * soft_magnetic_z[0] + raw_magnetic[1]*soft_magnetic_z[1] 
 6094              		.loc 1 241 80 view .LVU1562
 6095 0092 26EE256A 		vmul.f32	s12, s12, s11
 241:Drivers/lsm303agr/Src/lsm303agr_reg.c ****       raw_magnetic[2] = (raw_magnetic[0] * soft_magnetic_z[0] + raw_magnetic[1]*soft_magnetic_z[1] 
 6096              		.loc 1 241 63 view .LVU1563
 6097 0096 37EE067A 		vadd.f32	s14, s14, s12
 241:Drivers/lsm303agr/Src/lsm303agr_reg.c ****       raw_magnetic[2] = (raw_magnetic[0] * soft_magnetic_z[0] + raw_magnetic[1]*soft_magnetic_z[1] 
 6098              		.loc 1 241 133 view .LVU1564
 6099 009a 93ED026A 		vldr.32	s12, [r3, #8]
 241:Drivers/lsm303agr/Src/lsm303agr_reg.c ****       raw_magnetic[2] = (raw_magnetic[0] * soft_magnetic_z[0] + raw_magnetic[1]*soft_magnetic_z[1] 
 6100              		.loc 1 241 117 view .LVU1565
 6101 009e 26EE866A 		vmul.f32	s12, s13, s12
 241:Drivers/lsm303agr/Src/lsm303agr_reg.c ****       raw_magnetic[2] = (raw_magnetic[0] * soft_magnetic_z[0] + raw_magnetic[1]*soft_magnetic_z[1] 
 6102              		.loc 1 241 100 view .LVU1566
 6103 00a2 37EE067A 		vadd.f32	s14, s14, s12
 241:Drivers/lsm303agr/Src/lsm303agr_reg.c ****       raw_magnetic[2] = (raw_magnetic[0] * soft_magnetic_z[0] + raw_magnetic[1]*soft_magnetic_z[1] 
 6104              		.loc 1 241 23 view .LVU1567
 6105 00a6 BDEEC77A 		vcvt.s32.f32	s14, s14
 6106 00aa 17EE103A 		vmov	r3, s14	@ int
 6107 00ae 1BB2     		sxth	r3, r3
 6108 00b0 6380     		strh	r3, [r4, #2]	@ movhi
 242:Drivers/lsm303agr/Src/lsm303agr_reg.c ****     }
 6109              		.loc 1 242 7 is_stmt 1 view .LVU1568
 242:Drivers/lsm303agr/Src/lsm303agr_reg.c ****     }
 6110              		.loc 1 242 59 is_stmt 0 view .LVU1569
 6111 00b2 0F4A     		ldr	r2, .L359+8
 6112 00b4 92ED007A 		vldr.32	s14, [r2]
 242:Drivers/lsm303agr/Src/lsm303agr_reg.c ****     }
ARM GAS  C:\Users\SF\AppData\Local\Temp\ccFGOSN0.s 			page 155


 6113              		.loc 1 242 42 view .LVU1570
 6114 00b8 67EE877A 		vmul.f32	s15, s15, s14
 242:Drivers/lsm303agr/Src/lsm303agr_reg.c ****     }
 6115              		.loc 1 242 96 view .LVU1571
 6116 00bc 92ED016A 		vldr.32	s12, [r2, #4]
 242:Drivers/lsm303agr/Src/lsm303agr_reg.c ****     }
 6117              		.loc 1 242 80 view .LVU1572
 6118 00c0 07EE103A 		vmov	s14, r3	@ int
 6119 00c4 B8EEC77A 		vcvt.f32.s32	s14, s14
 6120 00c8 27EE067A 		vmul.f32	s14, s14, s12
 242:Drivers/lsm303agr/Src/lsm303agr_reg.c ****     }
 6121              		.loc 1 242 63 view .LVU1573
 6122 00cc 77EE877A 		vadd.f32	s15, s15, s14
 242:Drivers/lsm303agr/Src/lsm303agr_reg.c ****     }
 6123              		.loc 1 242 133 view .LVU1574
 6124 00d0 92ED027A 		vldr.32	s14, [r2, #8]
 242:Drivers/lsm303agr/Src/lsm303agr_reg.c ****     }
 6125              		.loc 1 242 117 view .LVU1575
 6126 00d4 66EE876A 		vmul.f32	s13, s13, s14
 242:Drivers/lsm303agr/Src/lsm303agr_reg.c ****     }
 6127              		.loc 1 242 100 view .LVU1576
 6128 00d8 77EEA67A 		vadd.f32	s15, s15, s13
 242:Drivers/lsm303agr/Src/lsm303agr_reg.c ****     }
 6129              		.loc 1 242 23 view .LVU1577
 6130 00dc FDEEE77A 		vcvt.s32.f32	s15, s15
 6131 00e0 17EE903A 		vmov	r3, s15	@ int
 6132 00e4 A380     		strh	r3, [r4, #4]	@ movhi
 6133              	.LBE6:
 245:Drivers/lsm303agr/Src/lsm303agr_reg.c **** 
 6134              		.loc 1 245 1 view .LVU1578
 6135 00e6 97E7     		b	.L355
 6136              	.L360:
 6137              		.align	2
 6138              	.L359:
 6139 00e8 00000000 		.word	.LANCHOR2
 6140 00ec 00000000 		.word	.LANCHOR3
 6141 00f0 00000000 		.word	.LANCHOR4
 6142              		.cfi_endproc
 6143              	.LFE135:
 6145              		.section	.text.lsm303agr_xl_int1_gen_conf_set,"ax",%progbits
 6146              		.align	1
 6147              		.global	lsm303agr_xl_int1_gen_conf_set
 6148              		.syntax unified
 6149              		.thumb
 6150              		.thumb_func
 6152              	lsm303agr_xl_int1_gen_conf_set:
 6153              	.LVL413:
 6154              	.LFB220:
2312:Drivers/lsm303agr/Src/lsm303agr_reg.c **** 
2313:Drivers/lsm303agr/Src/lsm303agr_reg.c **** /**
2314:Drivers/lsm303agr/Src/lsm303agr_reg.c ****   * @}
2315:Drivers/lsm303agr/Src/lsm303agr_reg.c ****   *
2316:Drivers/lsm303agr/Src/lsm303agr_reg.c ****   */
2317:Drivers/lsm303agr/Src/lsm303agr_reg.c **** 
2318:Drivers/lsm303agr/Src/lsm303agr_reg.c **** /**
2319:Drivers/lsm303agr/Src/lsm303agr_reg.c ****   * @addtogroup   interrupts_generator_1_for_xl
2320:Drivers/lsm303agr/Src/lsm303agr_reg.c ****   * @brief   This section group all the functions that manage the first
ARM GAS  C:\Users\SF\AppData\Local\Temp\ccFGOSN0.s 			page 156


2321:Drivers/lsm303agr/Src/lsm303agr_reg.c ****   *          interrupts generator of accelerometer
2322:Drivers/lsm303agr/Src/lsm303agr_reg.c ****   * @{
2323:Drivers/lsm303agr/Src/lsm303agr_reg.c ****   *
2324:Drivers/lsm303agr/Src/lsm303agr_reg.c ****   */
2325:Drivers/lsm303agr/Src/lsm303agr_reg.c **** 
2326:Drivers/lsm303agr/Src/lsm303agr_reg.c **** /**
2327:Drivers/lsm303agr/Src/lsm303agr_reg.c ****   * @brief  Interrupt generator 1 configuration register.[set]
2328:Drivers/lsm303agr/Src/lsm303agr_reg.c ****   *
2329:Drivers/lsm303agr/Src/lsm303agr_reg.c ****   * @param  ctx    Read / write interface definitions.(ptr)
2330:Drivers/lsm303agr/Src/lsm303agr_reg.c ****   * @param  val    Change register INT1_CFG_A.(ptr)
2331:Drivers/lsm303agr/Src/lsm303agr_reg.c ****   * @retval        Interface status (MANDATORY: return 0 -> no Error).
2332:Drivers/lsm303agr/Src/lsm303agr_reg.c ****   *
2333:Drivers/lsm303agr/Src/lsm303agr_reg.c ****   */
2334:Drivers/lsm303agr/Src/lsm303agr_reg.c **** int32_t lsm303agr_xl_int1_gen_conf_set(stmdev_ctx_t *ctx,
2335:Drivers/lsm303agr/Src/lsm303agr_reg.c ****                                        lsm303agr_int1_cfg_a_t *val)
2336:Drivers/lsm303agr/Src/lsm303agr_reg.c **** {
 6155              		.loc 1 2336 1 is_stmt 1 view -0
 6156              		.cfi_startproc
 6157              		@ args = 0, pretend = 0, frame = 0
 6158              		@ frame_needed = 0, uses_anonymous_args = 0
 6159              		.loc 1 2336 1 is_stmt 0 view .LVU1580
 6160 0000 08B5     		push	{r3, lr}
 6161              	.LCFI244:
 6162              		.cfi_def_cfa_offset 8
 6163              		.cfi_offset 3, -8
 6164              		.cfi_offset 14, -4
 6165 0002 0A46     		mov	r2, r1
2337:Drivers/lsm303agr/Src/lsm303agr_reg.c ****   int32_t ret;
 6166              		.loc 1 2337 3 is_stmt 1 view .LVU1581
2338:Drivers/lsm303agr/Src/lsm303agr_reg.c **** 
2339:Drivers/lsm303agr/Src/lsm303agr_reg.c ****   ret = lsm303agr_write_reg(ctx, LSM303AGR_INT1_CFG_A, (uint8_t *) val, 1);
 6167              		.loc 1 2339 3 view .LVU1582
 6168              		.loc 1 2339 9 is_stmt 0 view .LVU1583
 6169 0004 0123     		movs	r3, #1
 6170 0006 3021     		movs	r1, #48
 6171              	.LVL414:
 6172              		.loc 1 2339 9 view .LVU1584
 6173 0008 FFF7FEFF 		bl	lsm303agr_write_reg
 6174              	.LVL415:
2340:Drivers/lsm303agr/Src/lsm303agr_reg.c **** 
2341:Drivers/lsm303agr/Src/lsm303agr_reg.c ****   return ret;
 6175              		.loc 1 2341 3 is_stmt 1 view .LVU1585
2342:Drivers/lsm303agr/Src/lsm303agr_reg.c **** }
 6176              		.loc 1 2342 1 is_stmt 0 view .LVU1586
 6177 000c 08BD     		pop	{r3, pc}
 6178              		.cfi_endproc
 6179              	.LFE220:
 6181              		.section	.text.lsm303agr_xl_int1_gen_conf_get,"ax",%progbits
 6182              		.align	1
 6183              		.global	lsm303agr_xl_int1_gen_conf_get
 6184              		.syntax unified
 6185              		.thumb
 6186              		.thumb_func
 6188              	lsm303agr_xl_int1_gen_conf_get:
 6189              	.LVL416:
 6190              	.LFB221:
2343:Drivers/lsm303agr/Src/lsm303agr_reg.c **** 
ARM GAS  C:\Users\SF\AppData\Local\Temp\ccFGOSN0.s 			page 157


2344:Drivers/lsm303agr/Src/lsm303agr_reg.c **** /**
2345:Drivers/lsm303agr/Src/lsm303agr_reg.c ****   * @brief  Interrupt generator 1 configuration register.[get]
2346:Drivers/lsm303agr/Src/lsm303agr_reg.c ****   *
2347:Drivers/lsm303agr/Src/lsm303agr_reg.c ****   * @param  ctx    Read / write interface definitions.(ptr)
2348:Drivers/lsm303agr/Src/lsm303agr_reg.c ****   * @param  val    Get register INT1_CFG_A.(ptr)
2349:Drivers/lsm303agr/Src/lsm303agr_reg.c ****   * @retval        Interface status (MANDATORY: return 0 -> no Error).
2350:Drivers/lsm303agr/Src/lsm303agr_reg.c ****   *
2351:Drivers/lsm303agr/Src/lsm303agr_reg.c ****   */
2352:Drivers/lsm303agr/Src/lsm303agr_reg.c **** int32_t lsm303agr_xl_int1_gen_conf_get(stmdev_ctx_t *ctx,
2353:Drivers/lsm303agr/Src/lsm303agr_reg.c ****                                        lsm303agr_int1_cfg_a_t *val)
2354:Drivers/lsm303agr/Src/lsm303agr_reg.c **** {
 6191              		.loc 1 2354 1 is_stmt 1 view -0
 6192              		.cfi_startproc
 6193              		@ args = 0, pretend = 0, frame = 0
 6194              		@ frame_needed = 0, uses_anonymous_args = 0
 6195              		.loc 1 2354 1 is_stmt 0 view .LVU1588
 6196 0000 08B5     		push	{r3, lr}
 6197              	.LCFI245:
 6198              		.cfi_def_cfa_offset 8
 6199              		.cfi_offset 3, -8
 6200              		.cfi_offset 14, -4
 6201 0002 0A46     		mov	r2, r1
2355:Drivers/lsm303agr/Src/lsm303agr_reg.c ****   int32_t ret;
 6202              		.loc 1 2355 3 is_stmt 1 view .LVU1589
2356:Drivers/lsm303agr/Src/lsm303agr_reg.c **** 
2357:Drivers/lsm303agr/Src/lsm303agr_reg.c ****   ret = lsm303agr_read_reg(ctx, LSM303AGR_INT1_CFG_A, (uint8_t *) val, 1);
 6203              		.loc 1 2357 3 view .LVU1590
 6204              		.loc 1 2357 9 is_stmt 0 view .LVU1591
 6205 0004 0123     		movs	r3, #1
 6206 0006 3021     		movs	r1, #48
 6207              	.LVL417:
 6208              		.loc 1 2357 9 view .LVU1592
 6209 0008 FFF7FEFF 		bl	lsm303agr_read_reg
 6210              	.LVL418:
2358:Drivers/lsm303agr/Src/lsm303agr_reg.c **** 
2359:Drivers/lsm303agr/Src/lsm303agr_reg.c ****   return ret;
 6211              		.loc 1 2359 3 is_stmt 1 view .LVU1593
2360:Drivers/lsm303agr/Src/lsm303agr_reg.c **** }
 6212              		.loc 1 2360 1 is_stmt 0 view .LVU1594
 6213 000c 08BD     		pop	{r3, pc}
 6214              		.cfi_endproc
 6215              	.LFE221:
 6217              		.section	.text.lsm303agr_xl_int1_gen_source_get,"ax",%progbits
 6218              		.align	1
 6219              		.global	lsm303agr_xl_int1_gen_source_get
 6220              		.syntax unified
 6221              		.thumb
 6222              		.thumb_func
 6224              	lsm303agr_xl_int1_gen_source_get:
 6225              	.LVL419:
 6226              	.LFB222:
2361:Drivers/lsm303agr/Src/lsm303agr_reg.c **** 
2362:Drivers/lsm303agr/Src/lsm303agr_reg.c **** /**
2363:Drivers/lsm303agr/Src/lsm303agr_reg.c ****   * @brief  Interrupt generator 1 source register.[get]
2364:Drivers/lsm303agr/Src/lsm303agr_reg.c ****   *
2365:Drivers/lsm303agr/Src/lsm303agr_reg.c ****   * @param  ctx    Read / write interface definitions.(ptr)
2366:Drivers/lsm303agr/Src/lsm303agr_reg.c ****   * @param  val    Get registers INT1_SRC_A.(ptr)
ARM GAS  C:\Users\SF\AppData\Local\Temp\ccFGOSN0.s 			page 158


2367:Drivers/lsm303agr/Src/lsm303agr_reg.c ****   * @retval        Interface status (MANDATORY: return 0 -> no Error).
2368:Drivers/lsm303agr/Src/lsm303agr_reg.c ****   *
2369:Drivers/lsm303agr/Src/lsm303agr_reg.c ****   */
2370:Drivers/lsm303agr/Src/lsm303agr_reg.c **** int32_t lsm303agr_xl_int1_gen_source_get(stmdev_ctx_t *ctx,
2371:Drivers/lsm303agr/Src/lsm303agr_reg.c ****                                          lsm303agr_int1_src_a_t *val)
2372:Drivers/lsm303agr/Src/lsm303agr_reg.c **** {
 6227              		.loc 1 2372 1 is_stmt 1 view -0
 6228              		.cfi_startproc
 6229              		@ args = 0, pretend = 0, frame = 0
 6230              		@ frame_needed = 0, uses_anonymous_args = 0
 6231              		.loc 1 2372 1 is_stmt 0 view .LVU1596
 6232 0000 08B5     		push	{r3, lr}
 6233              	.LCFI246:
 6234              		.cfi_def_cfa_offset 8
 6235              		.cfi_offset 3, -8
 6236              		.cfi_offset 14, -4
 6237 0002 0A46     		mov	r2, r1
2373:Drivers/lsm303agr/Src/lsm303agr_reg.c ****   int32_t ret;
 6238              		.loc 1 2373 3 is_stmt 1 view .LVU1597
2374:Drivers/lsm303agr/Src/lsm303agr_reg.c **** 
2375:Drivers/lsm303agr/Src/lsm303agr_reg.c ****   ret = lsm303agr_read_reg(ctx, LSM303AGR_INT1_SRC_A, (uint8_t *) val, 1);
 6239              		.loc 1 2375 3 view .LVU1598
 6240              		.loc 1 2375 9 is_stmt 0 view .LVU1599
 6241 0004 0123     		movs	r3, #1
 6242 0006 3121     		movs	r1, #49
 6243              	.LVL420:
 6244              		.loc 1 2375 9 view .LVU1600
 6245 0008 FFF7FEFF 		bl	lsm303agr_read_reg
 6246              	.LVL421:
2376:Drivers/lsm303agr/Src/lsm303agr_reg.c **** 
2377:Drivers/lsm303agr/Src/lsm303agr_reg.c ****   return ret;
 6247              		.loc 1 2377 3 is_stmt 1 view .LVU1601
2378:Drivers/lsm303agr/Src/lsm303agr_reg.c **** }
 6248              		.loc 1 2378 1 is_stmt 0 view .LVU1602
 6249 000c 08BD     		pop	{r3, pc}
 6250              		.cfi_endproc
 6251              	.LFE222:
 6253              		.section	.text.lsm303agr_xl_int1_gen_threshold_set,"ax",%progbits
 6254              		.align	1
 6255              		.global	lsm303agr_xl_int1_gen_threshold_set
 6256              		.syntax unified
 6257              		.thumb
 6258              		.thumb_func
 6260              	lsm303agr_xl_int1_gen_threshold_set:
 6261              	.LVL422:
 6262              	.LFB223:
2379:Drivers/lsm303agr/Src/lsm303agr_reg.c **** 
2380:Drivers/lsm303agr/Src/lsm303agr_reg.c **** /**
2381:Drivers/lsm303agr/Src/lsm303agr_reg.c ****   * @brief  User-defined threshold value for xl
2382:Drivers/lsm303agr/Src/lsm303agr_reg.c ****   *         interrupt event on generator 1.[set]
2383:Drivers/lsm303agr/Src/lsm303agr_reg.c ****   *         LSb = 16mg@2g / 32mg@4g / 62mg@8g / 186mg@16g
2384:Drivers/lsm303agr/Src/lsm303agr_reg.c ****   *
2385:Drivers/lsm303agr/Src/lsm303agr_reg.c ****   * @param  ctx    Read / write interface definitions.(ptr)
2386:Drivers/lsm303agr/Src/lsm303agr_reg.c ****   * @param  val    Change the values of ths in reg INT1_THS_A
2387:Drivers/lsm303agr/Src/lsm303agr_reg.c ****   * @retval        Interface status (MANDATORY: return 0 -> no Error).
2388:Drivers/lsm303agr/Src/lsm303agr_reg.c ****   *
2389:Drivers/lsm303agr/Src/lsm303agr_reg.c ****   */
ARM GAS  C:\Users\SF\AppData\Local\Temp\ccFGOSN0.s 			page 159


2390:Drivers/lsm303agr/Src/lsm303agr_reg.c **** int32_t lsm303agr_xl_int1_gen_threshold_set(stmdev_ctx_t *ctx,
2391:Drivers/lsm303agr/Src/lsm303agr_reg.c ****                                             uint8_t val)
2392:Drivers/lsm303agr/Src/lsm303agr_reg.c **** {
 6263              		.loc 1 2392 1 is_stmt 1 view -0
 6264              		.cfi_startproc
 6265              		@ args = 0, pretend = 0, frame = 8
 6266              		@ frame_needed = 0, uses_anonymous_args = 0
 6267              		.loc 1 2392 1 is_stmt 0 view .LVU1604
 6268 0000 30B5     		push	{r4, r5, lr}
 6269              	.LCFI247:
 6270              		.cfi_def_cfa_offset 12
 6271              		.cfi_offset 4, -12
 6272              		.cfi_offset 5, -8
 6273              		.cfi_offset 14, -4
 6274 0002 83B0     		sub	sp, sp, #12
 6275              	.LCFI248:
 6276              		.cfi_def_cfa_offset 24
 6277 0004 0446     		mov	r4, r0
 6278 0006 0D46     		mov	r5, r1
2393:Drivers/lsm303agr/Src/lsm303agr_reg.c ****   lsm303agr_int1_ths_a_t int1_ths_a;
 6279              		.loc 1 2393 3 is_stmt 1 view .LVU1605
2394:Drivers/lsm303agr/Src/lsm303agr_reg.c ****   int32_t ret;
 6280              		.loc 1 2394 3 view .LVU1606
2395:Drivers/lsm303agr/Src/lsm303agr_reg.c **** 
2396:Drivers/lsm303agr/Src/lsm303agr_reg.c ****   ret = lsm303agr_read_reg(ctx, LSM303AGR_INT1_THS_A,
 6281              		.loc 1 2396 3 view .LVU1607
 6282              		.loc 1 2396 9 is_stmt 0 view .LVU1608
 6283 0008 0123     		movs	r3, #1
 6284 000a 01AA     		add	r2, sp, #4
 6285 000c 3221     		movs	r1, #50
 6286              	.LVL423:
 6287              		.loc 1 2396 9 view .LVU1609
 6288 000e FFF7FEFF 		bl	lsm303agr_read_reg
 6289              	.LVL424:
2397:Drivers/lsm303agr/Src/lsm303agr_reg.c ****                            (uint8_t *)&int1_ths_a, 1);
2398:Drivers/lsm303agr/Src/lsm303agr_reg.c **** 
2399:Drivers/lsm303agr/Src/lsm303agr_reg.c ****   if (ret == 0)
 6290              		.loc 1 2399 3 is_stmt 1 view .LVU1610
 6291              		.loc 1 2399 6 is_stmt 0 view .LVU1611
 6292 0012 08B1     		cbz	r0, .L370
 6293              	.LVL425:
 6294              	.L367:
2400:Drivers/lsm303agr/Src/lsm303agr_reg.c ****   {
2401:Drivers/lsm303agr/Src/lsm303agr_reg.c ****     int1_ths_a.ths = (uint8_t)val;
2402:Drivers/lsm303agr/Src/lsm303agr_reg.c ****     ret = lsm303agr_write_reg(ctx, LSM303AGR_INT1_THS_A,
2403:Drivers/lsm303agr/Src/lsm303agr_reg.c ****                               (uint8_t *)&int1_ths_a, 1);
2404:Drivers/lsm303agr/Src/lsm303agr_reg.c ****   }
2405:Drivers/lsm303agr/Src/lsm303agr_reg.c **** 
2406:Drivers/lsm303agr/Src/lsm303agr_reg.c ****   return ret;
2407:Drivers/lsm303agr/Src/lsm303agr_reg.c **** }
 6295              		.loc 1 2407 1 view .LVU1612
 6296 0014 03B0     		add	sp, sp, #12
 6297              	.LCFI249:
 6298              		.cfi_remember_state
 6299              		.cfi_def_cfa_offset 12
 6300              		@ sp needed
 6301 0016 30BD     		pop	{r4, r5, pc}
ARM GAS  C:\Users\SF\AppData\Local\Temp\ccFGOSN0.s 			page 160


 6302              	.LVL426:
 6303              	.L370:
 6304              	.LCFI250:
 6305              		.cfi_restore_state
2401:Drivers/lsm303agr/Src/lsm303agr_reg.c ****     ret = lsm303agr_write_reg(ctx, LSM303AGR_INT1_THS_A,
 6306              		.loc 1 2401 5 is_stmt 1 view .LVU1613
2401:Drivers/lsm303agr/Src/lsm303agr_reg.c ****     ret = lsm303agr_write_reg(ctx, LSM303AGR_INT1_THS_A,
 6307              		.loc 1 2401 20 is_stmt 0 view .LVU1614
 6308 0018 9DF80430 		ldrb	r3, [sp, #4]	@ zero_extendqisi2
 6309 001c 65F30603 		bfi	r3, r5, #0, #7
 6310 0020 8DF80430 		strb	r3, [sp, #4]
2402:Drivers/lsm303agr/Src/lsm303agr_reg.c ****                               (uint8_t *)&int1_ths_a, 1);
 6311              		.loc 1 2402 5 is_stmt 1 view .LVU1615
2402:Drivers/lsm303agr/Src/lsm303agr_reg.c ****                               (uint8_t *)&int1_ths_a, 1);
 6312              		.loc 1 2402 11 is_stmt 0 view .LVU1616
 6313 0024 0123     		movs	r3, #1
 6314              	.LVL427:
2402:Drivers/lsm303agr/Src/lsm303agr_reg.c ****                               (uint8_t *)&int1_ths_a, 1);
 6315              		.loc 1 2402 11 view .LVU1617
 6316 0026 01AA     		add	r2, sp, #4
 6317 0028 3221     		movs	r1, #50
 6318 002a 2046     		mov	r0, r4
 6319 002c FFF7FEFF 		bl	lsm303agr_write_reg
 6320              	.LVL428:
2406:Drivers/lsm303agr/Src/lsm303agr_reg.c **** }
 6321              		.loc 1 2406 3 is_stmt 1 view .LVU1618
2406:Drivers/lsm303agr/Src/lsm303agr_reg.c **** }
 6322              		.loc 1 2406 10 is_stmt 0 view .LVU1619
 6323 0030 F0E7     		b	.L367
 6324              		.cfi_endproc
 6325              	.LFE223:
 6327              		.section	.text.lsm303agr_xl_int1_gen_threshold_get,"ax",%progbits
 6328              		.align	1
 6329              		.global	lsm303agr_xl_int1_gen_threshold_get
 6330              		.syntax unified
 6331              		.thumb
 6332              		.thumb_func
 6334              	lsm303agr_xl_int1_gen_threshold_get:
 6335              	.LVL429:
 6336              	.LFB224:
2408:Drivers/lsm303agr/Src/lsm303agr_reg.c **** 
2409:Drivers/lsm303agr/Src/lsm303agr_reg.c **** /**
2410:Drivers/lsm303agr/Src/lsm303agr_reg.c ****   * @brief  User-defined threshold value for xl
2411:Drivers/lsm303agr/Src/lsm303agr_reg.c ****   *         interrupt event on generator 1.[get]
2412:Drivers/lsm303agr/Src/lsm303agr_reg.c ****   *         LSb = 16mg@2g / 32mg@4g / 62mg@8g / 186mg@16g
2413:Drivers/lsm303agr/Src/lsm303agr_reg.c ****   *
2414:Drivers/lsm303agr/Src/lsm303agr_reg.c ****   * @param  ctx    Read / write interface definitions.(ptr)
2415:Drivers/lsm303agr/Src/lsm303agr_reg.c ****   * @param  val    Get the values of ths in reg INT1_THS_A.(ptr)
2416:Drivers/lsm303agr/Src/lsm303agr_reg.c ****   * @retval        Interface status (MANDATORY: return 0 -> no Error).
2417:Drivers/lsm303agr/Src/lsm303agr_reg.c ****   *
2418:Drivers/lsm303agr/Src/lsm303agr_reg.c ****   */
2419:Drivers/lsm303agr/Src/lsm303agr_reg.c **** int32_t lsm303agr_xl_int1_gen_threshold_get(stmdev_ctx_t *ctx,
2420:Drivers/lsm303agr/Src/lsm303agr_reg.c ****                                             uint8_t *val)
2421:Drivers/lsm303agr/Src/lsm303agr_reg.c **** {
 6337              		.loc 1 2421 1 is_stmt 1 view -0
 6338              		.cfi_startproc
 6339              		@ args = 0, pretend = 0, frame = 8
ARM GAS  C:\Users\SF\AppData\Local\Temp\ccFGOSN0.s 			page 161


 6340              		@ frame_needed = 0, uses_anonymous_args = 0
 6341              		.loc 1 2421 1 is_stmt 0 view .LVU1621
 6342 0000 10B5     		push	{r4, lr}
 6343              	.LCFI251:
 6344              		.cfi_def_cfa_offset 8
 6345              		.cfi_offset 4, -8
 6346              		.cfi_offset 14, -4
 6347 0002 82B0     		sub	sp, sp, #8
 6348              	.LCFI252:
 6349              		.cfi_def_cfa_offset 16
 6350 0004 0C46     		mov	r4, r1
2422:Drivers/lsm303agr/Src/lsm303agr_reg.c ****   lsm303agr_int1_ths_a_t int1_ths_a;
 6351              		.loc 1 2422 3 is_stmt 1 view .LVU1622
2423:Drivers/lsm303agr/Src/lsm303agr_reg.c ****   int32_t ret;
 6352              		.loc 1 2423 3 view .LVU1623
2424:Drivers/lsm303agr/Src/lsm303agr_reg.c **** 
2425:Drivers/lsm303agr/Src/lsm303agr_reg.c ****   ret = lsm303agr_read_reg(ctx, LSM303AGR_INT1_THS_A,
 6353              		.loc 1 2425 3 view .LVU1624
 6354              		.loc 1 2425 9 is_stmt 0 view .LVU1625
 6355 0006 0123     		movs	r3, #1
 6356 0008 01AA     		add	r2, sp, #4
 6357 000a 3221     		movs	r1, #50
 6358              	.LVL430:
 6359              		.loc 1 2425 9 view .LVU1626
 6360 000c FFF7FEFF 		bl	lsm303agr_read_reg
 6361              	.LVL431:
2426:Drivers/lsm303agr/Src/lsm303agr_reg.c ****                            (uint8_t *)&int1_ths_a, 1);
2427:Drivers/lsm303agr/Src/lsm303agr_reg.c ****   *val = int1_ths_a.ths;
 6362              		.loc 1 2427 3 is_stmt 1 view .LVU1627
 6363              		.loc 1 2427 20 is_stmt 0 view .LVU1628
 6364 0010 9DF80430 		ldrb	r3, [sp, #4]	@ zero_extendqisi2
 6365 0014 C3F30603 		ubfx	r3, r3, #0, #7
 6366              		.loc 1 2427 8 view .LVU1629
 6367 0018 2370     		strb	r3, [r4]
2428:Drivers/lsm303agr/Src/lsm303agr_reg.c **** 
2429:Drivers/lsm303agr/Src/lsm303agr_reg.c ****   return ret;
 6368              		.loc 1 2429 3 is_stmt 1 view .LVU1630
2430:Drivers/lsm303agr/Src/lsm303agr_reg.c **** }
 6369              		.loc 1 2430 1 is_stmt 0 view .LVU1631
 6370 001a 02B0     		add	sp, sp, #8
 6371              	.LCFI253:
 6372              		.cfi_def_cfa_offset 8
 6373              		@ sp needed
 6374 001c 10BD     		pop	{r4, pc}
 6375              		.loc 1 2430 1 view .LVU1632
 6376              		.cfi_endproc
 6377              	.LFE224:
 6379              		.section	.text.lsm303agr_xl_int1_gen_duration_set,"ax",%progbits
 6380              		.align	1
 6381              		.global	lsm303agr_xl_int1_gen_duration_set
 6382              		.syntax unified
 6383              		.thumb
 6384              		.thumb_func
 6386              	lsm303agr_xl_int1_gen_duration_set:
 6387              	.LVL432:
 6388              	.LFB225:
2431:Drivers/lsm303agr/Src/lsm303agr_reg.c **** 
ARM GAS  C:\Users\SF\AppData\Local\Temp\ccFGOSN0.s 			page 162


2432:Drivers/lsm303agr/Src/lsm303agr_reg.c **** /**
2433:Drivers/lsm303agr/Src/lsm303agr_reg.c ****   * @brief  The minimum duration (LSb = 1/ODR) of the Interrupt 1 event to be
2434:Drivers/lsm303agr/Src/lsm303agr_reg.c ****   *         recognized.[set]
2435:Drivers/lsm303agr/Src/lsm303agr_reg.c ****   *
2436:Drivers/lsm303agr/Src/lsm303agr_reg.c ****   * @param  ctx    Read / write interface definitions.(ptr)
2437:Drivers/lsm303agr/Src/lsm303agr_reg.c ****   * @param  val    Change the values of d in reg INT1_DURATION_A
2438:Drivers/lsm303agr/Src/lsm303agr_reg.c ****   * @retval        Interface status (MANDATORY: return 0 -> no Error).
2439:Drivers/lsm303agr/Src/lsm303agr_reg.c ****   *
2440:Drivers/lsm303agr/Src/lsm303agr_reg.c ****   */
2441:Drivers/lsm303agr/Src/lsm303agr_reg.c **** int32_t lsm303agr_xl_int1_gen_duration_set(stmdev_ctx_t *ctx,
2442:Drivers/lsm303agr/Src/lsm303agr_reg.c ****                                            uint8_t val)
2443:Drivers/lsm303agr/Src/lsm303agr_reg.c **** {
 6389              		.loc 1 2443 1 is_stmt 1 view -0
 6390              		.cfi_startproc
 6391              		@ args = 0, pretend = 0, frame = 8
 6392              		@ frame_needed = 0, uses_anonymous_args = 0
 6393              		.loc 1 2443 1 is_stmt 0 view .LVU1634
 6394 0000 30B5     		push	{r4, r5, lr}
 6395              	.LCFI254:
 6396              		.cfi_def_cfa_offset 12
 6397              		.cfi_offset 4, -12
 6398              		.cfi_offset 5, -8
 6399              		.cfi_offset 14, -4
 6400 0002 83B0     		sub	sp, sp, #12
 6401              	.LCFI255:
 6402              		.cfi_def_cfa_offset 24
 6403 0004 0446     		mov	r4, r0
 6404 0006 0D46     		mov	r5, r1
2444:Drivers/lsm303agr/Src/lsm303agr_reg.c ****   lsm303agr_int1_duration_a_t int1_duration_a;
 6405              		.loc 1 2444 3 is_stmt 1 view .LVU1635
2445:Drivers/lsm303agr/Src/lsm303agr_reg.c ****   int32_t ret;
 6406              		.loc 1 2445 3 view .LVU1636
2446:Drivers/lsm303agr/Src/lsm303agr_reg.c **** 
2447:Drivers/lsm303agr/Src/lsm303agr_reg.c ****   ret = lsm303agr_read_reg(ctx, LSM303AGR_INT1_DURATION_A,
 6407              		.loc 1 2447 3 view .LVU1637
 6408              		.loc 1 2447 9 is_stmt 0 view .LVU1638
 6409 0008 0123     		movs	r3, #1
 6410 000a 01AA     		add	r2, sp, #4
 6411 000c 3321     		movs	r1, #51
 6412              	.LVL433:
 6413              		.loc 1 2447 9 view .LVU1639
 6414 000e FFF7FEFF 		bl	lsm303agr_read_reg
 6415              	.LVL434:
2448:Drivers/lsm303agr/Src/lsm303agr_reg.c ****                            (uint8_t *)&int1_duration_a, 1);
2449:Drivers/lsm303agr/Src/lsm303agr_reg.c **** 
2450:Drivers/lsm303agr/Src/lsm303agr_reg.c ****   if (ret == 0)
 6416              		.loc 1 2450 3 is_stmt 1 view .LVU1640
 6417              		.loc 1 2450 6 is_stmt 0 view .LVU1641
 6418 0012 08B1     		cbz	r0, .L376
 6419              	.LVL435:
 6420              	.L373:
2451:Drivers/lsm303agr/Src/lsm303agr_reg.c ****   {
2452:Drivers/lsm303agr/Src/lsm303agr_reg.c ****     int1_duration_a.d = (uint8_t)val;
2453:Drivers/lsm303agr/Src/lsm303agr_reg.c ****     ret = lsm303agr_write_reg(ctx, LSM303AGR_INT1_DURATION_A,
2454:Drivers/lsm303agr/Src/lsm303agr_reg.c ****                               (uint8_t *)&int1_duration_a, 1);
2455:Drivers/lsm303agr/Src/lsm303agr_reg.c ****   }
2456:Drivers/lsm303agr/Src/lsm303agr_reg.c **** 
ARM GAS  C:\Users\SF\AppData\Local\Temp\ccFGOSN0.s 			page 163


2457:Drivers/lsm303agr/Src/lsm303agr_reg.c ****   return ret;
2458:Drivers/lsm303agr/Src/lsm303agr_reg.c **** }
 6421              		.loc 1 2458 1 view .LVU1642
 6422 0014 03B0     		add	sp, sp, #12
 6423              	.LCFI256:
 6424              		.cfi_remember_state
 6425              		.cfi_def_cfa_offset 12
 6426              		@ sp needed
 6427 0016 30BD     		pop	{r4, r5, pc}
 6428              	.LVL436:
 6429              	.L376:
 6430              	.LCFI257:
 6431              		.cfi_restore_state
2452:Drivers/lsm303agr/Src/lsm303agr_reg.c ****     ret = lsm303agr_write_reg(ctx, LSM303AGR_INT1_DURATION_A,
 6432              		.loc 1 2452 5 is_stmt 1 view .LVU1643
2452:Drivers/lsm303agr/Src/lsm303agr_reg.c ****     ret = lsm303agr_write_reg(ctx, LSM303AGR_INT1_DURATION_A,
 6433              		.loc 1 2452 23 is_stmt 0 view .LVU1644
 6434 0018 9DF80430 		ldrb	r3, [sp, #4]	@ zero_extendqisi2
 6435 001c 65F30603 		bfi	r3, r5, #0, #7
 6436 0020 8DF80430 		strb	r3, [sp, #4]
2453:Drivers/lsm303agr/Src/lsm303agr_reg.c ****                               (uint8_t *)&int1_duration_a, 1);
 6437              		.loc 1 2453 5 is_stmt 1 view .LVU1645
2453:Drivers/lsm303agr/Src/lsm303agr_reg.c ****                               (uint8_t *)&int1_duration_a, 1);
 6438              		.loc 1 2453 11 is_stmt 0 view .LVU1646
 6439 0024 0123     		movs	r3, #1
 6440              	.LVL437:
2453:Drivers/lsm303agr/Src/lsm303agr_reg.c ****                               (uint8_t *)&int1_duration_a, 1);
 6441              		.loc 1 2453 11 view .LVU1647
 6442 0026 01AA     		add	r2, sp, #4
 6443 0028 3321     		movs	r1, #51
 6444 002a 2046     		mov	r0, r4
 6445 002c FFF7FEFF 		bl	lsm303agr_write_reg
 6446              	.LVL438:
2457:Drivers/lsm303agr/Src/lsm303agr_reg.c **** }
 6447              		.loc 1 2457 3 is_stmt 1 view .LVU1648
2457:Drivers/lsm303agr/Src/lsm303agr_reg.c **** }
 6448              		.loc 1 2457 10 is_stmt 0 view .LVU1649
 6449 0030 F0E7     		b	.L373
 6450              		.cfi_endproc
 6451              	.LFE225:
 6453              		.section	.text.lsm303agr_xl_int1_gen_duration_get,"ax",%progbits
 6454              		.align	1
 6455              		.global	lsm303agr_xl_int1_gen_duration_get
 6456              		.syntax unified
 6457              		.thumb
 6458              		.thumb_func
 6460              	lsm303agr_xl_int1_gen_duration_get:
 6461              	.LVL439:
 6462              	.LFB226:
2459:Drivers/lsm303agr/Src/lsm303agr_reg.c **** 
2460:Drivers/lsm303agr/Src/lsm303agr_reg.c **** /**
2461:Drivers/lsm303agr/Src/lsm303agr_reg.c ****   * @brief  The minimum duration (LSb = 1/ODR) of the Interrupt 1 event to be
2462:Drivers/lsm303agr/Src/lsm303agr_reg.c ****   *         recognized.[get]
2463:Drivers/lsm303agr/Src/lsm303agr_reg.c ****   *
2464:Drivers/lsm303agr/Src/lsm303agr_reg.c ****   * @param  ctx    Read / write interface definitions.(ptr)
2465:Drivers/lsm303agr/Src/lsm303agr_reg.c ****   * @param  val    Get the values of d in reg INT1_DURATION_A.(ptr)
2466:Drivers/lsm303agr/Src/lsm303agr_reg.c ****   * @retval        Interface status (MANDATORY: return 0 -> no Error).
ARM GAS  C:\Users\SF\AppData\Local\Temp\ccFGOSN0.s 			page 164


2467:Drivers/lsm303agr/Src/lsm303agr_reg.c ****   *
2468:Drivers/lsm303agr/Src/lsm303agr_reg.c ****   */
2469:Drivers/lsm303agr/Src/lsm303agr_reg.c **** int32_t lsm303agr_xl_int1_gen_duration_get(stmdev_ctx_t *ctx,
2470:Drivers/lsm303agr/Src/lsm303agr_reg.c ****                                            uint8_t *val)
2471:Drivers/lsm303agr/Src/lsm303agr_reg.c **** {
 6463              		.loc 1 2471 1 is_stmt 1 view -0
 6464              		.cfi_startproc
 6465              		@ args = 0, pretend = 0, frame = 8
 6466              		@ frame_needed = 0, uses_anonymous_args = 0
 6467              		.loc 1 2471 1 is_stmt 0 view .LVU1651
 6468 0000 10B5     		push	{r4, lr}
 6469              	.LCFI258:
 6470              		.cfi_def_cfa_offset 8
 6471              		.cfi_offset 4, -8
 6472              		.cfi_offset 14, -4
 6473 0002 82B0     		sub	sp, sp, #8
 6474              	.LCFI259:
 6475              		.cfi_def_cfa_offset 16
 6476 0004 0C46     		mov	r4, r1
2472:Drivers/lsm303agr/Src/lsm303agr_reg.c ****   lsm303agr_int1_duration_a_t int1_duration_a;
 6477              		.loc 1 2472 3 is_stmt 1 view .LVU1652
2473:Drivers/lsm303agr/Src/lsm303agr_reg.c ****   int32_t ret;
 6478              		.loc 1 2473 3 view .LVU1653
2474:Drivers/lsm303agr/Src/lsm303agr_reg.c **** 
2475:Drivers/lsm303agr/Src/lsm303agr_reg.c ****   ret = lsm303agr_read_reg(ctx, LSM303AGR_INT1_DURATION_A,
 6479              		.loc 1 2475 3 view .LVU1654
 6480              		.loc 1 2475 9 is_stmt 0 view .LVU1655
 6481 0006 0123     		movs	r3, #1
 6482 0008 01AA     		add	r2, sp, #4
 6483 000a 3321     		movs	r1, #51
 6484              	.LVL440:
 6485              		.loc 1 2475 9 view .LVU1656
 6486 000c FFF7FEFF 		bl	lsm303agr_read_reg
 6487              	.LVL441:
2476:Drivers/lsm303agr/Src/lsm303agr_reg.c ****                            (uint8_t *)&int1_duration_a, 1);
2477:Drivers/lsm303agr/Src/lsm303agr_reg.c ****   *val = int1_duration_a.d;
 6488              		.loc 1 2477 3 is_stmt 1 view .LVU1657
 6489              		.loc 1 2477 25 is_stmt 0 view .LVU1658
 6490 0010 9DF80430 		ldrb	r3, [sp, #4]	@ zero_extendqisi2
 6491 0014 C3F30603 		ubfx	r3, r3, #0, #7
 6492              		.loc 1 2477 8 view .LVU1659
 6493 0018 2370     		strb	r3, [r4]
2478:Drivers/lsm303agr/Src/lsm303agr_reg.c **** 
2479:Drivers/lsm303agr/Src/lsm303agr_reg.c ****   return ret;
 6494              		.loc 1 2479 3 is_stmt 1 view .LVU1660
2480:Drivers/lsm303agr/Src/lsm303agr_reg.c **** }
 6495              		.loc 1 2480 1 is_stmt 0 view .LVU1661
 6496 001a 02B0     		add	sp, sp, #8
 6497              	.LCFI260:
 6498              		.cfi_def_cfa_offset 8
 6499              		@ sp needed
 6500 001c 10BD     		pop	{r4, pc}
 6501              		.loc 1 2480 1 view .LVU1662
 6502              		.cfi_endproc
 6503              	.LFE226:
 6505              		.section	.text.lsm303agr_xl_int2_gen_conf_set,"ax",%progbits
 6506              		.align	1
ARM GAS  C:\Users\SF\AppData\Local\Temp\ccFGOSN0.s 			page 165


 6507              		.global	lsm303agr_xl_int2_gen_conf_set
 6508              		.syntax unified
 6509              		.thumb
 6510              		.thumb_func
 6512              	lsm303agr_xl_int2_gen_conf_set:
 6513              	.LVL442:
 6514              	.LFB227:
2481:Drivers/lsm303agr/Src/lsm303agr_reg.c **** 
2482:Drivers/lsm303agr/Src/lsm303agr_reg.c **** /**
2483:Drivers/lsm303agr/Src/lsm303agr_reg.c ****   * @}
2484:Drivers/lsm303agr/Src/lsm303agr_reg.c ****   *
2485:Drivers/lsm303agr/Src/lsm303agr_reg.c ****   */
2486:Drivers/lsm303agr/Src/lsm303agr_reg.c **** 
2487:Drivers/lsm303agr/Src/lsm303agr_reg.c **** /**
2488:Drivers/lsm303agr/Src/lsm303agr_reg.c ****   * @addtogroup   interrupts_generator_2_for_xl
2489:Drivers/lsm303agr/Src/lsm303agr_reg.c ****   * @brief   This section group all the functions that manage the second
2490:Drivers/lsm303agr/Src/lsm303agr_reg.c ****   *          interrupts generator for accelerometer
2491:Drivers/lsm303agr/Src/lsm303agr_reg.c ****   * @{
2492:Drivers/lsm303agr/Src/lsm303agr_reg.c ****   *
2493:Drivers/lsm303agr/Src/lsm303agr_reg.c ****   */
2494:Drivers/lsm303agr/Src/lsm303agr_reg.c **** 
2495:Drivers/lsm303agr/Src/lsm303agr_reg.c **** /**
2496:Drivers/lsm303agr/Src/lsm303agr_reg.c ****   * @brief  Interrupt generator 2 configuration register.[set]
2497:Drivers/lsm303agr/Src/lsm303agr_reg.c ****   *
2498:Drivers/lsm303agr/Src/lsm303agr_reg.c ****   * @param  ctx    Read / write interface definitions.(ptr)
2499:Drivers/lsm303agr/Src/lsm303agr_reg.c ****   * @param  val    Change registers INT2_CFG_A.(ptr)
2500:Drivers/lsm303agr/Src/lsm303agr_reg.c ****   * @retval        Interface status (MANDATORY: return 0 -> no Error).
2501:Drivers/lsm303agr/Src/lsm303agr_reg.c ****   *
2502:Drivers/lsm303agr/Src/lsm303agr_reg.c ****   */
2503:Drivers/lsm303agr/Src/lsm303agr_reg.c **** int32_t lsm303agr_xl_int2_gen_conf_set(stmdev_ctx_t *ctx,
2504:Drivers/lsm303agr/Src/lsm303agr_reg.c ****                                        lsm303agr_int2_cfg_a_t *val)
2505:Drivers/lsm303agr/Src/lsm303agr_reg.c **** {
 6515              		.loc 1 2505 1 is_stmt 1 view -0
 6516              		.cfi_startproc
 6517              		@ args = 0, pretend = 0, frame = 0
 6518              		@ frame_needed = 0, uses_anonymous_args = 0
 6519              		.loc 1 2505 1 is_stmt 0 view .LVU1664
 6520 0000 08B5     		push	{r3, lr}
 6521              	.LCFI261:
 6522              		.cfi_def_cfa_offset 8
 6523              		.cfi_offset 3, -8
 6524              		.cfi_offset 14, -4
 6525 0002 0A46     		mov	r2, r1
2506:Drivers/lsm303agr/Src/lsm303agr_reg.c ****   int32_t ret;
 6526              		.loc 1 2506 3 is_stmt 1 view .LVU1665
2507:Drivers/lsm303agr/Src/lsm303agr_reg.c **** 
2508:Drivers/lsm303agr/Src/lsm303agr_reg.c ****   ret = lsm303agr_write_reg(ctx, LSM303AGR_INT2_CFG_A, (uint8_t *) val, 1);
 6527              		.loc 1 2508 3 view .LVU1666
 6528              		.loc 1 2508 9 is_stmt 0 view .LVU1667
 6529 0004 0123     		movs	r3, #1
 6530 0006 3421     		movs	r1, #52
 6531              	.LVL443:
 6532              		.loc 1 2508 9 view .LVU1668
 6533 0008 FFF7FEFF 		bl	lsm303agr_write_reg
 6534              	.LVL444:
2509:Drivers/lsm303agr/Src/lsm303agr_reg.c **** 
2510:Drivers/lsm303agr/Src/lsm303agr_reg.c ****   return ret;
ARM GAS  C:\Users\SF\AppData\Local\Temp\ccFGOSN0.s 			page 166


 6535              		.loc 1 2510 3 is_stmt 1 view .LVU1669
2511:Drivers/lsm303agr/Src/lsm303agr_reg.c **** }
 6536              		.loc 1 2511 1 is_stmt 0 view .LVU1670
 6537 000c 08BD     		pop	{r3, pc}
 6538              		.cfi_endproc
 6539              	.LFE227:
 6541              		.section	.text.lsm303agr_xl_int2_gen_conf_get,"ax",%progbits
 6542              		.align	1
 6543              		.global	lsm303agr_xl_int2_gen_conf_get
 6544              		.syntax unified
 6545              		.thumb
 6546              		.thumb_func
 6548              	lsm303agr_xl_int2_gen_conf_get:
 6549              	.LVL445:
 6550              	.LFB228:
2512:Drivers/lsm303agr/Src/lsm303agr_reg.c **** 
2513:Drivers/lsm303agr/Src/lsm303agr_reg.c **** /**
2514:Drivers/lsm303agr/Src/lsm303agr_reg.c ****   * @brief  Interrupt generator 2 configuration register.[get]
2515:Drivers/lsm303agr/Src/lsm303agr_reg.c ****   *
2516:Drivers/lsm303agr/Src/lsm303agr_reg.c ****   * @param  ctx    Read / write interface definitions.(ptr)
2517:Drivers/lsm303agr/Src/lsm303agr_reg.c ****   * @param  val    Get registers INT2_CFG_A.(ptr)
2518:Drivers/lsm303agr/Src/lsm303agr_reg.c ****   * @retval        Interface status (MANDATORY: return 0 -> no Error).
2519:Drivers/lsm303agr/Src/lsm303agr_reg.c ****   *
2520:Drivers/lsm303agr/Src/lsm303agr_reg.c ****   */
2521:Drivers/lsm303agr/Src/lsm303agr_reg.c **** int32_t lsm303agr_xl_int2_gen_conf_get(stmdev_ctx_t *ctx,
2522:Drivers/lsm303agr/Src/lsm303agr_reg.c ****                                        lsm303agr_int2_cfg_a_t *val)
2523:Drivers/lsm303agr/Src/lsm303agr_reg.c **** {
 6551              		.loc 1 2523 1 is_stmt 1 view -0
 6552              		.cfi_startproc
 6553              		@ args = 0, pretend = 0, frame = 0
 6554              		@ frame_needed = 0, uses_anonymous_args = 0
 6555              		.loc 1 2523 1 is_stmt 0 view .LVU1672
 6556 0000 08B5     		push	{r3, lr}
 6557              	.LCFI262:
 6558              		.cfi_def_cfa_offset 8
 6559              		.cfi_offset 3, -8
 6560              		.cfi_offset 14, -4
 6561 0002 0A46     		mov	r2, r1
2524:Drivers/lsm303agr/Src/lsm303agr_reg.c ****   int32_t ret;
 6562              		.loc 1 2524 3 is_stmt 1 view .LVU1673
2525:Drivers/lsm303agr/Src/lsm303agr_reg.c **** 
2526:Drivers/lsm303agr/Src/lsm303agr_reg.c ****   ret = lsm303agr_read_reg(ctx, LSM303AGR_INT2_CFG_A, (uint8_t *) val, 1);
 6563              		.loc 1 2526 3 view .LVU1674
 6564              		.loc 1 2526 9 is_stmt 0 view .LVU1675
 6565 0004 0123     		movs	r3, #1
 6566 0006 3421     		movs	r1, #52
 6567              	.LVL446:
 6568              		.loc 1 2526 9 view .LVU1676
 6569 0008 FFF7FEFF 		bl	lsm303agr_read_reg
 6570              	.LVL447:
2527:Drivers/lsm303agr/Src/lsm303agr_reg.c **** 
2528:Drivers/lsm303agr/Src/lsm303agr_reg.c ****   return ret;
 6571              		.loc 1 2528 3 is_stmt 1 view .LVU1677
2529:Drivers/lsm303agr/Src/lsm303agr_reg.c **** }
 6572              		.loc 1 2529 1 is_stmt 0 view .LVU1678
 6573 000c 08BD     		pop	{r3, pc}
 6574              		.cfi_endproc
ARM GAS  C:\Users\SF\AppData\Local\Temp\ccFGOSN0.s 			page 167


 6575              	.LFE228:
 6577              		.section	.text.lsm303agr_xl_int2_gen_source_get,"ax",%progbits
 6578              		.align	1
 6579              		.global	lsm303agr_xl_int2_gen_source_get
 6580              		.syntax unified
 6581              		.thumb
 6582              		.thumb_func
 6584              	lsm303agr_xl_int2_gen_source_get:
 6585              	.LVL448:
 6586              	.LFB229:
2530:Drivers/lsm303agr/Src/lsm303agr_reg.c **** 
2531:Drivers/lsm303agr/Src/lsm303agr_reg.c **** /**
2532:Drivers/lsm303agr/Src/lsm303agr_reg.c ****   * @brief  Interrupt generator 2 source register.[get]
2533:Drivers/lsm303agr/Src/lsm303agr_reg.c ****   *
2534:Drivers/lsm303agr/Src/lsm303agr_reg.c ****   * @param  ctx    Read / write interface definitions.(ptr)
2535:Drivers/lsm303agr/Src/lsm303agr_reg.c ****   * @param  val    Get registers INT2_SRC_A.(ptr)
2536:Drivers/lsm303agr/Src/lsm303agr_reg.c ****   * @retval        Interface status (MANDATORY: return 0 -> no Error).
2537:Drivers/lsm303agr/Src/lsm303agr_reg.c ****   *
2538:Drivers/lsm303agr/Src/lsm303agr_reg.c ****   */
2539:Drivers/lsm303agr/Src/lsm303agr_reg.c **** int32_t lsm303agr_xl_int2_gen_source_get(stmdev_ctx_t *ctx,
2540:Drivers/lsm303agr/Src/lsm303agr_reg.c ****                                          lsm303agr_int2_src_a_t *val)
2541:Drivers/lsm303agr/Src/lsm303agr_reg.c **** {
 6587              		.loc 1 2541 1 is_stmt 1 view -0
 6588              		.cfi_startproc
 6589              		@ args = 0, pretend = 0, frame = 0
 6590              		@ frame_needed = 0, uses_anonymous_args = 0
 6591              		.loc 1 2541 1 is_stmt 0 view .LVU1680
 6592 0000 08B5     		push	{r3, lr}
 6593              	.LCFI263:
 6594              		.cfi_def_cfa_offset 8
 6595              		.cfi_offset 3, -8
 6596              		.cfi_offset 14, -4
 6597 0002 0A46     		mov	r2, r1
2542:Drivers/lsm303agr/Src/lsm303agr_reg.c ****   int32_t ret;
 6598              		.loc 1 2542 3 is_stmt 1 view .LVU1681
2543:Drivers/lsm303agr/Src/lsm303agr_reg.c **** 
2544:Drivers/lsm303agr/Src/lsm303agr_reg.c ****   ret = lsm303agr_read_reg(ctx, LSM303AGR_INT2_SRC_A, (uint8_t *) val, 1);
 6599              		.loc 1 2544 3 view .LVU1682
 6600              		.loc 1 2544 9 is_stmt 0 view .LVU1683
 6601 0004 0123     		movs	r3, #1
 6602 0006 3521     		movs	r1, #53
 6603              	.LVL449:
 6604              		.loc 1 2544 9 view .LVU1684
 6605 0008 FFF7FEFF 		bl	lsm303agr_read_reg
 6606              	.LVL450:
2545:Drivers/lsm303agr/Src/lsm303agr_reg.c **** 
2546:Drivers/lsm303agr/Src/lsm303agr_reg.c ****   return ret;
 6607              		.loc 1 2546 3 is_stmt 1 view .LVU1685
2547:Drivers/lsm303agr/Src/lsm303agr_reg.c **** }
 6608              		.loc 1 2547 1 is_stmt 0 view .LVU1686
 6609 000c 08BD     		pop	{r3, pc}
 6610              		.cfi_endproc
 6611              	.LFE229:
 6613              		.section	.text.lsm303agr_xl_int2_gen_threshold_set,"ax",%progbits
 6614              		.align	1
 6615              		.global	lsm303agr_xl_int2_gen_threshold_set
 6616              		.syntax unified
ARM GAS  C:\Users\SF\AppData\Local\Temp\ccFGOSN0.s 			page 168


 6617              		.thumb
 6618              		.thumb_func
 6620              	lsm303agr_xl_int2_gen_threshold_set:
 6621              	.LVL451:
 6622              	.LFB230:
2548:Drivers/lsm303agr/Src/lsm303agr_reg.c **** 
2549:Drivers/lsm303agr/Src/lsm303agr_reg.c **** /**
2550:Drivers/lsm303agr/Src/lsm303agr_reg.c ****   * @brief  User-defined threshold value for xl
2551:Drivers/lsm303agr/Src/lsm303agr_reg.c ****   *         interrupt event on generator 2.[set]
2552:Drivers/lsm303agr/Src/lsm303agr_reg.c ****   *         LSb = 16mg@2g / 32mg@4g / 62mg@8g / 186mg@16g
2553:Drivers/lsm303agr/Src/lsm303agr_reg.c ****   *
2554:Drivers/lsm303agr/Src/lsm303agr_reg.c ****   * @param  ctx    Read / write interface definitions.(ptr)
2555:Drivers/lsm303agr/Src/lsm303agr_reg.c ****   * @param  val    Change the values of ths in reg INT2_THS_A
2556:Drivers/lsm303agr/Src/lsm303agr_reg.c ****   * @retval        Interface status (MANDATORY: return 0 -> no Error).
2557:Drivers/lsm303agr/Src/lsm303agr_reg.c ****   *
2558:Drivers/lsm303agr/Src/lsm303agr_reg.c ****   */
2559:Drivers/lsm303agr/Src/lsm303agr_reg.c **** int32_t lsm303agr_xl_int2_gen_threshold_set(stmdev_ctx_t *ctx,
2560:Drivers/lsm303agr/Src/lsm303agr_reg.c ****                                             uint8_t val)
2561:Drivers/lsm303agr/Src/lsm303agr_reg.c **** {
 6623              		.loc 1 2561 1 is_stmt 1 view -0
 6624              		.cfi_startproc
 6625              		@ args = 0, pretend = 0, frame = 8
 6626              		@ frame_needed = 0, uses_anonymous_args = 0
 6627              		.loc 1 2561 1 is_stmt 0 view .LVU1688
 6628 0000 30B5     		push	{r4, r5, lr}
 6629              	.LCFI264:
 6630              		.cfi_def_cfa_offset 12
 6631              		.cfi_offset 4, -12
 6632              		.cfi_offset 5, -8
 6633              		.cfi_offset 14, -4
 6634 0002 83B0     		sub	sp, sp, #12
 6635              	.LCFI265:
 6636              		.cfi_def_cfa_offset 24
 6637 0004 0446     		mov	r4, r0
 6638 0006 0D46     		mov	r5, r1
2562:Drivers/lsm303agr/Src/lsm303agr_reg.c ****   lsm303agr_int2_ths_a_t int2_ths_a;
 6639              		.loc 1 2562 3 is_stmt 1 view .LVU1689
2563:Drivers/lsm303agr/Src/lsm303agr_reg.c ****   int32_t ret;
 6640              		.loc 1 2563 3 view .LVU1690
2564:Drivers/lsm303agr/Src/lsm303agr_reg.c **** 
2565:Drivers/lsm303agr/Src/lsm303agr_reg.c ****   ret = lsm303agr_read_reg(ctx, LSM303AGR_INT2_THS_A,
 6641              		.loc 1 2565 3 view .LVU1691
 6642              		.loc 1 2565 9 is_stmt 0 view .LVU1692
 6643 0008 0123     		movs	r3, #1
 6644 000a 01AA     		add	r2, sp, #4
 6645 000c 3621     		movs	r1, #54
 6646              	.LVL452:
 6647              		.loc 1 2565 9 view .LVU1693
 6648 000e FFF7FEFF 		bl	lsm303agr_read_reg
 6649              	.LVL453:
2566:Drivers/lsm303agr/Src/lsm303agr_reg.c ****                            (uint8_t *)&int2_ths_a, 1);
2567:Drivers/lsm303agr/Src/lsm303agr_reg.c **** 
2568:Drivers/lsm303agr/Src/lsm303agr_reg.c ****   if (ret == 0)
 6650              		.loc 1 2568 3 is_stmt 1 view .LVU1694
 6651              		.loc 1 2568 6 is_stmt 0 view .LVU1695
 6652 0012 08B1     		cbz	r0, .L388
 6653              	.LVL454:
ARM GAS  C:\Users\SF\AppData\Local\Temp\ccFGOSN0.s 			page 169


 6654              	.L385:
2569:Drivers/lsm303agr/Src/lsm303agr_reg.c ****   {
2570:Drivers/lsm303agr/Src/lsm303agr_reg.c ****     int2_ths_a.ths = (uint8_t)val;
2571:Drivers/lsm303agr/Src/lsm303agr_reg.c ****     ret = lsm303agr_write_reg(ctx, LSM303AGR_INT2_THS_A,
2572:Drivers/lsm303agr/Src/lsm303agr_reg.c ****                               (uint8_t *)&int2_ths_a, 1);
2573:Drivers/lsm303agr/Src/lsm303agr_reg.c ****   }
2574:Drivers/lsm303agr/Src/lsm303agr_reg.c **** 
2575:Drivers/lsm303agr/Src/lsm303agr_reg.c ****   return ret;
2576:Drivers/lsm303agr/Src/lsm303agr_reg.c **** }
 6655              		.loc 1 2576 1 view .LVU1696
 6656 0014 03B0     		add	sp, sp, #12
 6657              	.LCFI266:
 6658              		.cfi_remember_state
 6659              		.cfi_def_cfa_offset 12
 6660              		@ sp needed
 6661 0016 30BD     		pop	{r4, r5, pc}
 6662              	.LVL455:
 6663              	.L388:
 6664              	.LCFI267:
 6665              		.cfi_restore_state
2570:Drivers/lsm303agr/Src/lsm303agr_reg.c ****     ret = lsm303agr_write_reg(ctx, LSM303AGR_INT2_THS_A,
 6666              		.loc 1 2570 5 is_stmt 1 view .LVU1697
2570:Drivers/lsm303agr/Src/lsm303agr_reg.c ****     ret = lsm303agr_write_reg(ctx, LSM303AGR_INT2_THS_A,
 6667              		.loc 1 2570 20 is_stmt 0 view .LVU1698
 6668 0018 9DF80430 		ldrb	r3, [sp, #4]	@ zero_extendqisi2
 6669 001c 65F30603 		bfi	r3, r5, #0, #7
 6670 0020 8DF80430 		strb	r3, [sp, #4]
2571:Drivers/lsm303agr/Src/lsm303agr_reg.c ****                               (uint8_t *)&int2_ths_a, 1);
 6671              		.loc 1 2571 5 is_stmt 1 view .LVU1699
2571:Drivers/lsm303agr/Src/lsm303agr_reg.c ****                               (uint8_t *)&int2_ths_a, 1);
 6672              		.loc 1 2571 11 is_stmt 0 view .LVU1700
 6673 0024 0123     		movs	r3, #1
 6674              	.LVL456:
2571:Drivers/lsm303agr/Src/lsm303agr_reg.c ****                               (uint8_t *)&int2_ths_a, 1);
 6675              		.loc 1 2571 11 view .LVU1701
 6676 0026 01AA     		add	r2, sp, #4
 6677 0028 3621     		movs	r1, #54
 6678 002a 2046     		mov	r0, r4
 6679 002c FFF7FEFF 		bl	lsm303agr_write_reg
 6680              	.LVL457:
2575:Drivers/lsm303agr/Src/lsm303agr_reg.c **** }
 6681              		.loc 1 2575 3 is_stmt 1 view .LVU1702
2575:Drivers/lsm303agr/Src/lsm303agr_reg.c **** }
 6682              		.loc 1 2575 10 is_stmt 0 view .LVU1703
 6683 0030 F0E7     		b	.L385
 6684              		.cfi_endproc
 6685              	.LFE230:
 6687              		.section	.text.lsm303agr_xl_int2_gen_threshold_get,"ax",%progbits
 6688              		.align	1
 6689              		.global	lsm303agr_xl_int2_gen_threshold_get
 6690              		.syntax unified
 6691              		.thumb
 6692              		.thumb_func
 6694              	lsm303agr_xl_int2_gen_threshold_get:
 6695              	.LVL458:
 6696              	.LFB231:
2577:Drivers/lsm303agr/Src/lsm303agr_reg.c **** 
ARM GAS  C:\Users\SF\AppData\Local\Temp\ccFGOSN0.s 			page 170


2578:Drivers/lsm303agr/Src/lsm303agr_reg.c **** /**
2579:Drivers/lsm303agr/Src/lsm303agr_reg.c ****   * @brief  User-defined threshold value for
2580:Drivers/lsm303agr/Src/lsm303agr_reg.c ****   *         xl interrupt event on generator 2.[get]
2581:Drivers/lsm303agr/Src/lsm303agr_reg.c ****   *         LSb = 16mg@2g / 32mg@4g / 62mg@8g / 186mg@16g
2582:Drivers/lsm303agr/Src/lsm303agr_reg.c ****   *
2583:Drivers/lsm303agr/Src/lsm303agr_reg.c ****   * @param  ctx    Read / write interface definitions.(ptr)
2584:Drivers/lsm303agr/Src/lsm303agr_reg.c ****   * @param  val    Get the values of ths in reg INT2_THS_A.(ptr)
2585:Drivers/lsm303agr/Src/lsm303agr_reg.c ****   * @retval        Interface status (MANDATORY: return 0 -> no Error).
2586:Drivers/lsm303agr/Src/lsm303agr_reg.c ****   *
2587:Drivers/lsm303agr/Src/lsm303agr_reg.c ****   */
2588:Drivers/lsm303agr/Src/lsm303agr_reg.c **** int32_t lsm303agr_xl_int2_gen_threshold_get(stmdev_ctx_t *ctx,
2589:Drivers/lsm303agr/Src/lsm303agr_reg.c ****                                             uint8_t *val)
2590:Drivers/lsm303agr/Src/lsm303agr_reg.c **** {
 6697              		.loc 1 2590 1 is_stmt 1 view -0
 6698              		.cfi_startproc
 6699              		@ args = 0, pretend = 0, frame = 8
 6700              		@ frame_needed = 0, uses_anonymous_args = 0
 6701              		.loc 1 2590 1 is_stmt 0 view .LVU1705
 6702 0000 10B5     		push	{r4, lr}
 6703              	.LCFI268:
 6704              		.cfi_def_cfa_offset 8
 6705              		.cfi_offset 4, -8
 6706              		.cfi_offset 14, -4
 6707 0002 82B0     		sub	sp, sp, #8
 6708              	.LCFI269:
 6709              		.cfi_def_cfa_offset 16
 6710 0004 0C46     		mov	r4, r1
2591:Drivers/lsm303agr/Src/lsm303agr_reg.c ****   lsm303agr_int2_ths_a_t int2_ths_a;
 6711              		.loc 1 2591 3 is_stmt 1 view .LVU1706
2592:Drivers/lsm303agr/Src/lsm303agr_reg.c ****   int32_t ret;
 6712              		.loc 1 2592 3 view .LVU1707
2593:Drivers/lsm303agr/Src/lsm303agr_reg.c **** 
2594:Drivers/lsm303agr/Src/lsm303agr_reg.c ****   ret = lsm303agr_read_reg(ctx, LSM303AGR_INT2_THS_A,
 6713              		.loc 1 2594 3 view .LVU1708
 6714              		.loc 1 2594 9 is_stmt 0 view .LVU1709
 6715 0006 0123     		movs	r3, #1
 6716 0008 01AA     		add	r2, sp, #4
 6717 000a 3621     		movs	r1, #54
 6718              	.LVL459:
 6719              		.loc 1 2594 9 view .LVU1710
 6720 000c FFF7FEFF 		bl	lsm303agr_read_reg
 6721              	.LVL460:
2595:Drivers/lsm303agr/Src/lsm303agr_reg.c ****                            (uint8_t *)&int2_ths_a, 1);
2596:Drivers/lsm303agr/Src/lsm303agr_reg.c ****   *val = int2_ths_a.ths;
 6722              		.loc 1 2596 3 is_stmt 1 view .LVU1711
 6723              		.loc 1 2596 20 is_stmt 0 view .LVU1712
 6724 0010 9DF80430 		ldrb	r3, [sp, #4]	@ zero_extendqisi2
 6725 0014 C3F30603 		ubfx	r3, r3, #0, #7
 6726              		.loc 1 2596 8 view .LVU1713
 6727 0018 2370     		strb	r3, [r4]
2597:Drivers/lsm303agr/Src/lsm303agr_reg.c **** 
2598:Drivers/lsm303agr/Src/lsm303agr_reg.c ****   return ret;
 6728              		.loc 1 2598 3 is_stmt 1 view .LVU1714
2599:Drivers/lsm303agr/Src/lsm303agr_reg.c **** }
 6729              		.loc 1 2599 1 is_stmt 0 view .LVU1715
 6730 001a 02B0     		add	sp, sp, #8
 6731              	.LCFI270:
ARM GAS  C:\Users\SF\AppData\Local\Temp\ccFGOSN0.s 			page 171


 6732              		.cfi_def_cfa_offset 8
 6733              		@ sp needed
 6734 001c 10BD     		pop	{r4, pc}
 6735              		.loc 1 2599 1 view .LVU1716
 6736              		.cfi_endproc
 6737              	.LFE231:
 6739              		.section	.text.lsm303agr_xl_int2_gen_duration_set,"ax",%progbits
 6740              		.align	1
 6741              		.global	lsm303agr_xl_int2_gen_duration_set
 6742              		.syntax unified
 6743              		.thumb
 6744              		.thumb_func
 6746              	lsm303agr_xl_int2_gen_duration_set:
 6747              	.LVL461:
 6748              	.LFB232:
2600:Drivers/lsm303agr/Src/lsm303agr_reg.c **** 
2601:Drivers/lsm303agr/Src/lsm303agr_reg.c **** /**
2602:Drivers/lsm303agr/Src/lsm303agr_reg.c ****   * @brief  The minimum duration (LSb = 1/ODR) of the Interrupt 1 event to be
2603:Drivers/lsm303agr/Src/lsm303agr_reg.c ****   *         recognized.[set]
2604:Drivers/lsm303agr/Src/lsm303agr_reg.c ****   *
2605:Drivers/lsm303agr/Src/lsm303agr_reg.c ****   * @param  ctx    Read / write interface definitions.(ptr)
2606:Drivers/lsm303agr/Src/lsm303agr_reg.c ****   * @param  val    Change the values of d in reg INT2_DURATION_A
2607:Drivers/lsm303agr/Src/lsm303agr_reg.c ****   * @retval        Interface status (MANDATORY: return 0 -> no Error).
2608:Drivers/lsm303agr/Src/lsm303agr_reg.c ****   *
2609:Drivers/lsm303agr/Src/lsm303agr_reg.c ****   */
2610:Drivers/lsm303agr/Src/lsm303agr_reg.c **** int32_t lsm303agr_xl_int2_gen_duration_set(stmdev_ctx_t *ctx,
2611:Drivers/lsm303agr/Src/lsm303agr_reg.c ****                                            uint8_t val)
2612:Drivers/lsm303agr/Src/lsm303agr_reg.c **** {
 6749              		.loc 1 2612 1 is_stmt 1 view -0
 6750              		.cfi_startproc
 6751              		@ args = 0, pretend = 0, frame = 8
 6752              		@ frame_needed = 0, uses_anonymous_args = 0
 6753              		.loc 1 2612 1 is_stmt 0 view .LVU1718
 6754 0000 30B5     		push	{r4, r5, lr}
 6755              	.LCFI271:
 6756              		.cfi_def_cfa_offset 12
 6757              		.cfi_offset 4, -12
 6758              		.cfi_offset 5, -8
 6759              		.cfi_offset 14, -4
 6760 0002 83B0     		sub	sp, sp, #12
 6761              	.LCFI272:
 6762              		.cfi_def_cfa_offset 24
 6763 0004 0446     		mov	r4, r0
 6764 0006 0D46     		mov	r5, r1
2613:Drivers/lsm303agr/Src/lsm303agr_reg.c ****   lsm303agr_int2_duration_a_t int2_duration_a;
 6765              		.loc 1 2613 3 is_stmt 1 view .LVU1719
2614:Drivers/lsm303agr/Src/lsm303agr_reg.c ****   int32_t ret;
 6766              		.loc 1 2614 3 view .LVU1720
2615:Drivers/lsm303agr/Src/lsm303agr_reg.c **** 
2616:Drivers/lsm303agr/Src/lsm303agr_reg.c ****   ret = lsm303agr_read_reg(ctx, LSM303AGR_INT2_DURATION_A,
 6767              		.loc 1 2616 3 view .LVU1721
 6768              		.loc 1 2616 9 is_stmt 0 view .LVU1722
 6769 0008 0123     		movs	r3, #1
 6770 000a 01AA     		add	r2, sp, #4
 6771 000c 3721     		movs	r1, #55
 6772              	.LVL462:
 6773              		.loc 1 2616 9 view .LVU1723
ARM GAS  C:\Users\SF\AppData\Local\Temp\ccFGOSN0.s 			page 172


 6774 000e FFF7FEFF 		bl	lsm303agr_read_reg
 6775              	.LVL463:
2617:Drivers/lsm303agr/Src/lsm303agr_reg.c ****                            (uint8_t *)&int2_duration_a, 1);
2618:Drivers/lsm303agr/Src/lsm303agr_reg.c **** 
2619:Drivers/lsm303agr/Src/lsm303agr_reg.c ****   if (ret == 0)
 6776              		.loc 1 2619 3 is_stmt 1 view .LVU1724
 6777              		.loc 1 2619 6 is_stmt 0 view .LVU1725
 6778 0012 08B1     		cbz	r0, .L394
 6779              	.LVL464:
 6780              	.L391:
2620:Drivers/lsm303agr/Src/lsm303agr_reg.c ****   {
2621:Drivers/lsm303agr/Src/lsm303agr_reg.c ****     int2_duration_a.d = (uint8_t)val;
2622:Drivers/lsm303agr/Src/lsm303agr_reg.c ****     ret = lsm303agr_write_reg(ctx, LSM303AGR_INT2_DURATION_A,
2623:Drivers/lsm303agr/Src/lsm303agr_reg.c ****                               (uint8_t *)&int2_duration_a, 1);
2624:Drivers/lsm303agr/Src/lsm303agr_reg.c ****   }
2625:Drivers/lsm303agr/Src/lsm303agr_reg.c **** 
2626:Drivers/lsm303agr/Src/lsm303agr_reg.c ****   return ret;
2627:Drivers/lsm303agr/Src/lsm303agr_reg.c **** }
 6781              		.loc 1 2627 1 view .LVU1726
 6782 0014 03B0     		add	sp, sp, #12
 6783              	.LCFI273:
 6784              		.cfi_remember_state
 6785              		.cfi_def_cfa_offset 12
 6786              		@ sp needed
 6787 0016 30BD     		pop	{r4, r5, pc}
 6788              	.LVL465:
 6789              	.L394:
 6790              	.LCFI274:
 6791              		.cfi_restore_state
2621:Drivers/lsm303agr/Src/lsm303agr_reg.c ****     ret = lsm303agr_write_reg(ctx, LSM303AGR_INT2_DURATION_A,
 6792              		.loc 1 2621 5 is_stmt 1 view .LVU1727
2621:Drivers/lsm303agr/Src/lsm303agr_reg.c ****     ret = lsm303agr_write_reg(ctx, LSM303AGR_INT2_DURATION_A,
 6793              		.loc 1 2621 23 is_stmt 0 view .LVU1728
 6794 0018 9DF80430 		ldrb	r3, [sp, #4]	@ zero_extendqisi2
 6795 001c 65F30603 		bfi	r3, r5, #0, #7
 6796 0020 8DF80430 		strb	r3, [sp, #4]
2622:Drivers/lsm303agr/Src/lsm303agr_reg.c ****                               (uint8_t *)&int2_duration_a, 1);
 6797              		.loc 1 2622 5 is_stmt 1 view .LVU1729
2622:Drivers/lsm303agr/Src/lsm303agr_reg.c ****                               (uint8_t *)&int2_duration_a, 1);
 6798              		.loc 1 2622 11 is_stmt 0 view .LVU1730
 6799 0024 0123     		movs	r3, #1
 6800              	.LVL466:
2622:Drivers/lsm303agr/Src/lsm303agr_reg.c ****                               (uint8_t *)&int2_duration_a, 1);
 6801              		.loc 1 2622 11 view .LVU1731
 6802 0026 01AA     		add	r2, sp, #4
 6803 0028 3721     		movs	r1, #55
 6804 002a 2046     		mov	r0, r4
 6805 002c FFF7FEFF 		bl	lsm303agr_write_reg
 6806              	.LVL467:
2626:Drivers/lsm303agr/Src/lsm303agr_reg.c **** }
 6807              		.loc 1 2626 3 is_stmt 1 view .LVU1732
2626:Drivers/lsm303agr/Src/lsm303agr_reg.c **** }
 6808              		.loc 1 2626 10 is_stmt 0 view .LVU1733
 6809 0030 F0E7     		b	.L391
 6810              		.cfi_endproc
 6811              	.LFE232:
 6813              		.section	.text.lsm303agr_xl_int2_gen_duration_get,"ax",%progbits
ARM GAS  C:\Users\SF\AppData\Local\Temp\ccFGOSN0.s 			page 173


 6814              		.align	1
 6815              		.global	lsm303agr_xl_int2_gen_duration_get
 6816              		.syntax unified
 6817              		.thumb
 6818              		.thumb_func
 6820              	lsm303agr_xl_int2_gen_duration_get:
 6821              	.LVL468:
 6822              	.LFB233:
2628:Drivers/lsm303agr/Src/lsm303agr_reg.c **** 
2629:Drivers/lsm303agr/Src/lsm303agr_reg.c **** /**
2630:Drivers/lsm303agr/Src/lsm303agr_reg.c ****   * @brief  The minimum duration (LSb = 1/ODR) of the Interrupt 1 event to be
2631:Drivers/lsm303agr/Src/lsm303agr_reg.c ****   *         recognized.[get]
2632:Drivers/lsm303agr/Src/lsm303agr_reg.c ****   *
2633:Drivers/lsm303agr/Src/lsm303agr_reg.c ****   * @param  ctx    Read / write interface definitions.(ptr)
2634:Drivers/lsm303agr/Src/lsm303agr_reg.c ****   * @param  val    Get the values of d in reg INT2_DURATION_A.(ptr)
2635:Drivers/lsm303agr/Src/lsm303agr_reg.c ****   * @retval        Interface status (MANDATORY: return 0 -> no Error).
2636:Drivers/lsm303agr/Src/lsm303agr_reg.c ****   *
2637:Drivers/lsm303agr/Src/lsm303agr_reg.c ****   */
2638:Drivers/lsm303agr/Src/lsm303agr_reg.c **** int32_t lsm303agr_xl_int2_gen_duration_get(stmdev_ctx_t *ctx,
2639:Drivers/lsm303agr/Src/lsm303agr_reg.c ****                                            uint8_t *val)
2640:Drivers/lsm303agr/Src/lsm303agr_reg.c **** {
 6823              		.loc 1 2640 1 is_stmt 1 view -0
 6824              		.cfi_startproc
 6825              		@ args = 0, pretend = 0, frame = 8
 6826              		@ frame_needed = 0, uses_anonymous_args = 0
 6827              		.loc 1 2640 1 is_stmt 0 view .LVU1735
 6828 0000 10B5     		push	{r4, lr}
 6829              	.LCFI275:
 6830              		.cfi_def_cfa_offset 8
 6831              		.cfi_offset 4, -8
 6832              		.cfi_offset 14, -4
 6833 0002 82B0     		sub	sp, sp, #8
 6834              	.LCFI276:
 6835              		.cfi_def_cfa_offset 16
 6836 0004 0C46     		mov	r4, r1
2641:Drivers/lsm303agr/Src/lsm303agr_reg.c ****   lsm303agr_int2_duration_a_t int2_duration_a;
 6837              		.loc 1 2641 3 is_stmt 1 view .LVU1736
2642:Drivers/lsm303agr/Src/lsm303agr_reg.c ****   int32_t ret;
 6838              		.loc 1 2642 3 view .LVU1737
2643:Drivers/lsm303agr/Src/lsm303agr_reg.c **** 
2644:Drivers/lsm303agr/Src/lsm303agr_reg.c ****   ret = lsm303agr_read_reg(ctx, LSM303AGR_INT2_DURATION_A,
 6839              		.loc 1 2644 3 view .LVU1738
 6840              		.loc 1 2644 9 is_stmt 0 view .LVU1739
 6841 0006 0123     		movs	r3, #1
 6842 0008 01AA     		add	r2, sp, #4
 6843 000a 3721     		movs	r1, #55
 6844              	.LVL469:
 6845              		.loc 1 2644 9 view .LVU1740
 6846 000c FFF7FEFF 		bl	lsm303agr_read_reg
 6847              	.LVL470:
2645:Drivers/lsm303agr/Src/lsm303agr_reg.c ****                            (uint8_t *)&int2_duration_a, 1);
2646:Drivers/lsm303agr/Src/lsm303agr_reg.c ****   *val = int2_duration_a.d;
 6848              		.loc 1 2646 3 is_stmt 1 view .LVU1741
 6849              		.loc 1 2646 25 is_stmt 0 view .LVU1742
 6850 0010 9DF80430 		ldrb	r3, [sp, #4]	@ zero_extendqisi2
 6851 0014 C3F30603 		ubfx	r3, r3, #0, #7
 6852              		.loc 1 2646 8 view .LVU1743
ARM GAS  C:\Users\SF\AppData\Local\Temp\ccFGOSN0.s 			page 174


 6853 0018 2370     		strb	r3, [r4]
2647:Drivers/lsm303agr/Src/lsm303agr_reg.c **** 
2648:Drivers/lsm303agr/Src/lsm303agr_reg.c ****   return ret;
 6854              		.loc 1 2648 3 is_stmt 1 view .LVU1744
2649:Drivers/lsm303agr/Src/lsm303agr_reg.c **** }
 6855              		.loc 1 2649 1 is_stmt 0 view .LVU1745
 6856 001a 02B0     		add	sp, sp, #8
 6857              	.LCFI277:
 6858              		.cfi_def_cfa_offset 8
 6859              		@ sp needed
 6860 001c 10BD     		pop	{r4, pc}
 6861              		.loc 1 2649 1 view .LVU1746
 6862              		.cfi_endproc
 6863              	.LFE233:
 6865              		.section	.text.lsm303agr_xl_high_pass_int_conf_set,"ax",%progbits
 6866              		.align	1
 6867              		.global	lsm303agr_xl_high_pass_int_conf_set
 6868              		.syntax unified
 6869              		.thumb
 6870              		.thumb_func
 6872              	lsm303agr_xl_high_pass_int_conf_set:
 6873              	.LVL471:
 6874              	.LFB234:
2650:Drivers/lsm303agr/Src/lsm303agr_reg.c **** 
2651:Drivers/lsm303agr/Src/lsm303agr_reg.c **** /**
2652:Drivers/lsm303agr/Src/lsm303agr_reg.c ****   * @}
2653:Drivers/lsm303agr/Src/lsm303agr_reg.c ****   *
2654:Drivers/lsm303agr/Src/lsm303agr_reg.c ****   */
2655:Drivers/lsm303agr/Src/lsm303agr_reg.c **** 
2656:Drivers/lsm303agr/Src/lsm303agr_reg.c **** /**
2657:Drivers/lsm303agr/Src/lsm303agr_reg.c ****   * @addtogroup  interrupt_pins_xl
2658:Drivers/lsm303agr/Src/lsm303agr_reg.c ****   * @brief   This section group all the functions that manage interrupt
2659:Drivers/lsm303agr/Src/lsm303agr_reg.c ****   *          pins of accelerometer
2660:Drivers/lsm303agr/Src/lsm303agr_reg.c ****   * @{
2661:Drivers/lsm303agr/Src/lsm303agr_reg.c ****   *
2662:Drivers/lsm303agr/Src/lsm303agr_reg.c ****   */
2663:Drivers/lsm303agr/Src/lsm303agr_reg.c **** 
2664:Drivers/lsm303agr/Src/lsm303agr_reg.c **** /**
2665:Drivers/lsm303agr/Src/lsm303agr_reg.c ****   * @brief  High-pass filter on interrupts/tap generator.[set]
2666:Drivers/lsm303agr/Src/lsm303agr_reg.c ****   *
2667:Drivers/lsm303agr/Src/lsm303agr_reg.c ****   * @param  ctx    Read / write interface definitions.(ptr)
2668:Drivers/lsm303agr/Src/lsm303agr_reg.c ****   * @param  val    Change the values of hp in reg CTRL_REG2_A
2669:Drivers/lsm303agr/Src/lsm303agr_reg.c ****   * @retval        Interface status (MANDATORY: return 0 -> no Error).
2670:Drivers/lsm303agr/Src/lsm303agr_reg.c ****   *
2671:Drivers/lsm303agr/Src/lsm303agr_reg.c ****   */
2672:Drivers/lsm303agr/Src/lsm303agr_reg.c **** int32_t lsm303agr_xl_high_pass_int_conf_set(stmdev_ctx_t *ctx,
2673:Drivers/lsm303agr/Src/lsm303agr_reg.c ****                                             lsm303agr_hp_a_t val)
2674:Drivers/lsm303agr/Src/lsm303agr_reg.c **** {
 6875              		.loc 1 2674 1 is_stmt 1 view -0
 6876              		.cfi_startproc
 6877              		@ args = 0, pretend = 0, frame = 8
 6878              		@ frame_needed = 0, uses_anonymous_args = 0
 6879              		.loc 1 2674 1 is_stmt 0 view .LVU1748
 6880 0000 30B5     		push	{r4, r5, lr}
 6881              	.LCFI278:
 6882              		.cfi_def_cfa_offset 12
 6883              		.cfi_offset 4, -12
ARM GAS  C:\Users\SF\AppData\Local\Temp\ccFGOSN0.s 			page 175


 6884              		.cfi_offset 5, -8
 6885              		.cfi_offset 14, -4
 6886 0002 83B0     		sub	sp, sp, #12
 6887              	.LCFI279:
 6888              		.cfi_def_cfa_offset 24
 6889 0004 0446     		mov	r4, r0
 6890 0006 0D46     		mov	r5, r1
2675:Drivers/lsm303agr/Src/lsm303agr_reg.c ****   lsm303agr_ctrl_reg2_a_t ctrl_reg2_a;
 6891              		.loc 1 2675 3 is_stmt 1 view .LVU1749
2676:Drivers/lsm303agr/Src/lsm303agr_reg.c ****   int32_t ret;
 6892              		.loc 1 2676 3 view .LVU1750
2677:Drivers/lsm303agr/Src/lsm303agr_reg.c **** 
2678:Drivers/lsm303agr/Src/lsm303agr_reg.c ****   ret = lsm303agr_read_reg(ctx, LSM303AGR_CTRL_REG2_A,
 6893              		.loc 1 2678 3 view .LVU1751
 6894              		.loc 1 2678 9 is_stmt 0 view .LVU1752
 6895 0008 0123     		movs	r3, #1
 6896 000a 01AA     		add	r2, sp, #4
 6897 000c 2121     		movs	r1, #33
 6898              	.LVL472:
 6899              		.loc 1 2678 9 view .LVU1753
 6900 000e FFF7FEFF 		bl	lsm303agr_read_reg
 6901              	.LVL473:
2679:Drivers/lsm303agr/Src/lsm303agr_reg.c ****                            (uint8_t *)&ctrl_reg2_a, 1);
2680:Drivers/lsm303agr/Src/lsm303agr_reg.c **** 
2681:Drivers/lsm303agr/Src/lsm303agr_reg.c ****   if (ret == 0)
 6902              		.loc 1 2681 3 is_stmt 1 view .LVU1754
 6903              		.loc 1 2681 6 is_stmt 0 view .LVU1755
 6904 0012 08B1     		cbz	r0, .L400
 6905              	.LVL474:
 6906              	.L397:
2682:Drivers/lsm303agr/Src/lsm303agr_reg.c ****   {
2683:Drivers/lsm303agr/Src/lsm303agr_reg.c ****     ctrl_reg2_a.hp = (uint8_t)val;
2684:Drivers/lsm303agr/Src/lsm303agr_reg.c ****     ret = lsm303agr_write_reg(ctx, LSM303AGR_CTRL_REG2_A,
2685:Drivers/lsm303agr/Src/lsm303agr_reg.c ****                               (uint8_t *)&ctrl_reg2_a, 1);
2686:Drivers/lsm303agr/Src/lsm303agr_reg.c ****   }
2687:Drivers/lsm303agr/Src/lsm303agr_reg.c **** 
2688:Drivers/lsm303agr/Src/lsm303agr_reg.c ****   return ret;
2689:Drivers/lsm303agr/Src/lsm303agr_reg.c **** }
 6907              		.loc 1 2689 1 view .LVU1756
 6908 0014 03B0     		add	sp, sp, #12
 6909              	.LCFI280:
 6910              		.cfi_remember_state
 6911              		.cfi_def_cfa_offset 12
 6912              		@ sp needed
 6913 0016 30BD     		pop	{r4, r5, pc}
 6914              	.LVL475:
 6915              	.L400:
 6916              	.LCFI281:
 6917              		.cfi_restore_state
2683:Drivers/lsm303agr/Src/lsm303agr_reg.c ****     ret = lsm303agr_write_reg(ctx, LSM303AGR_CTRL_REG2_A,
 6918              		.loc 1 2683 5 is_stmt 1 view .LVU1757
2683:Drivers/lsm303agr/Src/lsm303agr_reg.c ****     ret = lsm303agr_write_reg(ctx, LSM303AGR_CTRL_REG2_A,
 6919              		.loc 1 2683 20 is_stmt 0 view .LVU1758
 6920 0018 9DF80430 		ldrb	r3, [sp, #4]	@ zero_extendqisi2
 6921 001c 65F30203 		bfi	r3, r5, #0, #3
 6922 0020 8DF80430 		strb	r3, [sp, #4]
2684:Drivers/lsm303agr/Src/lsm303agr_reg.c ****                               (uint8_t *)&ctrl_reg2_a, 1);
ARM GAS  C:\Users\SF\AppData\Local\Temp\ccFGOSN0.s 			page 176


 6923              		.loc 1 2684 5 is_stmt 1 view .LVU1759
2684:Drivers/lsm303agr/Src/lsm303agr_reg.c ****                               (uint8_t *)&ctrl_reg2_a, 1);
 6924              		.loc 1 2684 11 is_stmt 0 view .LVU1760
 6925 0024 0123     		movs	r3, #1
 6926              	.LVL476:
2684:Drivers/lsm303agr/Src/lsm303agr_reg.c ****                               (uint8_t *)&ctrl_reg2_a, 1);
 6927              		.loc 1 2684 11 view .LVU1761
 6928 0026 01AA     		add	r2, sp, #4
 6929 0028 2121     		movs	r1, #33
 6930 002a 2046     		mov	r0, r4
 6931 002c FFF7FEFF 		bl	lsm303agr_write_reg
 6932              	.LVL477:
2688:Drivers/lsm303agr/Src/lsm303agr_reg.c **** }
 6933              		.loc 1 2688 3 is_stmt 1 view .LVU1762
2688:Drivers/lsm303agr/Src/lsm303agr_reg.c **** }
 6934              		.loc 1 2688 10 is_stmt 0 view .LVU1763
 6935 0030 F0E7     		b	.L397
 6936              		.cfi_endproc
 6937              	.LFE234:
 6939              		.section	.text.lsm303agr_xl_high_pass_int_conf_get,"ax",%progbits
 6940              		.align	1
 6941              		.global	lsm303agr_xl_high_pass_int_conf_get
 6942              		.syntax unified
 6943              		.thumb
 6944              		.thumb_func
 6946              	lsm303agr_xl_high_pass_int_conf_get:
 6947              	.LVL478:
 6948              	.LFB235:
2690:Drivers/lsm303agr/Src/lsm303agr_reg.c **** 
2691:Drivers/lsm303agr/Src/lsm303agr_reg.c **** /**
2692:Drivers/lsm303agr/Src/lsm303agr_reg.c ****   * @brief  High-pass filter on interrupts/tap generator.[get]
2693:Drivers/lsm303agr/Src/lsm303agr_reg.c ****   *
2694:Drivers/lsm303agr/Src/lsm303agr_reg.c ****   * @param  ctx    Read / write interface definitions.(ptr)
2695:Drivers/lsm303agr/Src/lsm303agr_reg.c ****   * @param  val    Get the values of hp in reg CTRL_REG2_A.(ptr)
2696:Drivers/lsm303agr/Src/lsm303agr_reg.c ****   * @retval        Interface status (MANDATORY: return 0 -> no Error).
2697:Drivers/lsm303agr/Src/lsm303agr_reg.c ****   *
2698:Drivers/lsm303agr/Src/lsm303agr_reg.c ****   */
2699:Drivers/lsm303agr/Src/lsm303agr_reg.c **** int32_t lsm303agr_xl_high_pass_int_conf_get(stmdev_ctx_t *ctx,
2700:Drivers/lsm303agr/Src/lsm303agr_reg.c ****                                             lsm303agr_hp_a_t *val)
2701:Drivers/lsm303agr/Src/lsm303agr_reg.c **** {
 6949              		.loc 1 2701 1 is_stmt 1 view -0
 6950              		.cfi_startproc
 6951              		@ args = 0, pretend = 0, frame = 8
 6952              		@ frame_needed = 0, uses_anonymous_args = 0
 6953              		.loc 1 2701 1 is_stmt 0 view .LVU1765
 6954 0000 10B5     		push	{r4, lr}
 6955              	.LCFI282:
 6956              		.cfi_def_cfa_offset 8
 6957              		.cfi_offset 4, -8
 6958              		.cfi_offset 14, -4
 6959 0002 82B0     		sub	sp, sp, #8
 6960              	.LCFI283:
 6961              		.cfi_def_cfa_offset 16
 6962 0004 0C46     		mov	r4, r1
2702:Drivers/lsm303agr/Src/lsm303agr_reg.c ****   lsm303agr_ctrl_reg2_a_t ctrl_reg2_a;
 6963              		.loc 1 2702 3 is_stmt 1 view .LVU1766
2703:Drivers/lsm303agr/Src/lsm303agr_reg.c ****   int32_t ret;
ARM GAS  C:\Users\SF\AppData\Local\Temp\ccFGOSN0.s 			page 177


 6964              		.loc 1 2703 3 view .LVU1767
2704:Drivers/lsm303agr/Src/lsm303agr_reg.c **** 
2705:Drivers/lsm303agr/Src/lsm303agr_reg.c ****   ret = lsm303agr_read_reg(ctx, LSM303AGR_CTRL_REG2_A,
 6965              		.loc 1 2705 3 view .LVU1768
 6966              		.loc 1 2705 9 is_stmt 0 view .LVU1769
 6967 0006 0123     		movs	r3, #1
 6968 0008 01AA     		add	r2, sp, #4
 6969 000a 2121     		movs	r1, #33
 6970              	.LVL479:
 6971              		.loc 1 2705 9 view .LVU1770
 6972 000c FFF7FEFF 		bl	lsm303agr_read_reg
 6973              	.LVL480:
2706:Drivers/lsm303agr/Src/lsm303agr_reg.c ****                            (uint8_t *)&ctrl_reg2_a, 1);
2707:Drivers/lsm303agr/Src/lsm303agr_reg.c **** 
2708:Drivers/lsm303agr/Src/lsm303agr_reg.c ****   switch (ctrl_reg2_a.hp)
 6974              		.loc 1 2708 3 is_stmt 1 view .LVU1771
 6975              		.loc 1 2708 22 is_stmt 0 view .LVU1772
 6976 0010 9DF80430 		ldrb	r3, [sp, #4]	@ zero_extendqisi2
 6977 0014 03F00703 		and	r3, r3, #7
 6978              		.loc 1 2708 3 view .LVU1773
 6979 0018 072B     		cmp	r3, #7
 6980 001a 1ED8     		bhi	.L402
 6981 001c DFE803F0 		tbb	[pc, r3]
 6982              	.L404:
 6983 0020 04       		.byte	(.L411-.L404)/2
 6984 0021 08       		.byte	(.L410-.L404)/2
 6985 0022 0B       		.byte	(.L409-.L404)/2
 6986 0023 11       		.byte	(.L408-.L404)/2
 6987 0024 0E       		.byte	(.L407-.L404)/2
 6988 0025 14       		.byte	(.L406-.L404)/2
 6989 0026 17       		.byte	(.L405-.L404)/2
 6990 0027 1A       		.byte	(.L403-.L404)/2
 6991              		.p2align 1
 6992              	.L411:
2709:Drivers/lsm303agr/Src/lsm303agr_reg.c ****   {
2710:Drivers/lsm303agr/Src/lsm303agr_reg.c ****     case LSM303AGR_DISC_FROM_INT_GENERATOR:
2711:Drivers/lsm303agr/Src/lsm303agr_reg.c ****       *val = LSM303AGR_DISC_FROM_INT_GENERATOR;
 6993              		.loc 1 2711 7 is_stmt 1 view .LVU1774
 6994              		.loc 1 2711 12 is_stmt 0 view .LVU1775
 6995 0028 0023     		movs	r3, #0
 6996 002a 2370     		strb	r3, [r4]
2712:Drivers/lsm303agr/Src/lsm303agr_reg.c ****       break;
 6997              		.loc 1 2712 7 is_stmt 1 view .LVU1776
 6998              	.L401:
2713:Drivers/lsm303agr/Src/lsm303agr_reg.c **** 
2714:Drivers/lsm303agr/Src/lsm303agr_reg.c ****     case LSM303AGR_ON_INT1_GEN:
2715:Drivers/lsm303agr/Src/lsm303agr_reg.c ****       *val = LSM303AGR_ON_INT1_GEN;
2716:Drivers/lsm303agr/Src/lsm303agr_reg.c ****       break;
2717:Drivers/lsm303agr/Src/lsm303agr_reg.c **** 
2718:Drivers/lsm303agr/Src/lsm303agr_reg.c ****     case LSM303AGR_ON_INT2_GEN:
2719:Drivers/lsm303agr/Src/lsm303agr_reg.c ****       *val = LSM303AGR_ON_INT2_GEN;
2720:Drivers/lsm303agr/Src/lsm303agr_reg.c ****       break;
2721:Drivers/lsm303agr/Src/lsm303agr_reg.c **** 
2722:Drivers/lsm303agr/Src/lsm303agr_reg.c ****     case LSM303AGR_ON_TAP_GEN:
2723:Drivers/lsm303agr/Src/lsm303agr_reg.c ****       *val = LSM303AGR_ON_TAP_GEN;
2724:Drivers/lsm303agr/Src/lsm303agr_reg.c ****       break;
2725:Drivers/lsm303agr/Src/lsm303agr_reg.c **** 
ARM GAS  C:\Users\SF\AppData\Local\Temp\ccFGOSN0.s 			page 178


2726:Drivers/lsm303agr/Src/lsm303agr_reg.c ****     case LSM303AGR_ON_INT1_INT2_GEN:
2727:Drivers/lsm303agr/Src/lsm303agr_reg.c ****       *val = LSM303AGR_ON_INT1_INT2_GEN;
2728:Drivers/lsm303agr/Src/lsm303agr_reg.c ****       break;
2729:Drivers/lsm303agr/Src/lsm303agr_reg.c **** 
2730:Drivers/lsm303agr/Src/lsm303agr_reg.c ****     case LSM303AGR_ON_INT1_TAP_GEN:
2731:Drivers/lsm303agr/Src/lsm303agr_reg.c ****       *val = LSM303AGR_ON_INT1_TAP_GEN;
2732:Drivers/lsm303agr/Src/lsm303agr_reg.c ****       break;
2733:Drivers/lsm303agr/Src/lsm303agr_reg.c **** 
2734:Drivers/lsm303agr/Src/lsm303agr_reg.c ****     case LSM303AGR_ON_INT2_TAP_GEN:
2735:Drivers/lsm303agr/Src/lsm303agr_reg.c ****       *val = LSM303AGR_ON_INT2_TAP_GEN;
2736:Drivers/lsm303agr/Src/lsm303agr_reg.c ****       break;
2737:Drivers/lsm303agr/Src/lsm303agr_reg.c **** 
2738:Drivers/lsm303agr/Src/lsm303agr_reg.c ****     case LSM303AGR_ON_INT1_INT2_TAP_GEN:
2739:Drivers/lsm303agr/Src/lsm303agr_reg.c ****       *val = LSM303AGR_ON_INT1_INT2_TAP_GEN;
2740:Drivers/lsm303agr/Src/lsm303agr_reg.c ****       break;
2741:Drivers/lsm303agr/Src/lsm303agr_reg.c **** 
2742:Drivers/lsm303agr/Src/lsm303agr_reg.c ****     default:
2743:Drivers/lsm303agr/Src/lsm303agr_reg.c ****       *val = LSM303AGR_DISC_FROM_INT_GENERATOR;
2744:Drivers/lsm303agr/Src/lsm303agr_reg.c ****       break;
2745:Drivers/lsm303agr/Src/lsm303agr_reg.c ****   }
2746:Drivers/lsm303agr/Src/lsm303agr_reg.c **** 
2747:Drivers/lsm303agr/Src/lsm303agr_reg.c ****   return ret;
2748:Drivers/lsm303agr/Src/lsm303agr_reg.c **** }
 6999              		.loc 1 2748 1 is_stmt 0 view .LVU1777
 7000 002c 02B0     		add	sp, sp, #8
 7001              	.LCFI284:
 7002              		.cfi_remember_state
 7003              		.cfi_def_cfa_offset 8
 7004              		@ sp needed
 7005 002e 10BD     		pop	{r4, pc}
 7006              	.LVL481:
 7007              	.L410:
 7008              	.LCFI285:
 7009              		.cfi_restore_state
2715:Drivers/lsm303agr/Src/lsm303agr_reg.c ****       break;
 7010              		.loc 1 2715 7 is_stmt 1 view .LVU1778
2715:Drivers/lsm303agr/Src/lsm303agr_reg.c ****       break;
 7011              		.loc 1 2715 12 is_stmt 0 view .LVU1779
 7012 0030 0123     		movs	r3, #1
 7013 0032 2370     		strb	r3, [r4]
2716:Drivers/lsm303agr/Src/lsm303agr_reg.c **** 
 7014              		.loc 1 2716 7 is_stmt 1 view .LVU1780
 7015 0034 FAE7     		b	.L401
 7016              	.L409:
2719:Drivers/lsm303agr/Src/lsm303agr_reg.c ****       break;
 7017              		.loc 1 2719 7 view .LVU1781
2719:Drivers/lsm303agr/Src/lsm303agr_reg.c ****       break;
 7018              		.loc 1 2719 12 is_stmt 0 view .LVU1782
 7019 0036 0223     		movs	r3, #2
 7020 0038 2370     		strb	r3, [r4]
2720:Drivers/lsm303agr/Src/lsm303agr_reg.c **** 
 7021              		.loc 1 2720 7 is_stmt 1 view .LVU1783
 7022 003a F7E7     		b	.L401
 7023              	.L407:
2723:Drivers/lsm303agr/Src/lsm303agr_reg.c ****       break;
 7024              		.loc 1 2723 7 view .LVU1784
2723:Drivers/lsm303agr/Src/lsm303agr_reg.c ****       break;
ARM GAS  C:\Users\SF\AppData\Local\Temp\ccFGOSN0.s 			page 179


 7025              		.loc 1 2723 12 is_stmt 0 view .LVU1785
 7026 003c 0423     		movs	r3, #4
 7027 003e 2370     		strb	r3, [r4]
2724:Drivers/lsm303agr/Src/lsm303agr_reg.c **** 
 7028              		.loc 1 2724 7 is_stmt 1 view .LVU1786
 7029 0040 F4E7     		b	.L401
 7030              	.L408:
2727:Drivers/lsm303agr/Src/lsm303agr_reg.c ****       break;
 7031              		.loc 1 2727 7 view .LVU1787
2727:Drivers/lsm303agr/Src/lsm303agr_reg.c ****       break;
 7032              		.loc 1 2727 12 is_stmt 0 view .LVU1788
 7033 0042 0323     		movs	r3, #3
 7034 0044 2370     		strb	r3, [r4]
2728:Drivers/lsm303agr/Src/lsm303agr_reg.c **** 
 7035              		.loc 1 2728 7 is_stmt 1 view .LVU1789
 7036 0046 F1E7     		b	.L401
 7037              	.L406:
2731:Drivers/lsm303agr/Src/lsm303agr_reg.c ****       break;
 7038              		.loc 1 2731 7 view .LVU1790
2731:Drivers/lsm303agr/Src/lsm303agr_reg.c ****       break;
 7039              		.loc 1 2731 12 is_stmt 0 view .LVU1791
 7040 0048 0523     		movs	r3, #5
 7041 004a 2370     		strb	r3, [r4]
2732:Drivers/lsm303agr/Src/lsm303agr_reg.c **** 
 7042              		.loc 1 2732 7 is_stmt 1 view .LVU1792
 7043 004c EEE7     		b	.L401
 7044              	.L405:
2735:Drivers/lsm303agr/Src/lsm303agr_reg.c ****       break;
 7045              		.loc 1 2735 7 view .LVU1793
2735:Drivers/lsm303agr/Src/lsm303agr_reg.c ****       break;
 7046              		.loc 1 2735 12 is_stmt 0 view .LVU1794
 7047 004e 0623     		movs	r3, #6
 7048 0050 2370     		strb	r3, [r4]
2736:Drivers/lsm303agr/Src/lsm303agr_reg.c **** 
 7049              		.loc 1 2736 7 is_stmt 1 view .LVU1795
 7050 0052 EBE7     		b	.L401
 7051              	.L403:
2739:Drivers/lsm303agr/Src/lsm303agr_reg.c ****       break;
 7052              		.loc 1 2739 7 view .LVU1796
2739:Drivers/lsm303agr/Src/lsm303agr_reg.c ****       break;
 7053              		.loc 1 2739 12 is_stmt 0 view .LVU1797
 7054 0054 0723     		movs	r3, #7
 7055 0056 2370     		strb	r3, [r4]
2740:Drivers/lsm303agr/Src/lsm303agr_reg.c **** 
 7056              		.loc 1 2740 7 is_stmt 1 view .LVU1798
 7057 0058 E8E7     		b	.L401
 7058              	.L402:
2743:Drivers/lsm303agr/Src/lsm303agr_reg.c ****       break;
 7059              		.loc 1 2743 7 view .LVU1799
2743:Drivers/lsm303agr/Src/lsm303agr_reg.c ****       break;
 7060              		.loc 1 2743 12 is_stmt 0 view .LVU1800
 7061 005a 0023     		movs	r3, #0
 7062 005c 2370     		strb	r3, [r4]
2744:Drivers/lsm303agr/Src/lsm303agr_reg.c ****   }
 7063              		.loc 1 2744 7 is_stmt 1 view .LVU1801
2747:Drivers/lsm303agr/Src/lsm303agr_reg.c **** }
 7064              		.loc 1 2747 3 view .LVU1802
ARM GAS  C:\Users\SF\AppData\Local\Temp\ccFGOSN0.s 			page 180


2747:Drivers/lsm303agr/Src/lsm303agr_reg.c **** }
 7065              		.loc 1 2747 10 is_stmt 0 view .LVU1803
 7066 005e E5E7     		b	.L401
 7067              		.cfi_endproc
 7068              	.LFE235:
 7070              		.section	.text.lsm303agr_xl_pin_int1_config_set,"ax",%progbits
 7071              		.align	1
 7072              		.global	lsm303agr_xl_pin_int1_config_set
 7073              		.syntax unified
 7074              		.thumb
 7075              		.thumb_func
 7077              	lsm303agr_xl_pin_int1_config_set:
 7078              	.LVL482:
 7079              	.LFB236:
2749:Drivers/lsm303agr/Src/lsm303agr_reg.c **** 
2750:Drivers/lsm303agr/Src/lsm303agr_reg.c **** /**
2751:Drivers/lsm303agr/Src/lsm303agr_reg.c ****   * @brief  Int1 pin routing configuration register.[set]
2752:Drivers/lsm303agr/Src/lsm303agr_reg.c ****   *
2753:Drivers/lsm303agr/Src/lsm303agr_reg.c ****   * @param  ctx    Read / write interface definitions.(ptr)
2754:Drivers/lsm303agr/Src/lsm303agr_reg.c ****   * @param  val    Change registers CTRL_REG3_A.(ptr)
2755:Drivers/lsm303agr/Src/lsm303agr_reg.c ****   * @retval        Interface status (MANDATORY: return 0 -> no Error).
2756:Drivers/lsm303agr/Src/lsm303agr_reg.c ****   *
2757:Drivers/lsm303agr/Src/lsm303agr_reg.c ****   */
2758:Drivers/lsm303agr/Src/lsm303agr_reg.c **** int32_t lsm303agr_xl_pin_int1_config_set(stmdev_ctx_t *ctx,
2759:Drivers/lsm303agr/Src/lsm303agr_reg.c ****                                          lsm303agr_ctrl_reg3_a_t *val)
2760:Drivers/lsm303agr/Src/lsm303agr_reg.c **** {
 7080              		.loc 1 2760 1 is_stmt 1 view -0
 7081              		.cfi_startproc
 7082              		@ args = 0, pretend = 0, frame = 0
 7083              		@ frame_needed = 0, uses_anonymous_args = 0
 7084              		.loc 1 2760 1 is_stmt 0 view .LVU1805
 7085 0000 08B5     		push	{r3, lr}
 7086              	.LCFI286:
 7087              		.cfi_def_cfa_offset 8
 7088              		.cfi_offset 3, -8
 7089              		.cfi_offset 14, -4
 7090 0002 0A46     		mov	r2, r1
2761:Drivers/lsm303agr/Src/lsm303agr_reg.c ****   int32_t ret;
 7091              		.loc 1 2761 3 is_stmt 1 view .LVU1806
2762:Drivers/lsm303agr/Src/lsm303agr_reg.c **** 
2763:Drivers/lsm303agr/Src/lsm303agr_reg.c ****   ret = lsm303agr_write_reg(ctx, LSM303AGR_CTRL_REG3_A, (uint8_t *) val, 1);
 7092              		.loc 1 2763 3 view .LVU1807
 7093              		.loc 1 2763 9 is_stmt 0 view .LVU1808
 7094 0004 0123     		movs	r3, #1
 7095 0006 2221     		movs	r1, #34
 7096              	.LVL483:
 7097              		.loc 1 2763 9 view .LVU1809
 7098 0008 FFF7FEFF 		bl	lsm303agr_write_reg
 7099              	.LVL484:
2764:Drivers/lsm303agr/Src/lsm303agr_reg.c **** 
2765:Drivers/lsm303agr/Src/lsm303agr_reg.c ****   return ret;
 7100              		.loc 1 2765 3 is_stmt 1 view .LVU1810
2766:Drivers/lsm303agr/Src/lsm303agr_reg.c **** }
 7101              		.loc 1 2766 1 is_stmt 0 view .LVU1811
 7102 000c 08BD     		pop	{r3, pc}
 7103              		.cfi_endproc
 7104              	.LFE236:
ARM GAS  C:\Users\SF\AppData\Local\Temp\ccFGOSN0.s 			page 181


 7106              		.section	.text.lsm303agr_xl_pin_int1_config_get,"ax",%progbits
 7107              		.align	1
 7108              		.global	lsm303agr_xl_pin_int1_config_get
 7109              		.syntax unified
 7110              		.thumb
 7111              		.thumb_func
 7113              	lsm303agr_xl_pin_int1_config_get:
 7114              	.LVL485:
 7115              	.LFB237:
2767:Drivers/lsm303agr/Src/lsm303agr_reg.c **** 
2768:Drivers/lsm303agr/Src/lsm303agr_reg.c **** /**
2769:Drivers/lsm303agr/Src/lsm303agr_reg.c ****   * @brief  Int1 pin routing configuration register.[get]
2770:Drivers/lsm303agr/Src/lsm303agr_reg.c ****   *
2771:Drivers/lsm303agr/Src/lsm303agr_reg.c ****   * @param  ctx    Read / write interface definitions.(ptr)
2772:Drivers/lsm303agr/Src/lsm303agr_reg.c ****   * @param  val    Get registers CTRL_REG3_A.(ptr)
2773:Drivers/lsm303agr/Src/lsm303agr_reg.c ****   * @retval        Interface status (MANDATORY: return 0 -> no Error).
2774:Drivers/lsm303agr/Src/lsm303agr_reg.c ****   *
2775:Drivers/lsm303agr/Src/lsm303agr_reg.c ****   */
2776:Drivers/lsm303agr/Src/lsm303agr_reg.c **** int32_t lsm303agr_xl_pin_int1_config_get(stmdev_ctx_t *ctx,
2777:Drivers/lsm303agr/Src/lsm303agr_reg.c ****                                          lsm303agr_ctrl_reg3_a_t *val)
2778:Drivers/lsm303agr/Src/lsm303agr_reg.c **** {
 7116              		.loc 1 2778 1 is_stmt 1 view -0
 7117              		.cfi_startproc
 7118              		@ args = 0, pretend = 0, frame = 0
 7119              		@ frame_needed = 0, uses_anonymous_args = 0
 7120              		.loc 1 2778 1 is_stmt 0 view .LVU1813
 7121 0000 08B5     		push	{r3, lr}
 7122              	.LCFI287:
 7123              		.cfi_def_cfa_offset 8
 7124              		.cfi_offset 3, -8
 7125              		.cfi_offset 14, -4
 7126 0002 0A46     		mov	r2, r1
2779:Drivers/lsm303agr/Src/lsm303agr_reg.c ****   int32_t ret;
 7127              		.loc 1 2779 3 is_stmt 1 view .LVU1814
2780:Drivers/lsm303agr/Src/lsm303agr_reg.c **** 
2781:Drivers/lsm303agr/Src/lsm303agr_reg.c ****   ret = lsm303agr_read_reg(ctx, LSM303AGR_CTRL_REG3_A, (uint8_t *) val, 1);
 7128              		.loc 1 2781 3 view .LVU1815
 7129              		.loc 1 2781 9 is_stmt 0 view .LVU1816
 7130 0004 0123     		movs	r3, #1
 7131 0006 2221     		movs	r1, #34
 7132              	.LVL486:
 7133              		.loc 1 2781 9 view .LVU1817
 7134 0008 FFF7FEFF 		bl	lsm303agr_read_reg
 7135              	.LVL487:
2782:Drivers/lsm303agr/Src/lsm303agr_reg.c **** 
2783:Drivers/lsm303agr/Src/lsm303agr_reg.c ****   return ret;
 7136              		.loc 1 2783 3 is_stmt 1 view .LVU1818
2784:Drivers/lsm303agr/Src/lsm303agr_reg.c **** }
 7137              		.loc 1 2784 1 is_stmt 0 view .LVU1819
 7138 000c 08BD     		pop	{r3, pc}
 7139              		.cfi_endproc
 7140              	.LFE237:
 7142              		.section	.text.lsm303agr_xl_int2_pin_detect_4d_set,"ax",%progbits
 7143              		.align	1
 7144              		.global	lsm303agr_xl_int2_pin_detect_4d_set
 7145              		.syntax unified
 7146              		.thumb
ARM GAS  C:\Users\SF\AppData\Local\Temp\ccFGOSN0.s 			page 182


 7147              		.thumb_func
 7149              	lsm303agr_xl_int2_pin_detect_4d_set:
 7150              	.LVL488:
 7151              	.LFB238:
2785:Drivers/lsm303agr/Src/lsm303agr_reg.c **** 
2786:Drivers/lsm303agr/Src/lsm303agr_reg.c **** /**
2787:Drivers/lsm303agr/Src/lsm303agr_reg.c ****   * @brief  4D detection is enabled on INT2 pin when 6D bit on
2788:Drivers/lsm303agr/Src/lsm303agr_reg.c ****   *         INT2_CFG_A (34h) is set to 1.[set]
2789:Drivers/lsm303agr/Src/lsm303agr_reg.c ****   *
2790:Drivers/lsm303agr/Src/lsm303agr_reg.c ****   * @param  ctx    Read / write interface definitions.(ptr)
2791:Drivers/lsm303agr/Src/lsm303agr_reg.c ****   * @param  val    Change the values of d4d_int2 in reg CTRL_REG5_A
2792:Drivers/lsm303agr/Src/lsm303agr_reg.c ****   * @retval        Interface status (MANDATORY: return 0 -> no Error).
2793:Drivers/lsm303agr/Src/lsm303agr_reg.c ****   *
2794:Drivers/lsm303agr/Src/lsm303agr_reg.c ****   */
2795:Drivers/lsm303agr/Src/lsm303agr_reg.c **** int32_t lsm303agr_xl_int2_pin_detect_4d_set(stmdev_ctx_t *ctx,
2796:Drivers/lsm303agr/Src/lsm303agr_reg.c ****                                             uint8_t val)
2797:Drivers/lsm303agr/Src/lsm303agr_reg.c **** {
 7152              		.loc 1 2797 1 is_stmt 1 view -0
 7153              		.cfi_startproc
 7154              		@ args = 0, pretend = 0, frame = 8
 7155              		@ frame_needed = 0, uses_anonymous_args = 0
 7156              		.loc 1 2797 1 is_stmt 0 view .LVU1821
 7157 0000 30B5     		push	{r4, r5, lr}
 7158              	.LCFI288:
 7159              		.cfi_def_cfa_offset 12
 7160              		.cfi_offset 4, -12
 7161              		.cfi_offset 5, -8
 7162              		.cfi_offset 14, -4
 7163 0002 83B0     		sub	sp, sp, #12
 7164              	.LCFI289:
 7165              		.cfi_def_cfa_offset 24
 7166 0004 0446     		mov	r4, r0
 7167 0006 0D46     		mov	r5, r1
2798:Drivers/lsm303agr/Src/lsm303agr_reg.c ****   lsm303agr_ctrl_reg5_a_t ctrl_reg5_a;
 7168              		.loc 1 2798 3 is_stmt 1 view .LVU1822
2799:Drivers/lsm303agr/Src/lsm303agr_reg.c ****   int32_t ret;
 7169              		.loc 1 2799 3 view .LVU1823
2800:Drivers/lsm303agr/Src/lsm303agr_reg.c **** 
2801:Drivers/lsm303agr/Src/lsm303agr_reg.c ****   ret = lsm303agr_read_reg(ctx, LSM303AGR_CTRL_REG5_A,
 7170              		.loc 1 2801 3 view .LVU1824
 7171              		.loc 1 2801 9 is_stmt 0 view .LVU1825
 7172 0008 0123     		movs	r3, #1
 7173 000a 01AA     		add	r2, sp, #4
 7174 000c 2421     		movs	r1, #36
 7175              	.LVL489:
 7176              		.loc 1 2801 9 view .LVU1826
 7177 000e FFF7FEFF 		bl	lsm303agr_read_reg
 7178              	.LVL490:
2802:Drivers/lsm303agr/Src/lsm303agr_reg.c ****                            (uint8_t *)&ctrl_reg5_a, 1);
2803:Drivers/lsm303agr/Src/lsm303agr_reg.c **** 
2804:Drivers/lsm303agr/Src/lsm303agr_reg.c ****   if (ret == 0)
 7179              		.loc 1 2804 3 is_stmt 1 view .LVU1827
 7180              		.loc 1 2804 6 is_stmt 0 view .LVU1828
 7181 0012 08B1     		cbz	r0, .L421
 7182              	.LVL491:
 7183              	.L418:
2805:Drivers/lsm303agr/Src/lsm303agr_reg.c ****   {
ARM GAS  C:\Users\SF\AppData\Local\Temp\ccFGOSN0.s 			page 183


2806:Drivers/lsm303agr/Src/lsm303agr_reg.c ****     ctrl_reg5_a.d4d_int2 = (uint8_t)val;
2807:Drivers/lsm303agr/Src/lsm303agr_reg.c ****     ret = lsm303agr_write_reg(ctx, LSM303AGR_CTRL_REG5_A,
2808:Drivers/lsm303agr/Src/lsm303agr_reg.c ****                               (uint8_t *)&ctrl_reg5_a, 1);
2809:Drivers/lsm303agr/Src/lsm303agr_reg.c ****   }
2810:Drivers/lsm303agr/Src/lsm303agr_reg.c **** 
2811:Drivers/lsm303agr/Src/lsm303agr_reg.c ****   return ret;
2812:Drivers/lsm303agr/Src/lsm303agr_reg.c **** }
 7184              		.loc 1 2812 1 view .LVU1829
 7185 0014 03B0     		add	sp, sp, #12
 7186              	.LCFI290:
 7187              		.cfi_remember_state
 7188              		.cfi_def_cfa_offset 12
 7189              		@ sp needed
 7190 0016 30BD     		pop	{r4, r5, pc}
 7191              	.LVL492:
 7192              	.L421:
 7193              	.LCFI291:
 7194              		.cfi_restore_state
2806:Drivers/lsm303agr/Src/lsm303agr_reg.c ****     ret = lsm303agr_write_reg(ctx, LSM303AGR_CTRL_REG5_A,
 7195              		.loc 1 2806 5 is_stmt 1 view .LVU1830
2806:Drivers/lsm303agr/Src/lsm303agr_reg.c ****     ret = lsm303agr_write_reg(ctx, LSM303AGR_CTRL_REG5_A,
 7196              		.loc 1 2806 26 is_stmt 0 view .LVU1831
 7197 0018 9DF80430 		ldrb	r3, [sp, #4]	@ zero_extendqisi2
 7198 001c 65F30003 		bfi	r3, r5, #0, #1
 7199 0020 8DF80430 		strb	r3, [sp, #4]
2807:Drivers/lsm303agr/Src/lsm303agr_reg.c ****                               (uint8_t *)&ctrl_reg5_a, 1);
 7200              		.loc 1 2807 5 is_stmt 1 view .LVU1832
2807:Drivers/lsm303agr/Src/lsm303agr_reg.c ****                               (uint8_t *)&ctrl_reg5_a, 1);
 7201              		.loc 1 2807 11 is_stmt 0 view .LVU1833
 7202 0024 0123     		movs	r3, #1
 7203              	.LVL493:
2807:Drivers/lsm303agr/Src/lsm303agr_reg.c ****                               (uint8_t *)&ctrl_reg5_a, 1);
 7204              		.loc 1 2807 11 view .LVU1834
 7205 0026 01AA     		add	r2, sp, #4
 7206 0028 2421     		movs	r1, #36
 7207 002a 2046     		mov	r0, r4
 7208 002c FFF7FEFF 		bl	lsm303agr_write_reg
 7209              	.LVL494:
2811:Drivers/lsm303agr/Src/lsm303agr_reg.c **** }
 7210              		.loc 1 2811 3 is_stmt 1 view .LVU1835
2811:Drivers/lsm303agr/Src/lsm303agr_reg.c **** }
 7211              		.loc 1 2811 10 is_stmt 0 view .LVU1836
 7212 0030 F0E7     		b	.L418
 7213              		.cfi_endproc
 7214              	.LFE238:
 7216              		.section	.text.lsm303agr_xl_int2_pin_detect_4d_get,"ax",%progbits
 7217              		.align	1
 7218              		.global	lsm303agr_xl_int2_pin_detect_4d_get
 7219              		.syntax unified
 7220              		.thumb
 7221              		.thumb_func
 7223              	lsm303agr_xl_int2_pin_detect_4d_get:
 7224              	.LVL495:
 7225              	.LFB239:
2813:Drivers/lsm303agr/Src/lsm303agr_reg.c **** 
2814:Drivers/lsm303agr/Src/lsm303agr_reg.c **** /**
2815:Drivers/lsm303agr/Src/lsm303agr_reg.c ****   * @brief  4D detection is enabled on INT2 pin when 6D bit on
ARM GAS  C:\Users\SF\AppData\Local\Temp\ccFGOSN0.s 			page 184


2816:Drivers/lsm303agr/Src/lsm303agr_reg.c ****   *         INT2_CFG_A (34h) is set to 1.[get]
2817:Drivers/lsm303agr/Src/lsm303agr_reg.c ****   *
2818:Drivers/lsm303agr/Src/lsm303agr_reg.c ****   * @param  ctx    Read / write interface definitions.(ptr)
2819:Drivers/lsm303agr/Src/lsm303agr_reg.c ****   * @param  val    Change the values of d4d_int2 in reg CTRL_REG5_A.(ptr)
2820:Drivers/lsm303agr/Src/lsm303agr_reg.c ****   * @retval        Interface status (MANDATORY: return 0 -> no Error).
2821:Drivers/lsm303agr/Src/lsm303agr_reg.c ****   *
2822:Drivers/lsm303agr/Src/lsm303agr_reg.c ****   */
2823:Drivers/lsm303agr/Src/lsm303agr_reg.c **** int32_t lsm303agr_xl_int2_pin_detect_4d_get(stmdev_ctx_t *ctx,
2824:Drivers/lsm303agr/Src/lsm303agr_reg.c ****                                             uint8_t *val)
2825:Drivers/lsm303agr/Src/lsm303agr_reg.c **** {
 7226              		.loc 1 2825 1 is_stmt 1 view -0
 7227              		.cfi_startproc
 7228              		@ args = 0, pretend = 0, frame = 8
 7229              		@ frame_needed = 0, uses_anonymous_args = 0
 7230              		.loc 1 2825 1 is_stmt 0 view .LVU1838
 7231 0000 10B5     		push	{r4, lr}
 7232              	.LCFI292:
 7233              		.cfi_def_cfa_offset 8
 7234              		.cfi_offset 4, -8
 7235              		.cfi_offset 14, -4
 7236 0002 82B0     		sub	sp, sp, #8
 7237              	.LCFI293:
 7238              		.cfi_def_cfa_offset 16
 7239 0004 0C46     		mov	r4, r1
2826:Drivers/lsm303agr/Src/lsm303agr_reg.c ****   lsm303agr_ctrl_reg5_a_t ctrl_reg5_a;
 7240              		.loc 1 2826 3 is_stmt 1 view .LVU1839
2827:Drivers/lsm303agr/Src/lsm303agr_reg.c ****   int32_t ret;
 7241              		.loc 1 2827 3 view .LVU1840
2828:Drivers/lsm303agr/Src/lsm303agr_reg.c **** 
2829:Drivers/lsm303agr/Src/lsm303agr_reg.c ****   ret = lsm303agr_read_reg(ctx, LSM303AGR_CTRL_REG5_A,
 7242              		.loc 1 2829 3 view .LVU1841
 7243              		.loc 1 2829 9 is_stmt 0 view .LVU1842
 7244 0006 0123     		movs	r3, #1
 7245 0008 01AA     		add	r2, sp, #4
 7246 000a 2421     		movs	r1, #36
 7247              	.LVL496:
 7248              		.loc 1 2829 9 view .LVU1843
 7249 000c FFF7FEFF 		bl	lsm303agr_read_reg
 7250              	.LVL497:
2830:Drivers/lsm303agr/Src/lsm303agr_reg.c ****                            (uint8_t *)&ctrl_reg5_a, 1);
2831:Drivers/lsm303agr/Src/lsm303agr_reg.c ****   *val = ctrl_reg5_a.d4d_int2;
 7251              		.loc 1 2831 3 is_stmt 1 view .LVU1844
 7252              		.loc 1 2831 21 is_stmt 0 view .LVU1845
 7253 0010 9DF80430 		ldrb	r3, [sp, #4]	@ zero_extendqisi2
 7254 0014 C3F30003 		ubfx	r3, r3, #0, #1
 7255              		.loc 1 2831 8 view .LVU1846
 7256 0018 2370     		strb	r3, [r4]
2832:Drivers/lsm303agr/Src/lsm303agr_reg.c **** 
2833:Drivers/lsm303agr/Src/lsm303agr_reg.c ****   return ret;
 7257              		.loc 1 2833 3 is_stmt 1 view .LVU1847
2834:Drivers/lsm303agr/Src/lsm303agr_reg.c **** }
 7258              		.loc 1 2834 1 is_stmt 0 view .LVU1848
 7259 001a 02B0     		add	sp, sp, #8
 7260              	.LCFI294:
 7261              		.cfi_def_cfa_offset 8
 7262              		@ sp needed
 7263 001c 10BD     		pop	{r4, pc}
ARM GAS  C:\Users\SF\AppData\Local\Temp\ccFGOSN0.s 			page 185


 7264              		.loc 1 2834 1 view .LVU1849
 7265              		.cfi_endproc
 7266              	.LFE239:
 7268              		.section	.text.lsm303agr_xl_int2pin_notification_mode_set,"ax",%progbits
 7269              		.align	1
 7270              		.global	lsm303agr_xl_int2pin_notification_mode_set
 7271              		.syntax unified
 7272              		.thumb
 7273              		.thumb_func
 7275              	lsm303agr_xl_int2pin_notification_mode_set:
 7276              	.LVL498:
 7277              	.LFB240:
2835:Drivers/lsm303agr/Src/lsm303agr_reg.c **** 
2836:Drivers/lsm303agr/Src/lsm303agr_reg.c **** /**
2837:Drivers/lsm303agr/Src/lsm303agr_reg.c ****   * @brief  Latch interrupt request on INT2_SRC_A (35h) register, with
2838:Drivers/lsm303agr/Src/lsm303agr_reg.c ****   *         INT2_SRC_A (35h) register cleared by reading
2839:Drivers/lsm303agr/Src/lsm303agr_reg.c ****   *         INT2_SRC_A (35h) itself.[set]
2840:Drivers/lsm303agr/Src/lsm303agr_reg.c ****   *
2841:Drivers/lsm303agr/Src/lsm303agr_reg.c ****   * @param  ctx    Read / write interface definitions.(ptr)
2842:Drivers/lsm303agr/Src/lsm303agr_reg.c ****   * @param  val    Change the values of lir_int2 in reg CTRL_REG5_A
2843:Drivers/lsm303agr/Src/lsm303agr_reg.c ****   * @retval        Interface status (MANDATORY: return 0 -> no Error).
2844:Drivers/lsm303agr/Src/lsm303agr_reg.c ****   *
2845:Drivers/lsm303agr/Src/lsm303agr_reg.c ****   */
2846:Drivers/lsm303agr/Src/lsm303agr_reg.c **** int32_t lsm303agr_xl_int2pin_notification_mode_set(stmdev_ctx_t *ctx,
2847:Drivers/lsm303agr/Src/lsm303agr_reg.c ****                                                    lsm303agr_lir_int2_a_t val)
2848:Drivers/lsm303agr/Src/lsm303agr_reg.c **** {
 7278              		.loc 1 2848 1 is_stmt 1 view -0
 7279              		.cfi_startproc
 7280              		@ args = 0, pretend = 0, frame = 8
 7281              		@ frame_needed = 0, uses_anonymous_args = 0
 7282              		.loc 1 2848 1 is_stmt 0 view .LVU1851
 7283 0000 30B5     		push	{r4, r5, lr}
 7284              	.LCFI295:
 7285              		.cfi_def_cfa_offset 12
 7286              		.cfi_offset 4, -12
 7287              		.cfi_offset 5, -8
 7288              		.cfi_offset 14, -4
 7289 0002 83B0     		sub	sp, sp, #12
 7290              	.LCFI296:
 7291              		.cfi_def_cfa_offset 24
 7292 0004 0446     		mov	r4, r0
 7293 0006 0D46     		mov	r5, r1
2849:Drivers/lsm303agr/Src/lsm303agr_reg.c ****   lsm303agr_ctrl_reg5_a_t ctrl_reg5_a;
 7294              		.loc 1 2849 3 is_stmt 1 view .LVU1852
2850:Drivers/lsm303agr/Src/lsm303agr_reg.c ****   int32_t ret;
 7295              		.loc 1 2850 3 view .LVU1853
2851:Drivers/lsm303agr/Src/lsm303agr_reg.c **** 
2852:Drivers/lsm303agr/Src/lsm303agr_reg.c ****   ret = lsm303agr_read_reg(ctx, LSM303AGR_CTRL_REG5_A,
 7296              		.loc 1 2852 3 view .LVU1854
 7297              		.loc 1 2852 9 is_stmt 0 view .LVU1855
 7298 0008 0123     		movs	r3, #1
 7299 000a 01AA     		add	r2, sp, #4
 7300 000c 2421     		movs	r1, #36
 7301              	.LVL499:
 7302              		.loc 1 2852 9 view .LVU1856
 7303 000e FFF7FEFF 		bl	lsm303agr_read_reg
 7304              	.LVL500:
ARM GAS  C:\Users\SF\AppData\Local\Temp\ccFGOSN0.s 			page 186


2853:Drivers/lsm303agr/Src/lsm303agr_reg.c ****                            (uint8_t *)&ctrl_reg5_a, 1);
2854:Drivers/lsm303agr/Src/lsm303agr_reg.c **** 
2855:Drivers/lsm303agr/Src/lsm303agr_reg.c ****   if (ret == 0)
 7305              		.loc 1 2855 3 is_stmt 1 view .LVU1857
 7306              		.loc 1 2855 6 is_stmt 0 view .LVU1858
 7307 0012 08B1     		cbz	r0, .L427
 7308              	.LVL501:
 7309              	.L424:
2856:Drivers/lsm303agr/Src/lsm303agr_reg.c ****   {
2857:Drivers/lsm303agr/Src/lsm303agr_reg.c ****     ctrl_reg5_a.lir_int2 = (uint8_t)val;
2858:Drivers/lsm303agr/Src/lsm303agr_reg.c ****     ret = lsm303agr_write_reg(ctx, LSM303AGR_CTRL_REG5_A,
2859:Drivers/lsm303agr/Src/lsm303agr_reg.c ****                               (uint8_t *)&ctrl_reg5_a, 1);
2860:Drivers/lsm303agr/Src/lsm303agr_reg.c ****   }
2861:Drivers/lsm303agr/Src/lsm303agr_reg.c **** 
2862:Drivers/lsm303agr/Src/lsm303agr_reg.c ****   return ret;
2863:Drivers/lsm303agr/Src/lsm303agr_reg.c **** }
 7310              		.loc 1 2863 1 view .LVU1859
 7311 0014 03B0     		add	sp, sp, #12
 7312              	.LCFI297:
 7313              		.cfi_remember_state
 7314              		.cfi_def_cfa_offset 12
 7315              		@ sp needed
 7316 0016 30BD     		pop	{r4, r5, pc}
 7317              	.LVL502:
 7318              	.L427:
 7319              	.LCFI298:
 7320              		.cfi_restore_state
2857:Drivers/lsm303agr/Src/lsm303agr_reg.c ****     ret = lsm303agr_write_reg(ctx, LSM303AGR_CTRL_REG5_A,
 7321              		.loc 1 2857 5 is_stmt 1 view .LVU1860
2857:Drivers/lsm303agr/Src/lsm303agr_reg.c ****     ret = lsm303agr_write_reg(ctx, LSM303AGR_CTRL_REG5_A,
 7322              		.loc 1 2857 26 is_stmt 0 view .LVU1861
 7323 0018 9DF80430 		ldrb	r3, [sp, #4]	@ zero_extendqisi2
 7324 001c 65F34103 		bfi	r3, r5, #1, #1
 7325 0020 8DF80430 		strb	r3, [sp, #4]
2858:Drivers/lsm303agr/Src/lsm303agr_reg.c ****                               (uint8_t *)&ctrl_reg5_a, 1);
 7326              		.loc 1 2858 5 is_stmt 1 view .LVU1862
2858:Drivers/lsm303agr/Src/lsm303agr_reg.c ****                               (uint8_t *)&ctrl_reg5_a, 1);
 7327              		.loc 1 2858 11 is_stmt 0 view .LVU1863
 7328 0024 0123     		movs	r3, #1
 7329              	.LVL503:
2858:Drivers/lsm303agr/Src/lsm303agr_reg.c ****                               (uint8_t *)&ctrl_reg5_a, 1);
 7330              		.loc 1 2858 11 view .LVU1864
 7331 0026 01AA     		add	r2, sp, #4
 7332 0028 2421     		movs	r1, #36
 7333 002a 2046     		mov	r0, r4
 7334 002c FFF7FEFF 		bl	lsm303agr_write_reg
 7335              	.LVL504:
2862:Drivers/lsm303agr/Src/lsm303agr_reg.c **** }
 7336              		.loc 1 2862 3 is_stmt 1 view .LVU1865
2862:Drivers/lsm303agr/Src/lsm303agr_reg.c **** }
 7337              		.loc 1 2862 10 is_stmt 0 view .LVU1866
 7338 0030 F0E7     		b	.L424
 7339              		.cfi_endproc
 7340              	.LFE240:
 7342              		.section	.text.lsm303agr_xl_int2pin_notification_mode_get,"ax",%progbits
 7343              		.align	1
 7344              		.global	lsm303agr_xl_int2pin_notification_mode_get
ARM GAS  C:\Users\SF\AppData\Local\Temp\ccFGOSN0.s 			page 187


 7345              		.syntax unified
 7346              		.thumb
 7347              		.thumb_func
 7349              	lsm303agr_xl_int2pin_notification_mode_get:
 7350              	.LVL505:
 7351              	.LFB241:
2864:Drivers/lsm303agr/Src/lsm303agr_reg.c **** 
2865:Drivers/lsm303agr/Src/lsm303agr_reg.c **** /**
2866:Drivers/lsm303agr/Src/lsm303agr_reg.c ****   * @brief  Latch interrupt request on INT2_SRC_A (35h) register, with
2867:Drivers/lsm303agr/Src/lsm303agr_reg.c ****   *         INT2_SRC_A (35h) register cleared by reading
2868:Drivers/lsm303agr/Src/lsm303agr_reg.c ****   *         INT2_SRC_A (35h) itself.[get]
2869:Drivers/lsm303agr/Src/lsm303agr_reg.c ****   *
2870:Drivers/lsm303agr/Src/lsm303agr_reg.c ****   * @param  ctx    Read / write interface definitions.(ptr)
2871:Drivers/lsm303agr/Src/lsm303agr_reg.c ****   * @param  val    Get the values of lir_int2 in reg CTRL_REG5_A.(ptr)
2872:Drivers/lsm303agr/Src/lsm303agr_reg.c ****   * @retval        Interface status (MANDATORY: return 0 -> no Error).
2873:Drivers/lsm303agr/Src/lsm303agr_reg.c ****   *
2874:Drivers/lsm303agr/Src/lsm303agr_reg.c ****   */
2875:Drivers/lsm303agr/Src/lsm303agr_reg.c **** int32_t lsm303agr_xl_int2pin_notification_mode_get(stmdev_ctx_t *ctx,
2876:Drivers/lsm303agr/Src/lsm303agr_reg.c ****                                                    lsm303agr_lir_int2_a_t *val)
2877:Drivers/lsm303agr/Src/lsm303agr_reg.c **** {
 7352              		.loc 1 2877 1 is_stmt 1 view -0
 7353              		.cfi_startproc
 7354              		@ args = 0, pretend = 0, frame = 8
 7355              		@ frame_needed = 0, uses_anonymous_args = 0
 7356              		.loc 1 2877 1 is_stmt 0 view .LVU1868
 7357 0000 10B5     		push	{r4, lr}
 7358              	.LCFI299:
 7359              		.cfi_def_cfa_offset 8
 7360              		.cfi_offset 4, -8
 7361              		.cfi_offset 14, -4
 7362 0002 82B0     		sub	sp, sp, #8
 7363              	.LCFI300:
 7364              		.cfi_def_cfa_offset 16
 7365 0004 0C46     		mov	r4, r1
2878:Drivers/lsm303agr/Src/lsm303agr_reg.c ****   lsm303agr_ctrl_reg5_a_t ctrl_reg5_a;
 7366              		.loc 1 2878 3 is_stmt 1 view .LVU1869
2879:Drivers/lsm303agr/Src/lsm303agr_reg.c ****   int32_t ret;
 7367              		.loc 1 2879 3 view .LVU1870
2880:Drivers/lsm303agr/Src/lsm303agr_reg.c **** 
2881:Drivers/lsm303agr/Src/lsm303agr_reg.c ****   ret = lsm303agr_read_reg(ctx, LSM303AGR_CTRL_REG5_A,
 7368              		.loc 1 2881 3 view .LVU1871
 7369              		.loc 1 2881 9 is_stmt 0 view .LVU1872
 7370 0006 0123     		movs	r3, #1
 7371 0008 01AA     		add	r2, sp, #4
 7372 000a 2421     		movs	r1, #36
 7373              	.LVL506:
 7374              		.loc 1 2881 9 view .LVU1873
 7375 000c FFF7FEFF 		bl	lsm303agr_read_reg
 7376              	.LVL507:
2882:Drivers/lsm303agr/Src/lsm303agr_reg.c ****                            (uint8_t *)&ctrl_reg5_a, 1);
2883:Drivers/lsm303agr/Src/lsm303agr_reg.c **** 
2884:Drivers/lsm303agr/Src/lsm303agr_reg.c ****   switch (ctrl_reg5_a.lir_int2)
 7377              		.loc 1 2884 3 is_stmt 1 view .LVU1874
 7378              		.loc 1 2884 22 is_stmt 0 view .LVU1875
 7379 0010 9DF80430 		ldrb	r3, [sp, #4]	@ zero_extendqisi2
 7380 0014 C3F34002 		ubfx	r2, r3, #1, #1
 7381              		.loc 1 2884 3 view .LVU1876
ARM GAS  C:\Users\SF\AppData\Local\Temp\ccFGOSN0.s 			page 188


 7382 0018 13F0020F 		tst	r3, #2
 7383 001c 03D0     		beq	.L429
 7384 001e 32B9     		cbnz	r2, .L430
2885:Drivers/lsm303agr/Src/lsm303agr_reg.c ****   {
2886:Drivers/lsm303agr/Src/lsm303agr_reg.c ****     case LSM303AGR_INT2_PULSED:
2887:Drivers/lsm303agr/Src/lsm303agr_reg.c ****       *val = LSM303AGR_INT2_PULSED;
2888:Drivers/lsm303agr/Src/lsm303agr_reg.c ****       break;
2889:Drivers/lsm303agr/Src/lsm303agr_reg.c **** 
2890:Drivers/lsm303agr/Src/lsm303agr_reg.c ****     case LSM303AGR_INT2_LATCHED:
2891:Drivers/lsm303agr/Src/lsm303agr_reg.c ****       *val = LSM303AGR_INT2_LATCHED;
2892:Drivers/lsm303agr/Src/lsm303agr_reg.c ****       break;
2893:Drivers/lsm303agr/Src/lsm303agr_reg.c **** 
2894:Drivers/lsm303agr/Src/lsm303agr_reg.c ****     default:
2895:Drivers/lsm303agr/Src/lsm303agr_reg.c ****       *val = LSM303AGR_INT2_PULSED;
 7385              		.loc 1 2895 7 is_stmt 1 view .LVU1877
 7386              		.loc 1 2895 12 is_stmt 0 view .LVU1878
 7387 0020 0023     		movs	r3, #0
 7388 0022 2370     		strb	r3, [r4]
2896:Drivers/lsm303agr/Src/lsm303agr_reg.c ****       break;
 7389              		.loc 1 2896 7 is_stmt 1 view .LVU1879
2897:Drivers/lsm303agr/Src/lsm303agr_reg.c ****   }
2898:Drivers/lsm303agr/Src/lsm303agr_reg.c **** 
2899:Drivers/lsm303agr/Src/lsm303agr_reg.c ****   return ret;
 7390              		.loc 1 2899 3 view .LVU1880
 7391              		.loc 1 2899 10 is_stmt 0 view .LVU1881
 7392 0024 01E0     		b	.L428
 7393              	.L429:
2887:Drivers/lsm303agr/Src/lsm303agr_reg.c ****       break;
 7394              		.loc 1 2887 7 is_stmt 1 view .LVU1882
2887:Drivers/lsm303agr/Src/lsm303agr_reg.c ****       break;
 7395              		.loc 1 2887 12 is_stmt 0 view .LVU1883
 7396 0026 0023     		movs	r3, #0
 7397 0028 2370     		strb	r3, [r4]
2888:Drivers/lsm303agr/Src/lsm303agr_reg.c **** 
 7398              		.loc 1 2888 7 is_stmt 1 view .LVU1884
 7399              	.L428:
2900:Drivers/lsm303agr/Src/lsm303agr_reg.c **** }
 7400              		.loc 1 2900 1 is_stmt 0 view .LVU1885
 7401 002a 02B0     		add	sp, sp, #8
 7402              	.LCFI301:
 7403              		.cfi_remember_state
 7404              		.cfi_def_cfa_offset 8
 7405              		@ sp needed
 7406 002c 10BD     		pop	{r4, pc}
 7407              	.LVL508:
 7408              	.L430:
 7409              	.LCFI302:
 7410              		.cfi_restore_state
2891:Drivers/lsm303agr/Src/lsm303agr_reg.c ****       break;
 7411              		.loc 1 2891 7 is_stmt 1 view .LVU1886
2891:Drivers/lsm303agr/Src/lsm303agr_reg.c ****       break;
 7412              		.loc 1 2891 12 is_stmt 0 view .LVU1887
 7413 002e 0123     		movs	r3, #1
 7414 0030 2370     		strb	r3, [r4]
2892:Drivers/lsm303agr/Src/lsm303agr_reg.c **** 
 7415              		.loc 1 2892 7 is_stmt 1 view .LVU1888
 7416 0032 FAE7     		b	.L428
ARM GAS  C:\Users\SF\AppData\Local\Temp\ccFGOSN0.s 			page 189


 7417              		.cfi_endproc
 7418              	.LFE241:
 7420              		.section	.text.lsm303agr_xl_int1_pin_detect_4d_set,"ax",%progbits
 7421              		.align	1
 7422              		.global	lsm303agr_xl_int1_pin_detect_4d_set
 7423              		.syntax unified
 7424              		.thumb
 7425              		.thumb_func
 7427              	lsm303agr_xl_int1_pin_detect_4d_set:
 7428              	.LVL509:
 7429              	.LFB242:
2901:Drivers/lsm303agr/Src/lsm303agr_reg.c **** 
2902:Drivers/lsm303agr/Src/lsm303agr_reg.c **** /**
2903:Drivers/lsm303agr/Src/lsm303agr_reg.c ****   * @brief  4D detection is enabled on INT1 pin when 6D bit on
2904:Drivers/lsm303agr/Src/lsm303agr_reg.c ****   *         INT1_CFG_A (30h) is set to 1.[set]
2905:Drivers/lsm303agr/Src/lsm303agr_reg.c ****   *
2906:Drivers/lsm303agr/Src/lsm303agr_reg.c ****   * @param  ctx    Read / write interface definitions.(ptr)
2907:Drivers/lsm303agr/Src/lsm303agr_reg.c ****   * @param  val    Change the values of d4d_int1 in reg CTRL_REG5_A
2908:Drivers/lsm303agr/Src/lsm303agr_reg.c ****   * @retval        Interface status (MANDATORY: return 0 -> no Error).
2909:Drivers/lsm303agr/Src/lsm303agr_reg.c ****   *
2910:Drivers/lsm303agr/Src/lsm303agr_reg.c ****   */
2911:Drivers/lsm303agr/Src/lsm303agr_reg.c **** int32_t lsm303agr_xl_int1_pin_detect_4d_set(stmdev_ctx_t *ctx,
2912:Drivers/lsm303agr/Src/lsm303agr_reg.c ****                                             uint8_t val)
2913:Drivers/lsm303agr/Src/lsm303agr_reg.c **** {
 7430              		.loc 1 2913 1 view -0
 7431              		.cfi_startproc
 7432              		@ args = 0, pretend = 0, frame = 8
 7433              		@ frame_needed = 0, uses_anonymous_args = 0
 7434              		.loc 1 2913 1 is_stmt 0 view .LVU1890
 7435 0000 30B5     		push	{r4, r5, lr}
 7436              	.LCFI303:
 7437              		.cfi_def_cfa_offset 12
 7438              		.cfi_offset 4, -12
 7439              		.cfi_offset 5, -8
 7440              		.cfi_offset 14, -4
 7441 0002 83B0     		sub	sp, sp, #12
 7442              	.LCFI304:
 7443              		.cfi_def_cfa_offset 24
 7444 0004 0446     		mov	r4, r0
 7445 0006 0D46     		mov	r5, r1
2914:Drivers/lsm303agr/Src/lsm303agr_reg.c ****   lsm303agr_ctrl_reg5_a_t ctrl_reg5_a;
 7446              		.loc 1 2914 3 is_stmt 1 view .LVU1891
2915:Drivers/lsm303agr/Src/lsm303agr_reg.c ****   int32_t ret;
 7447              		.loc 1 2915 3 view .LVU1892
2916:Drivers/lsm303agr/Src/lsm303agr_reg.c **** 
2917:Drivers/lsm303agr/Src/lsm303agr_reg.c ****   ret = lsm303agr_read_reg(ctx, LSM303AGR_CTRL_REG5_A,
 7448              		.loc 1 2917 3 view .LVU1893
 7449              		.loc 1 2917 9 is_stmt 0 view .LVU1894
 7450 0008 0123     		movs	r3, #1
 7451 000a 01AA     		add	r2, sp, #4
 7452 000c 2421     		movs	r1, #36
 7453              	.LVL510:
 7454              		.loc 1 2917 9 view .LVU1895
 7455 000e FFF7FEFF 		bl	lsm303agr_read_reg
 7456              	.LVL511:
2918:Drivers/lsm303agr/Src/lsm303agr_reg.c ****                            (uint8_t *)&ctrl_reg5_a, 1);
2919:Drivers/lsm303agr/Src/lsm303agr_reg.c **** 
ARM GAS  C:\Users\SF\AppData\Local\Temp\ccFGOSN0.s 			page 190


2920:Drivers/lsm303agr/Src/lsm303agr_reg.c ****   if (ret == 0)
 7457              		.loc 1 2920 3 is_stmt 1 view .LVU1896
 7458              		.loc 1 2920 6 is_stmt 0 view .LVU1897
 7459 0012 08B1     		cbz	r0, .L438
 7460              	.LVL512:
 7461              	.L435:
2921:Drivers/lsm303agr/Src/lsm303agr_reg.c ****   {
2922:Drivers/lsm303agr/Src/lsm303agr_reg.c ****     ctrl_reg5_a.d4d_int1 = (uint8_t)val;
2923:Drivers/lsm303agr/Src/lsm303agr_reg.c ****     ret = lsm303agr_write_reg(ctx, LSM303AGR_CTRL_REG5_A,
2924:Drivers/lsm303agr/Src/lsm303agr_reg.c ****                               (uint8_t *)&ctrl_reg5_a, 1);
2925:Drivers/lsm303agr/Src/lsm303agr_reg.c ****   }
2926:Drivers/lsm303agr/Src/lsm303agr_reg.c **** 
2927:Drivers/lsm303agr/Src/lsm303agr_reg.c ****   return ret;
2928:Drivers/lsm303agr/Src/lsm303agr_reg.c **** }
 7462              		.loc 1 2928 1 view .LVU1898
 7463 0014 03B0     		add	sp, sp, #12
 7464              	.LCFI305:
 7465              		.cfi_remember_state
 7466              		.cfi_def_cfa_offset 12
 7467              		@ sp needed
 7468 0016 30BD     		pop	{r4, r5, pc}
 7469              	.LVL513:
 7470              	.L438:
 7471              	.LCFI306:
 7472              		.cfi_restore_state
2922:Drivers/lsm303agr/Src/lsm303agr_reg.c ****     ret = lsm303agr_write_reg(ctx, LSM303AGR_CTRL_REG5_A,
 7473              		.loc 1 2922 5 is_stmt 1 view .LVU1899
2922:Drivers/lsm303agr/Src/lsm303agr_reg.c ****     ret = lsm303agr_write_reg(ctx, LSM303AGR_CTRL_REG5_A,
 7474              		.loc 1 2922 26 is_stmt 0 view .LVU1900
 7475 0018 9DF80430 		ldrb	r3, [sp, #4]	@ zero_extendqisi2
 7476 001c 65F38203 		bfi	r3, r5, #2, #1
 7477 0020 8DF80430 		strb	r3, [sp, #4]
2923:Drivers/lsm303agr/Src/lsm303agr_reg.c ****                               (uint8_t *)&ctrl_reg5_a, 1);
 7478              		.loc 1 2923 5 is_stmt 1 view .LVU1901
2923:Drivers/lsm303agr/Src/lsm303agr_reg.c ****                               (uint8_t *)&ctrl_reg5_a, 1);
 7479              		.loc 1 2923 11 is_stmt 0 view .LVU1902
 7480 0024 0123     		movs	r3, #1
 7481              	.LVL514:
2923:Drivers/lsm303agr/Src/lsm303agr_reg.c ****                               (uint8_t *)&ctrl_reg5_a, 1);
 7482              		.loc 1 2923 11 view .LVU1903
 7483 0026 01AA     		add	r2, sp, #4
 7484 0028 2421     		movs	r1, #36
 7485 002a 2046     		mov	r0, r4
 7486 002c FFF7FEFF 		bl	lsm303agr_write_reg
 7487              	.LVL515:
2927:Drivers/lsm303agr/Src/lsm303agr_reg.c **** }
 7488              		.loc 1 2927 3 is_stmt 1 view .LVU1904
2927:Drivers/lsm303agr/Src/lsm303agr_reg.c **** }
 7489              		.loc 1 2927 10 is_stmt 0 view .LVU1905
 7490 0030 F0E7     		b	.L435
 7491              		.cfi_endproc
 7492              	.LFE242:
 7494              		.section	.text.lsm303agr_xl_int1_pin_detect_4d_get,"ax",%progbits
 7495              		.align	1
 7496              		.global	lsm303agr_xl_int1_pin_detect_4d_get
 7497              		.syntax unified
 7498              		.thumb
ARM GAS  C:\Users\SF\AppData\Local\Temp\ccFGOSN0.s 			page 191


 7499              		.thumb_func
 7501              	lsm303agr_xl_int1_pin_detect_4d_get:
 7502              	.LVL516:
 7503              	.LFB243:
2929:Drivers/lsm303agr/Src/lsm303agr_reg.c **** 
2930:Drivers/lsm303agr/Src/lsm303agr_reg.c **** /**
2931:Drivers/lsm303agr/Src/lsm303agr_reg.c ****   * @brief  4D detection is enabled on INT1 pin when 6D bit on
2932:Drivers/lsm303agr/Src/lsm303agr_reg.c ****   *         INT1_CFG_A (30h) is set to 1.[get]
2933:Drivers/lsm303agr/Src/lsm303agr_reg.c ****   *
2934:Drivers/lsm303agr/Src/lsm303agr_reg.c ****   * @param  ctx    Read / write interface definitions.(ptr)
2935:Drivers/lsm303agr/Src/lsm303agr_reg.c ****   * @param  val    Get the values of d4d_int1 in reg CTRL_REG5_A.(ptr)
2936:Drivers/lsm303agr/Src/lsm303agr_reg.c ****   * @retval        Interface status (MANDATORY: return 0 -> no Error).
2937:Drivers/lsm303agr/Src/lsm303agr_reg.c ****   *
2938:Drivers/lsm303agr/Src/lsm303agr_reg.c ****   */
2939:Drivers/lsm303agr/Src/lsm303agr_reg.c **** int32_t lsm303agr_xl_int1_pin_detect_4d_get(stmdev_ctx_t *ctx,
2940:Drivers/lsm303agr/Src/lsm303agr_reg.c ****                                             uint8_t *val)
2941:Drivers/lsm303agr/Src/lsm303agr_reg.c **** {
 7504              		.loc 1 2941 1 is_stmt 1 view -0
 7505              		.cfi_startproc
 7506              		@ args = 0, pretend = 0, frame = 8
 7507              		@ frame_needed = 0, uses_anonymous_args = 0
 7508              		.loc 1 2941 1 is_stmt 0 view .LVU1907
 7509 0000 10B5     		push	{r4, lr}
 7510              	.LCFI307:
 7511              		.cfi_def_cfa_offset 8
 7512              		.cfi_offset 4, -8
 7513              		.cfi_offset 14, -4
 7514 0002 82B0     		sub	sp, sp, #8
 7515              	.LCFI308:
 7516              		.cfi_def_cfa_offset 16
 7517 0004 0C46     		mov	r4, r1
2942:Drivers/lsm303agr/Src/lsm303agr_reg.c ****   lsm303agr_ctrl_reg5_a_t ctrl_reg5_a;
 7518              		.loc 1 2942 3 is_stmt 1 view .LVU1908
2943:Drivers/lsm303agr/Src/lsm303agr_reg.c ****   int32_t ret;
 7519              		.loc 1 2943 3 view .LVU1909
2944:Drivers/lsm303agr/Src/lsm303agr_reg.c **** 
2945:Drivers/lsm303agr/Src/lsm303agr_reg.c ****   ret = lsm303agr_read_reg(ctx, LSM303AGR_CTRL_REG5_A,
 7520              		.loc 1 2945 3 view .LVU1910
 7521              		.loc 1 2945 9 is_stmt 0 view .LVU1911
 7522 0006 0123     		movs	r3, #1
 7523 0008 01AA     		add	r2, sp, #4
 7524 000a 2421     		movs	r1, #36
 7525              	.LVL517:
 7526              		.loc 1 2945 9 view .LVU1912
 7527 000c FFF7FEFF 		bl	lsm303agr_read_reg
 7528              	.LVL518:
2946:Drivers/lsm303agr/Src/lsm303agr_reg.c ****                            (uint8_t *)&ctrl_reg5_a, 1);
2947:Drivers/lsm303agr/Src/lsm303agr_reg.c ****   *val = ctrl_reg5_a.d4d_int1;
 7529              		.loc 1 2947 3 is_stmt 1 view .LVU1913
 7530              		.loc 1 2947 21 is_stmt 0 view .LVU1914
 7531 0010 9DF80430 		ldrb	r3, [sp, #4]	@ zero_extendqisi2
 7532 0014 C3F38003 		ubfx	r3, r3, #2, #1
 7533              		.loc 1 2947 8 view .LVU1915
 7534 0018 2370     		strb	r3, [r4]
2948:Drivers/lsm303agr/Src/lsm303agr_reg.c **** 
2949:Drivers/lsm303agr/Src/lsm303agr_reg.c ****   return ret;
 7535              		.loc 1 2949 3 is_stmt 1 view .LVU1916
ARM GAS  C:\Users\SF\AppData\Local\Temp\ccFGOSN0.s 			page 192


2950:Drivers/lsm303agr/Src/lsm303agr_reg.c **** }
 7536              		.loc 1 2950 1 is_stmt 0 view .LVU1917
 7537 001a 02B0     		add	sp, sp, #8
 7538              	.LCFI309:
 7539              		.cfi_def_cfa_offset 8
 7540              		@ sp needed
 7541 001c 10BD     		pop	{r4, pc}
 7542              		.loc 1 2950 1 view .LVU1918
 7543              		.cfi_endproc
 7544              	.LFE243:
 7546              		.section	.text.lsm303agr_xl_int1pin_notification_mode_set,"ax",%progbits
 7547              		.align	1
 7548              		.global	lsm303agr_xl_int1pin_notification_mode_set
 7549              		.syntax unified
 7550              		.thumb
 7551              		.thumb_func
 7553              	lsm303agr_xl_int1pin_notification_mode_set:
 7554              	.LVL519:
 7555              	.LFB244:
2951:Drivers/lsm303agr/Src/lsm303agr_reg.c **** 
2952:Drivers/lsm303agr/Src/lsm303agr_reg.c **** /**
2953:Drivers/lsm303agr/Src/lsm303agr_reg.c ****   * @brief  Latch interrupt request on INT1_SRC_A (31h), with
2954:Drivers/lsm303agr/Src/lsm303agr_reg.c ****   *         INT1_SRC_A(31h) register cleared by reading
2955:Drivers/lsm303agr/Src/lsm303agr_reg.c ****   *         INT1_SRC_A (31h) itself.[set]
2956:Drivers/lsm303agr/Src/lsm303agr_reg.c ****   *
2957:Drivers/lsm303agr/Src/lsm303agr_reg.c ****   * @param  ctx    Read / write interface definitions.(ptr)
2958:Drivers/lsm303agr/Src/lsm303agr_reg.c ****   * @param  val    Change the values of lir_int1 in reg CTRL_REG5_A
2959:Drivers/lsm303agr/Src/lsm303agr_reg.c ****   * @retval        Interface status (MANDATORY: return 0 -> no Error).
2960:Drivers/lsm303agr/Src/lsm303agr_reg.c ****   *
2961:Drivers/lsm303agr/Src/lsm303agr_reg.c ****   */
2962:Drivers/lsm303agr/Src/lsm303agr_reg.c **** int32_t lsm303agr_xl_int1pin_notification_mode_set(stmdev_ctx_t *ctx,
2963:Drivers/lsm303agr/Src/lsm303agr_reg.c ****                                                    lsm303agr_lir_int1_a_t val)
2964:Drivers/lsm303agr/Src/lsm303agr_reg.c **** {
 7556              		.loc 1 2964 1 is_stmt 1 view -0
 7557              		.cfi_startproc
 7558              		@ args = 0, pretend = 0, frame = 8
 7559              		@ frame_needed = 0, uses_anonymous_args = 0
 7560              		.loc 1 2964 1 is_stmt 0 view .LVU1920
 7561 0000 30B5     		push	{r4, r5, lr}
 7562              	.LCFI310:
 7563              		.cfi_def_cfa_offset 12
 7564              		.cfi_offset 4, -12
 7565              		.cfi_offset 5, -8
 7566              		.cfi_offset 14, -4
 7567 0002 83B0     		sub	sp, sp, #12
 7568              	.LCFI311:
 7569              		.cfi_def_cfa_offset 24
 7570 0004 0446     		mov	r4, r0
 7571 0006 0D46     		mov	r5, r1
2965:Drivers/lsm303agr/Src/lsm303agr_reg.c ****   lsm303agr_ctrl_reg5_a_t ctrl_reg5_a;
 7572              		.loc 1 2965 3 is_stmt 1 view .LVU1921
2966:Drivers/lsm303agr/Src/lsm303agr_reg.c ****   int32_t ret;
 7573              		.loc 1 2966 3 view .LVU1922
2967:Drivers/lsm303agr/Src/lsm303agr_reg.c **** 
2968:Drivers/lsm303agr/Src/lsm303agr_reg.c ****   ret = lsm303agr_read_reg(ctx, LSM303AGR_CTRL_REG5_A,
 7574              		.loc 1 2968 3 view .LVU1923
 7575              		.loc 1 2968 9 is_stmt 0 view .LVU1924
ARM GAS  C:\Users\SF\AppData\Local\Temp\ccFGOSN0.s 			page 193


 7576 0008 0123     		movs	r3, #1
 7577 000a 01AA     		add	r2, sp, #4
 7578 000c 2421     		movs	r1, #36
 7579              	.LVL520:
 7580              		.loc 1 2968 9 view .LVU1925
 7581 000e FFF7FEFF 		bl	lsm303agr_read_reg
 7582              	.LVL521:
2969:Drivers/lsm303agr/Src/lsm303agr_reg.c ****                            (uint8_t *)&ctrl_reg5_a, 1);
2970:Drivers/lsm303agr/Src/lsm303agr_reg.c **** 
2971:Drivers/lsm303agr/Src/lsm303agr_reg.c ****   if (ret == 0)
 7583              		.loc 1 2971 3 is_stmt 1 view .LVU1926
 7584              		.loc 1 2971 6 is_stmt 0 view .LVU1927
 7585 0012 08B1     		cbz	r0, .L444
 7586              	.LVL522:
 7587              	.L441:
2972:Drivers/lsm303agr/Src/lsm303agr_reg.c ****   {
2973:Drivers/lsm303agr/Src/lsm303agr_reg.c ****     ctrl_reg5_a.lir_int1 = (uint8_t)val;
2974:Drivers/lsm303agr/Src/lsm303agr_reg.c ****     ret = lsm303agr_write_reg(ctx, LSM303AGR_CTRL_REG5_A,
2975:Drivers/lsm303agr/Src/lsm303agr_reg.c ****                               (uint8_t *)&ctrl_reg5_a, 1);
2976:Drivers/lsm303agr/Src/lsm303agr_reg.c ****   }
2977:Drivers/lsm303agr/Src/lsm303agr_reg.c **** 
2978:Drivers/lsm303agr/Src/lsm303agr_reg.c ****   return ret;
2979:Drivers/lsm303agr/Src/lsm303agr_reg.c **** }
 7588              		.loc 1 2979 1 view .LVU1928
 7589 0014 03B0     		add	sp, sp, #12
 7590              	.LCFI312:
 7591              		.cfi_remember_state
 7592              		.cfi_def_cfa_offset 12
 7593              		@ sp needed
 7594 0016 30BD     		pop	{r4, r5, pc}
 7595              	.LVL523:
 7596              	.L444:
 7597              	.LCFI313:
 7598              		.cfi_restore_state
2973:Drivers/lsm303agr/Src/lsm303agr_reg.c ****     ret = lsm303agr_write_reg(ctx, LSM303AGR_CTRL_REG5_A,
 7599              		.loc 1 2973 5 is_stmt 1 view .LVU1929
2973:Drivers/lsm303agr/Src/lsm303agr_reg.c ****     ret = lsm303agr_write_reg(ctx, LSM303AGR_CTRL_REG5_A,
 7600              		.loc 1 2973 26 is_stmt 0 view .LVU1930
 7601 0018 9DF80430 		ldrb	r3, [sp, #4]	@ zero_extendqisi2
 7602 001c 65F3C303 		bfi	r3, r5, #3, #1
 7603 0020 8DF80430 		strb	r3, [sp, #4]
2974:Drivers/lsm303agr/Src/lsm303agr_reg.c ****                               (uint8_t *)&ctrl_reg5_a, 1);
 7604              		.loc 1 2974 5 is_stmt 1 view .LVU1931
2974:Drivers/lsm303agr/Src/lsm303agr_reg.c ****                               (uint8_t *)&ctrl_reg5_a, 1);
 7605              		.loc 1 2974 11 is_stmt 0 view .LVU1932
 7606 0024 0123     		movs	r3, #1
 7607              	.LVL524:
2974:Drivers/lsm303agr/Src/lsm303agr_reg.c ****                               (uint8_t *)&ctrl_reg5_a, 1);
 7608              		.loc 1 2974 11 view .LVU1933
 7609 0026 01AA     		add	r2, sp, #4
 7610 0028 2421     		movs	r1, #36
 7611 002a 2046     		mov	r0, r4
 7612 002c FFF7FEFF 		bl	lsm303agr_write_reg
 7613              	.LVL525:
2978:Drivers/lsm303agr/Src/lsm303agr_reg.c **** }
 7614              		.loc 1 2978 3 is_stmt 1 view .LVU1934
2978:Drivers/lsm303agr/Src/lsm303agr_reg.c **** }
ARM GAS  C:\Users\SF\AppData\Local\Temp\ccFGOSN0.s 			page 194


 7615              		.loc 1 2978 10 is_stmt 0 view .LVU1935
 7616 0030 F0E7     		b	.L441
 7617              		.cfi_endproc
 7618              	.LFE244:
 7620              		.section	.text.lsm303agr_xl_int1pin_notification_mode_get,"ax",%progbits
 7621              		.align	1
 7622              		.global	lsm303agr_xl_int1pin_notification_mode_get
 7623              		.syntax unified
 7624              		.thumb
 7625              		.thumb_func
 7627              	lsm303agr_xl_int1pin_notification_mode_get:
 7628              	.LVL526:
 7629              	.LFB245:
2980:Drivers/lsm303agr/Src/lsm303agr_reg.c **** 
2981:Drivers/lsm303agr/Src/lsm303agr_reg.c **** /**
2982:Drivers/lsm303agr/Src/lsm303agr_reg.c ****   * @brief  Latch interrupt request on INT1_SRC_A (31h), with
2983:Drivers/lsm303agr/Src/lsm303agr_reg.c ****   *         INT1_SRC_A(31h) register cleared by reading
2984:Drivers/lsm303agr/Src/lsm303agr_reg.c ****   *         INT1_SRC_A (31h) itself.[get]
2985:Drivers/lsm303agr/Src/lsm303agr_reg.c ****   *
2986:Drivers/lsm303agr/Src/lsm303agr_reg.c ****   * @param  ctx    Read / write interface definitions.(ptr)
2987:Drivers/lsm303agr/Src/lsm303agr_reg.c ****   * @param  val    Get the values of lir_int1 in reg CTRL_REG5_A.(ptr)
2988:Drivers/lsm303agr/Src/lsm303agr_reg.c ****   * @retval        Interface status (MANDATORY: return 0 -> no Error).
2989:Drivers/lsm303agr/Src/lsm303agr_reg.c ****   *
2990:Drivers/lsm303agr/Src/lsm303agr_reg.c ****   */
2991:Drivers/lsm303agr/Src/lsm303agr_reg.c **** int32_t lsm303agr_xl_int1pin_notification_mode_get(stmdev_ctx_t *ctx,
2992:Drivers/lsm303agr/Src/lsm303agr_reg.c ****                                                    lsm303agr_lir_int1_a_t *val)
2993:Drivers/lsm303agr/Src/lsm303agr_reg.c **** {
 7630              		.loc 1 2993 1 is_stmt 1 view -0
 7631              		.cfi_startproc
 7632              		@ args = 0, pretend = 0, frame = 8
 7633              		@ frame_needed = 0, uses_anonymous_args = 0
 7634              		.loc 1 2993 1 is_stmt 0 view .LVU1937
 7635 0000 10B5     		push	{r4, lr}
 7636              	.LCFI314:
 7637              		.cfi_def_cfa_offset 8
 7638              		.cfi_offset 4, -8
 7639              		.cfi_offset 14, -4
 7640 0002 82B0     		sub	sp, sp, #8
 7641              	.LCFI315:
 7642              		.cfi_def_cfa_offset 16
 7643 0004 0C46     		mov	r4, r1
2994:Drivers/lsm303agr/Src/lsm303agr_reg.c ****   lsm303agr_ctrl_reg5_a_t ctrl_reg5_a;
 7644              		.loc 1 2994 3 is_stmt 1 view .LVU1938
2995:Drivers/lsm303agr/Src/lsm303agr_reg.c ****   int32_t ret;
 7645              		.loc 1 2995 3 view .LVU1939
2996:Drivers/lsm303agr/Src/lsm303agr_reg.c **** 
2997:Drivers/lsm303agr/Src/lsm303agr_reg.c ****   ret = lsm303agr_read_reg(ctx, LSM303AGR_CTRL_REG5_A,
 7646              		.loc 1 2997 3 view .LVU1940
 7647              		.loc 1 2997 9 is_stmt 0 view .LVU1941
 7648 0006 0123     		movs	r3, #1
 7649 0008 01AA     		add	r2, sp, #4
 7650 000a 2421     		movs	r1, #36
 7651              	.LVL527:
 7652              		.loc 1 2997 9 view .LVU1942
 7653 000c FFF7FEFF 		bl	lsm303agr_read_reg
 7654              	.LVL528:
2998:Drivers/lsm303agr/Src/lsm303agr_reg.c ****                            (uint8_t *)&ctrl_reg5_a, 1);
ARM GAS  C:\Users\SF\AppData\Local\Temp\ccFGOSN0.s 			page 195


2999:Drivers/lsm303agr/Src/lsm303agr_reg.c **** 
3000:Drivers/lsm303agr/Src/lsm303agr_reg.c ****   switch (ctrl_reg5_a.lir_int1)
 7655              		.loc 1 3000 3 is_stmt 1 view .LVU1943
 7656              		.loc 1 3000 22 is_stmt 0 view .LVU1944
 7657 0010 9DF80430 		ldrb	r3, [sp, #4]	@ zero_extendqisi2
 7658 0014 C3F3C002 		ubfx	r2, r3, #3, #1
 7659              		.loc 1 3000 3 view .LVU1945
 7660 0018 13F0080F 		tst	r3, #8
 7661 001c 03D0     		beq	.L446
 7662 001e 32B9     		cbnz	r2, .L447
3001:Drivers/lsm303agr/Src/lsm303agr_reg.c ****   {
3002:Drivers/lsm303agr/Src/lsm303agr_reg.c ****     case LSM303AGR_INT1_PULSED:
3003:Drivers/lsm303agr/Src/lsm303agr_reg.c ****       *val = LSM303AGR_INT1_PULSED;
3004:Drivers/lsm303agr/Src/lsm303agr_reg.c ****       break;
3005:Drivers/lsm303agr/Src/lsm303agr_reg.c **** 
3006:Drivers/lsm303agr/Src/lsm303agr_reg.c ****     case LSM303AGR_INT1_LATCHED:
3007:Drivers/lsm303agr/Src/lsm303agr_reg.c ****       *val = LSM303AGR_INT1_LATCHED;
3008:Drivers/lsm303agr/Src/lsm303agr_reg.c ****       break;
3009:Drivers/lsm303agr/Src/lsm303agr_reg.c **** 
3010:Drivers/lsm303agr/Src/lsm303agr_reg.c ****     default:
3011:Drivers/lsm303agr/Src/lsm303agr_reg.c ****       *val = LSM303AGR_INT1_PULSED;
 7663              		.loc 1 3011 7 is_stmt 1 view .LVU1946
 7664              		.loc 1 3011 12 is_stmt 0 view .LVU1947
 7665 0020 0023     		movs	r3, #0
 7666 0022 2370     		strb	r3, [r4]
3012:Drivers/lsm303agr/Src/lsm303agr_reg.c ****       break;
 7667              		.loc 1 3012 7 is_stmt 1 view .LVU1948
3013:Drivers/lsm303agr/Src/lsm303agr_reg.c ****   }
3014:Drivers/lsm303agr/Src/lsm303agr_reg.c **** 
3015:Drivers/lsm303agr/Src/lsm303agr_reg.c ****   return ret;
 7668              		.loc 1 3015 3 view .LVU1949
 7669              		.loc 1 3015 10 is_stmt 0 view .LVU1950
 7670 0024 01E0     		b	.L445
 7671              	.L446:
3003:Drivers/lsm303agr/Src/lsm303agr_reg.c ****       break;
 7672              		.loc 1 3003 7 is_stmt 1 view .LVU1951
3003:Drivers/lsm303agr/Src/lsm303agr_reg.c ****       break;
 7673              		.loc 1 3003 12 is_stmt 0 view .LVU1952
 7674 0026 0023     		movs	r3, #0
 7675 0028 2370     		strb	r3, [r4]
3004:Drivers/lsm303agr/Src/lsm303agr_reg.c **** 
 7676              		.loc 1 3004 7 is_stmt 1 view .LVU1953
 7677              	.L445:
3016:Drivers/lsm303agr/Src/lsm303agr_reg.c **** }
 7678              		.loc 1 3016 1 is_stmt 0 view .LVU1954
 7679 002a 02B0     		add	sp, sp, #8
 7680              	.LCFI316:
 7681              		.cfi_remember_state
 7682              		.cfi_def_cfa_offset 8
 7683              		@ sp needed
 7684 002c 10BD     		pop	{r4, pc}
 7685              	.LVL529:
 7686              	.L447:
 7687              	.LCFI317:
 7688              		.cfi_restore_state
3007:Drivers/lsm303agr/Src/lsm303agr_reg.c ****       break;
 7689              		.loc 1 3007 7 is_stmt 1 view .LVU1955
ARM GAS  C:\Users\SF\AppData\Local\Temp\ccFGOSN0.s 			page 196


3007:Drivers/lsm303agr/Src/lsm303agr_reg.c ****       break;
 7690              		.loc 1 3007 12 is_stmt 0 view .LVU1956
 7691 002e 0123     		movs	r3, #1
 7692 0030 2370     		strb	r3, [r4]
3008:Drivers/lsm303agr/Src/lsm303agr_reg.c **** 
 7693              		.loc 1 3008 7 is_stmt 1 view .LVU1957
 7694 0032 FAE7     		b	.L445
 7695              		.cfi_endproc
 7696              	.LFE245:
 7698              		.section	.text.lsm303agr_xl_pin_int2_config_set,"ax",%progbits
 7699              		.align	1
 7700              		.global	lsm303agr_xl_pin_int2_config_set
 7701              		.syntax unified
 7702              		.thumb
 7703              		.thumb_func
 7705              	lsm303agr_xl_pin_int2_config_set:
 7706              	.LVL530:
 7707              	.LFB246:
3017:Drivers/lsm303agr/Src/lsm303agr_reg.c **** 
3018:Drivers/lsm303agr/Src/lsm303agr_reg.c **** /**
3019:Drivers/lsm303agr/Src/lsm303agr_reg.c ****   * @brief  Int2 pin routing configuration register.[set]
3020:Drivers/lsm303agr/Src/lsm303agr_reg.c ****   *
3021:Drivers/lsm303agr/Src/lsm303agr_reg.c ****   * @param  ctx    Read / write interface definitions.(ptr)
3022:Drivers/lsm303agr/Src/lsm303agr_reg.c ****   * @param  val    Change registers CTRL_REG6_A.(ptr)
3023:Drivers/lsm303agr/Src/lsm303agr_reg.c ****   * @retval        Interface status (MANDATORY: return 0 -> no Error).
3024:Drivers/lsm303agr/Src/lsm303agr_reg.c ****   *
3025:Drivers/lsm303agr/Src/lsm303agr_reg.c ****   */
3026:Drivers/lsm303agr/Src/lsm303agr_reg.c **** int32_t lsm303agr_xl_pin_int2_config_set(stmdev_ctx_t *ctx,
3027:Drivers/lsm303agr/Src/lsm303agr_reg.c ****                                          lsm303agr_ctrl_reg6_a_t *val)
3028:Drivers/lsm303agr/Src/lsm303agr_reg.c **** {
 7708              		.loc 1 3028 1 view -0
 7709              		.cfi_startproc
 7710              		@ args = 0, pretend = 0, frame = 0
 7711              		@ frame_needed = 0, uses_anonymous_args = 0
 7712              		.loc 1 3028 1 is_stmt 0 view .LVU1959
 7713 0000 08B5     		push	{r3, lr}
 7714              	.LCFI318:
 7715              		.cfi_def_cfa_offset 8
 7716              		.cfi_offset 3, -8
 7717              		.cfi_offset 14, -4
 7718 0002 0A46     		mov	r2, r1
3029:Drivers/lsm303agr/Src/lsm303agr_reg.c ****   int32_t ret;
 7719              		.loc 1 3029 3 is_stmt 1 view .LVU1960
3030:Drivers/lsm303agr/Src/lsm303agr_reg.c **** 
3031:Drivers/lsm303agr/Src/lsm303agr_reg.c ****   ret = lsm303agr_write_reg(ctx, LSM303AGR_CTRL_REG6_A, (uint8_t *) val, 1);
 7720              		.loc 1 3031 3 view .LVU1961
 7721              		.loc 1 3031 9 is_stmt 0 view .LVU1962
 7722 0004 0123     		movs	r3, #1
 7723 0006 2521     		movs	r1, #37
 7724              	.LVL531:
 7725              		.loc 1 3031 9 view .LVU1963
 7726 0008 FFF7FEFF 		bl	lsm303agr_write_reg
 7727              	.LVL532:
3032:Drivers/lsm303agr/Src/lsm303agr_reg.c **** 
3033:Drivers/lsm303agr/Src/lsm303agr_reg.c ****   return ret;
 7728              		.loc 1 3033 3 is_stmt 1 view .LVU1964
3034:Drivers/lsm303agr/Src/lsm303agr_reg.c **** }
ARM GAS  C:\Users\SF\AppData\Local\Temp\ccFGOSN0.s 			page 197


 7729              		.loc 1 3034 1 is_stmt 0 view .LVU1965
 7730 000c 08BD     		pop	{r3, pc}
 7731              		.cfi_endproc
 7732              	.LFE246:
 7734              		.section	.text.lsm303agr_xl_pin_int2_config_get,"ax",%progbits
 7735              		.align	1
 7736              		.global	lsm303agr_xl_pin_int2_config_get
 7737              		.syntax unified
 7738              		.thumb
 7739              		.thumb_func
 7741              	lsm303agr_xl_pin_int2_config_get:
 7742              	.LVL533:
 7743              	.LFB247:
3035:Drivers/lsm303agr/Src/lsm303agr_reg.c **** 
3036:Drivers/lsm303agr/Src/lsm303agr_reg.c **** /**
3037:Drivers/lsm303agr/Src/lsm303agr_reg.c ****   * @brief  Int2 pin routing configuration register.[get]
3038:Drivers/lsm303agr/Src/lsm303agr_reg.c ****   *
3039:Drivers/lsm303agr/Src/lsm303agr_reg.c ****   * @param  ctx    Read / write interface definitions.(ptr)
3040:Drivers/lsm303agr/Src/lsm303agr_reg.c ****   * @param  val    Get registers CTRL_REG6_A.(ptr)
3041:Drivers/lsm303agr/Src/lsm303agr_reg.c ****   * @retval        Interface status (MANDATORY: return 0 -> no Error).
3042:Drivers/lsm303agr/Src/lsm303agr_reg.c ****   *
3043:Drivers/lsm303agr/Src/lsm303agr_reg.c ****   */
3044:Drivers/lsm303agr/Src/lsm303agr_reg.c **** int32_t lsm303agr_xl_pin_int2_config_get(stmdev_ctx_t *ctx,
3045:Drivers/lsm303agr/Src/lsm303agr_reg.c ****                                          lsm303agr_ctrl_reg6_a_t *val)
3046:Drivers/lsm303agr/Src/lsm303agr_reg.c **** {
 7744              		.loc 1 3046 1 is_stmt 1 view -0
 7745              		.cfi_startproc
 7746              		@ args = 0, pretend = 0, frame = 0
 7747              		@ frame_needed = 0, uses_anonymous_args = 0
 7748              		.loc 1 3046 1 is_stmt 0 view .LVU1967
 7749 0000 08B5     		push	{r3, lr}
 7750              	.LCFI319:
 7751              		.cfi_def_cfa_offset 8
 7752              		.cfi_offset 3, -8
 7753              		.cfi_offset 14, -4
 7754 0002 0A46     		mov	r2, r1
3047:Drivers/lsm303agr/Src/lsm303agr_reg.c ****   int32_t ret;
 7755              		.loc 1 3047 3 is_stmt 1 view .LVU1968
3048:Drivers/lsm303agr/Src/lsm303agr_reg.c **** 
3049:Drivers/lsm303agr/Src/lsm303agr_reg.c ****   ret = lsm303agr_read_reg(ctx, LSM303AGR_CTRL_REG6_A, (uint8_t *) val, 1);
 7756              		.loc 1 3049 3 view .LVU1969
 7757              		.loc 1 3049 9 is_stmt 0 view .LVU1970
 7758 0004 0123     		movs	r3, #1
 7759 0006 2521     		movs	r1, #37
 7760              	.LVL534:
 7761              		.loc 1 3049 9 view .LVU1971
 7762 0008 FFF7FEFF 		bl	lsm303agr_read_reg
 7763              	.LVL535:
3050:Drivers/lsm303agr/Src/lsm303agr_reg.c **** 
3051:Drivers/lsm303agr/Src/lsm303agr_reg.c ****   return ret;
 7764              		.loc 1 3051 3 is_stmt 1 view .LVU1972
3052:Drivers/lsm303agr/Src/lsm303agr_reg.c **** }
 7765              		.loc 1 3052 1 is_stmt 0 view .LVU1973
 7766 000c 08BD     		pop	{r3, pc}
 7767              		.cfi_endproc
 7768              	.LFE247:
 7770              		.section	.text.lsm303agr_mag_offset_int_conf_set,"ax",%progbits
ARM GAS  C:\Users\SF\AppData\Local\Temp\ccFGOSN0.s 			page 198


 7771              		.align	1
 7772              		.global	lsm303agr_mag_offset_int_conf_set
 7773              		.syntax unified
 7774              		.thumb
 7775              		.thumb_func
 7777              	lsm303agr_mag_offset_int_conf_set:
 7778              	.LVL536:
 7779              	.LFB248:
3053:Drivers/lsm303agr/Src/lsm303agr_reg.c **** 
3054:Drivers/lsm303agr/Src/lsm303agr_reg.c **** /**
3055:Drivers/lsm303agr/Src/lsm303agr_reg.c ****   * @}
3056:Drivers/lsm303agr/Src/lsm303agr_reg.c ****   *
3057:Drivers/lsm303agr/Src/lsm303agr_reg.c ****   */
3058:Drivers/lsm303agr/Src/lsm303agr_reg.c **** 
3059:Drivers/lsm303agr/Src/lsm303agr_reg.c **** /**
3060:Drivers/lsm303agr/Src/lsm303agr_reg.c ****   * @addtogroup  magnetometer interrupts
3061:Drivers/lsm303agr/Src/lsm303agr_reg.c ****   * @brief       This section group all the functions that manage the
3062:Drivers/lsm303agr/Src/lsm303agr_reg.c ****   *              magnetometer interrupts
3063:Drivers/lsm303agr/Src/lsm303agr_reg.c ****   * @{
3064:Drivers/lsm303agr/Src/lsm303agr_reg.c ****   *
3065:Drivers/lsm303agr/Src/lsm303agr_reg.c ****   */
3066:Drivers/lsm303agr/Src/lsm303agr_reg.c **** 
3067:Drivers/lsm303agr/Src/lsm303agr_reg.c **** /**
3068:Drivers/lsm303agr/Src/lsm303agr_reg.c ****   * @brief  The interrupt block recognition checks
3069:Drivers/lsm303agr/Src/lsm303agr_reg.c ****   *         data after/before the hard-iron correction
3070:Drivers/lsm303agr/Src/lsm303agr_reg.c ****   *         to discover the interrupt.[set]
3071:Drivers/lsm303agr/Src/lsm303agr_reg.c ****   *
3072:Drivers/lsm303agr/Src/lsm303agr_reg.c ****   * @param  ctx    Read / write interface definitions.(ptr)
3073:Drivers/lsm303agr/Src/lsm303agr_reg.c ****   * @param  val    Change the values of int_on_dataoff in reg CFG_REG_B_M
3074:Drivers/lsm303agr/Src/lsm303agr_reg.c ****   * @retval        Interface status (MANDATORY: return 0 -> no Error).
3075:Drivers/lsm303agr/Src/lsm303agr_reg.c ****   *
3076:Drivers/lsm303agr/Src/lsm303agr_reg.c ****   */
3077:Drivers/lsm303agr/Src/lsm303agr_reg.c **** int32_t lsm303agr_mag_offset_int_conf_set(stmdev_ctx_t *ctx,
3078:Drivers/lsm303agr/Src/lsm303agr_reg.c ****                                           lsm303agr_int_on_dataoff_m_t val)
3079:Drivers/lsm303agr/Src/lsm303agr_reg.c **** {
 7780              		.loc 1 3079 1 is_stmt 1 view -0
 7781              		.cfi_startproc
 7782              		@ args = 0, pretend = 0, frame = 8
 7783              		@ frame_needed = 0, uses_anonymous_args = 0
 7784              		.loc 1 3079 1 is_stmt 0 view .LVU1975
 7785 0000 30B5     		push	{r4, r5, lr}
 7786              	.LCFI320:
 7787              		.cfi_def_cfa_offset 12
 7788              		.cfi_offset 4, -12
 7789              		.cfi_offset 5, -8
 7790              		.cfi_offset 14, -4
 7791 0002 83B0     		sub	sp, sp, #12
 7792              	.LCFI321:
 7793              		.cfi_def_cfa_offset 24
 7794 0004 0446     		mov	r4, r0
 7795 0006 0D46     		mov	r5, r1
3080:Drivers/lsm303agr/Src/lsm303agr_reg.c ****   lsm303agr_cfg_reg_b_m_t cfg_reg_b_m;
 7796              		.loc 1 3080 3 is_stmt 1 view .LVU1976
3081:Drivers/lsm303agr/Src/lsm303agr_reg.c ****   int32_t ret;
 7797              		.loc 1 3081 3 view .LVU1977
3082:Drivers/lsm303agr/Src/lsm303agr_reg.c **** 
3083:Drivers/lsm303agr/Src/lsm303agr_reg.c ****   ret = lsm303agr_read_reg(ctx, LSM303AGR_CFG_REG_B_M,
ARM GAS  C:\Users\SF\AppData\Local\Temp\ccFGOSN0.s 			page 199


 7798              		.loc 1 3083 3 view .LVU1978
 7799              		.loc 1 3083 9 is_stmt 0 view .LVU1979
 7800 0008 0123     		movs	r3, #1
 7801 000a 01AA     		add	r2, sp, #4
 7802 000c 6121     		movs	r1, #97
 7803              	.LVL537:
 7804              		.loc 1 3083 9 view .LVU1980
 7805 000e FFF7FEFF 		bl	lsm303agr_read_reg
 7806              	.LVL538:
3084:Drivers/lsm303agr/Src/lsm303agr_reg.c ****                            (uint8_t *)&cfg_reg_b_m, 1);
3085:Drivers/lsm303agr/Src/lsm303agr_reg.c **** 
3086:Drivers/lsm303agr/Src/lsm303agr_reg.c ****   if (ret == 0)
 7807              		.loc 1 3086 3 is_stmt 1 view .LVU1981
 7808              		.loc 1 3086 6 is_stmt 0 view .LVU1982
 7809 0012 08B1     		cbz	r0, .L459
 7810              	.LVL539:
 7811              	.L456:
3087:Drivers/lsm303agr/Src/lsm303agr_reg.c ****   {
3088:Drivers/lsm303agr/Src/lsm303agr_reg.c ****     cfg_reg_b_m.int_on_dataoff = (uint8_t)val;
3089:Drivers/lsm303agr/Src/lsm303agr_reg.c ****     ret = lsm303agr_write_reg(ctx, LSM303AGR_CFG_REG_B_M,
3090:Drivers/lsm303agr/Src/lsm303agr_reg.c ****                               (uint8_t *)&cfg_reg_b_m, 1);
3091:Drivers/lsm303agr/Src/lsm303agr_reg.c ****   }
3092:Drivers/lsm303agr/Src/lsm303agr_reg.c **** 
3093:Drivers/lsm303agr/Src/lsm303agr_reg.c ****   return ret;
3094:Drivers/lsm303agr/Src/lsm303agr_reg.c **** }
 7812              		.loc 1 3094 1 view .LVU1983
 7813 0014 03B0     		add	sp, sp, #12
 7814              	.LCFI322:
 7815              		.cfi_remember_state
 7816              		.cfi_def_cfa_offset 12
 7817              		@ sp needed
 7818 0016 30BD     		pop	{r4, r5, pc}
 7819              	.LVL540:
 7820              	.L459:
 7821              	.LCFI323:
 7822              		.cfi_restore_state
3088:Drivers/lsm303agr/Src/lsm303agr_reg.c ****     ret = lsm303agr_write_reg(ctx, LSM303AGR_CFG_REG_B_M,
 7823              		.loc 1 3088 5 is_stmt 1 view .LVU1984
3088:Drivers/lsm303agr/Src/lsm303agr_reg.c ****     ret = lsm303agr_write_reg(ctx, LSM303AGR_CFG_REG_B_M,
 7824              		.loc 1 3088 32 is_stmt 0 view .LVU1985
 7825 0018 9DF80430 		ldrb	r3, [sp, #4]	@ zero_extendqisi2
 7826 001c 65F3C303 		bfi	r3, r5, #3, #1
 7827 0020 8DF80430 		strb	r3, [sp, #4]
3089:Drivers/lsm303agr/Src/lsm303agr_reg.c ****                               (uint8_t *)&cfg_reg_b_m, 1);
 7828              		.loc 1 3089 5 is_stmt 1 view .LVU1986
3089:Drivers/lsm303agr/Src/lsm303agr_reg.c ****                               (uint8_t *)&cfg_reg_b_m, 1);
 7829              		.loc 1 3089 11 is_stmt 0 view .LVU1987
 7830 0024 0123     		movs	r3, #1
 7831              	.LVL541:
3089:Drivers/lsm303agr/Src/lsm303agr_reg.c ****                               (uint8_t *)&cfg_reg_b_m, 1);
 7832              		.loc 1 3089 11 view .LVU1988
 7833 0026 01AA     		add	r2, sp, #4
 7834 0028 6121     		movs	r1, #97
 7835 002a 2046     		mov	r0, r4
 7836 002c FFF7FEFF 		bl	lsm303agr_write_reg
 7837              	.LVL542:
3093:Drivers/lsm303agr/Src/lsm303agr_reg.c **** }
ARM GAS  C:\Users\SF\AppData\Local\Temp\ccFGOSN0.s 			page 200


 7838              		.loc 1 3093 3 is_stmt 1 view .LVU1989
3093:Drivers/lsm303agr/Src/lsm303agr_reg.c **** }
 7839              		.loc 1 3093 10 is_stmt 0 view .LVU1990
 7840 0030 F0E7     		b	.L456
 7841              		.cfi_endproc
 7842              	.LFE248:
 7844              		.section	.text.lsm303agr_mag_offset_int_conf_get,"ax",%progbits
 7845              		.align	1
 7846              		.global	lsm303agr_mag_offset_int_conf_get
 7847              		.syntax unified
 7848              		.thumb
 7849              		.thumb_func
 7851              	lsm303agr_mag_offset_int_conf_get:
 7852              	.LVL543:
 7853              	.LFB249:
3095:Drivers/lsm303agr/Src/lsm303agr_reg.c **** 
3096:Drivers/lsm303agr/Src/lsm303agr_reg.c **** /**
3097:Drivers/lsm303agr/Src/lsm303agr_reg.c ****   * @brief  The interrupt block recognition checks
3098:Drivers/lsm303agr/Src/lsm303agr_reg.c ****   *         data after/before the hard-iron correction
3099:Drivers/lsm303agr/Src/lsm303agr_reg.c ****   *         to discover the interrupt.[get]
3100:Drivers/lsm303agr/Src/lsm303agr_reg.c ****   *
3101:Drivers/lsm303agr/Src/lsm303agr_reg.c ****   * @param  ctx    Read / write interface definitions.(ptr)
3102:Drivers/lsm303agr/Src/lsm303agr_reg.c ****   * @param  val    Get the values of int_on_dataoff in reg CFG_REG_B_M.(ptr)
3103:Drivers/lsm303agr/Src/lsm303agr_reg.c ****   * @retval        Interface status (MANDATORY: return 0 -> no Error).
3104:Drivers/lsm303agr/Src/lsm303agr_reg.c ****   *
3105:Drivers/lsm303agr/Src/lsm303agr_reg.c ****   */
3106:Drivers/lsm303agr/Src/lsm303agr_reg.c **** int32_t lsm303agr_mag_offset_int_conf_get(stmdev_ctx_t *ctx,
3107:Drivers/lsm303agr/Src/lsm303agr_reg.c ****                                           lsm303agr_int_on_dataoff_m_t *val)
3108:Drivers/lsm303agr/Src/lsm303agr_reg.c **** {
 7854              		.loc 1 3108 1 is_stmt 1 view -0
 7855              		.cfi_startproc
 7856              		@ args = 0, pretend = 0, frame = 8
 7857              		@ frame_needed = 0, uses_anonymous_args = 0
 7858              		.loc 1 3108 1 is_stmt 0 view .LVU1992
 7859 0000 10B5     		push	{r4, lr}
 7860              	.LCFI324:
 7861              		.cfi_def_cfa_offset 8
 7862              		.cfi_offset 4, -8
 7863              		.cfi_offset 14, -4
 7864 0002 82B0     		sub	sp, sp, #8
 7865              	.LCFI325:
 7866              		.cfi_def_cfa_offset 16
 7867 0004 0C46     		mov	r4, r1
3109:Drivers/lsm303agr/Src/lsm303agr_reg.c ****   lsm303agr_cfg_reg_b_m_t cfg_reg_b_m;
 7868              		.loc 1 3109 3 is_stmt 1 view .LVU1993
3110:Drivers/lsm303agr/Src/lsm303agr_reg.c ****   int32_t ret;
 7869              		.loc 1 3110 3 view .LVU1994
3111:Drivers/lsm303agr/Src/lsm303agr_reg.c **** 
3112:Drivers/lsm303agr/Src/lsm303agr_reg.c ****   ret = lsm303agr_read_reg(ctx, LSM303AGR_CFG_REG_B_M,
 7870              		.loc 1 3112 3 view .LVU1995
 7871              		.loc 1 3112 9 is_stmt 0 view .LVU1996
 7872 0006 0123     		movs	r3, #1
 7873 0008 01AA     		add	r2, sp, #4
 7874 000a 6121     		movs	r1, #97
 7875              	.LVL544:
 7876              		.loc 1 3112 9 view .LVU1997
 7877 000c FFF7FEFF 		bl	lsm303agr_read_reg
ARM GAS  C:\Users\SF\AppData\Local\Temp\ccFGOSN0.s 			page 201


 7878              	.LVL545:
3113:Drivers/lsm303agr/Src/lsm303agr_reg.c ****                            (uint8_t *)&cfg_reg_b_m, 1);
3114:Drivers/lsm303agr/Src/lsm303agr_reg.c **** 
3115:Drivers/lsm303agr/Src/lsm303agr_reg.c ****   switch (cfg_reg_b_m.int_on_dataoff)
 7879              		.loc 1 3115 3 is_stmt 1 view .LVU1998
 7880              		.loc 1 3115 22 is_stmt 0 view .LVU1999
 7881 0010 9DF80430 		ldrb	r3, [sp, #4]	@ zero_extendqisi2
 7882 0014 C3F3C002 		ubfx	r2, r3, #3, #1
 7883              		.loc 1 3115 3 view .LVU2000
 7884 0018 13F0080F 		tst	r3, #8
 7885 001c 03D0     		beq	.L461
 7886 001e 32B9     		cbnz	r2, .L462
3116:Drivers/lsm303agr/Src/lsm303agr_reg.c ****   {
3117:Drivers/lsm303agr/Src/lsm303agr_reg.c ****     case LSM303AGR_CHECK_BEFORE:
3118:Drivers/lsm303agr/Src/lsm303agr_reg.c ****       *val = LSM303AGR_CHECK_BEFORE;
3119:Drivers/lsm303agr/Src/lsm303agr_reg.c ****       break;
3120:Drivers/lsm303agr/Src/lsm303agr_reg.c **** 
3121:Drivers/lsm303agr/Src/lsm303agr_reg.c ****     case LSM303AGR_CHECK_AFTER:
3122:Drivers/lsm303agr/Src/lsm303agr_reg.c ****       *val = LSM303AGR_CHECK_AFTER;
3123:Drivers/lsm303agr/Src/lsm303agr_reg.c ****       break;
3124:Drivers/lsm303agr/Src/lsm303agr_reg.c **** 
3125:Drivers/lsm303agr/Src/lsm303agr_reg.c ****     default:
3126:Drivers/lsm303agr/Src/lsm303agr_reg.c ****       *val = LSM303AGR_CHECK_BEFORE;
 7887              		.loc 1 3126 7 is_stmt 1 view .LVU2001
 7888              		.loc 1 3126 12 is_stmt 0 view .LVU2002
 7889 0020 0023     		movs	r3, #0
 7890 0022 2370     		strb	r3, [r4]
3127:Drivers/lsm303agr/Src/lsm303agr_reg.c ****       break;
 7891              		.loc 1 3127 7 is_stmt 1 view .LVU2003
3128:Drivers/lsm303agr/Src/lsm303agr_reg.c ****   }
3129:Drivers/lsm303agr/Src/lsm303agr_reg.c **** 
3130:Drivers/lsm303agr/Src/lsm303agr_reg.c ****   return ret;
 7892              		.loc 1 3130 3 view .LVU2004
 7893              		.loc 1 3130 10 is_stmt 0 view .LVU2005
 7894 0024 01E0     		b	.L460
 7895              	.L461:
3118:Drivers/lsm303agr/Src/lsm303agr_reg.c ****       break;
 7896              		.loc 1 3118 7 is_stmt 1 view .LVU2006
3118:Drivers/lsm303agr/Src/lsm303agr_reg.c ****       break;
 7897              		.loc 1 3118 12 is_stmt 0 view .LVU2007
 7898 0026 0023     		movs	r3, #0
 7899 0028 2370     		strb	r3, [r4]
3119:Drivers/lsm303agr/Src/lsm303agr_reg.c **** 
 7900              		.loc 1 3119 7 is_stmt 1 view .LVU2008
 7901              	.L460:
3131:Drivers/lsm303agr/Src/lsm303agr_reg.c **** }
 7902              		.loc 1 3131 1 is_stmt 0 view .LVU2009
 7903 002a 02B0     		add	sp, sp, #8
 7904              	.LCFI326:
 7905              		.cfi_remember_state
 7906              		.cfi_def_cfa_offset 8
 7907              		@ sp needed
 7908 002c 10BD     		pop	{r4, pc}
 7909              	.LVL546:
 7910              	.L462:
 7911              	.LCFI327:
 7912              		.cfi_restore_state
ARM GAS  C:\Users\SF\AppData\Local\Temp\ccFGOSN0.s 			page 202


3122:Drivers/lsm303agr/Src/lsm303agr_reg.c ****       break;
 7913              		.loc 1 3122 7 is_stmt 1 view .LVU2010
3122:Drivers/lsm303agr/Src/lsm303agr_reg.c ****       break;
 7914              		.loc 1 3122 12 is_stmt 0 view .LVU2011
 7915 002e 0123     		movs	r3, #1
 7916 0030 2370     		strb	r3, [r4]
3123:Drivers/lsm303agr/Src/lsm303agr_reg.c **** 
 7917              		.loc 1 3123 7 is_stmt 1 view .LVU2012
 7918 0032 FAE7     		b	.L460
 7919              		.cfi_endproc
 7920              	.LFE249:
 7922              		.section	.text.lsm303agr_mag_drdy_on_pin_set,"ax",%progbits
 7923              		.align	1
 7924              		.global	lsm303agr_mag_drdy_on_pin_set
 7925              		.syntax unified
 7926              		.thumb
 7927              		.thumb_func
 7929              	lsm303agr_mag_drdy_on_pin_set:
 7930              	.LVL547:
 7931              	.LFB250:
3132:Drivers/lsm303agr/Src/lsm303agr_reg.c **** 
3133:Drivers/lsm303agr/Src/lsm303agr_reg.c **** /**
3134:Drivers/lsm303agr/Src/lsm303agr_reg.c ****   * @brief  Data-ready signal on INT_DRDY pin.[set]
3135:Drivers/lsm303agr/Src/lsm303agr_reg.c ****   *
3136:Drivers/lsm303agr/Src/lsm303agr_reg.c ****   * @param  ctx    Read / write interface definitions.(ptr)
3137:Drivers/lsm303agr/Src/lsm303agr_reg.c ****   * @param  val    Change the values of drdy_on_pin in reg CFG_REG_C_M
3138:Drivers/lsm303agr/Src/lsm303agr_reg.c ****   * @retval        Interface status (MANDATORY: return 0 -> no Error).
3139:Drivers/lsm303agr/Src/lsm303agr_reg.c ****   *
3140:Drivers/lsm303agr/Src/lsm303agr_reg.c ****   */
3141:Drivers/lsm303agr/Src/lsm303agr_reg.c **** int32_t lsm303agr_mag_drdy_on_pin_set(stmdev_ctx_t *ctx, uint8_t val)
3142:Drivers/lsm303agr/Src/lsm303agr_reg.c **** {
 7932              		.loc 1 3142 1 view -0
 7933              		.cfi_startproc
 7934              		@ args = 0, pretend = 0, frame = 8
 7935              		@ frame_needed = 0, uses_anonymous_args = 0
 7936              		.loc 1 3142 1 is_stmt 0 view .LVU2014
 7937 0000 30B5     		push	{r4, r5, lr}
 7938              	.LCFI328:
 7939              		.cfi_def_cfa_offset 12
 7940              		.cfi_offset 4, -12
 7941              		.cfi_offset 5, -8
 7942              		.cfi_offset 14, -4
 7943 0002 83B0     		sub	sp, sp, #12
 7944              	.LCFI329:
 7945              		.cfi_def_cfa_offset 24
 7946 0004 0446     		mov	r4, r0
 7947 0006 0D46     		mov	r5, r1
3143:Drivers/lsm303agr/Src/lsm303agr_reg.c ****   lsm303agr_cfg_reg_c_m_t cfg_reg_c_m;
 7948              		.loc 1 3143 3 is_stmt 1 view .LVU2015
3144:Drivers/lsm303agr/Src/lsm303agr_reg.c ****   int32_t ret;
 7949              		.loc 1 3144 3 view .LVU2016
3145:Drivers/lsm303agr/Src/lsm303agr_reg.c **** 
3146:Drivers/lsm303agr/Src/lsm303agr_reg.c ****   ret = lsm303agr_read_reg(ctx, LSM303AGR_CFG_REG_C_M,
 7950              		.loc 1 3146 3 view .LVU2017
 7951              		.loc 1 3146 9 is_stmt 0 view .LVU2018
 7952 0008 0123     		movs	r3, #1
 7953 000a 01AA     		add	r2, sp, #4
ARM GAS  C:\Users\SF\AppData\Local\Temp\ccFGOSN0.s 			page 203


 7954 000c 6221     		movs	r1, #98
 7955              	.LVL548:
 7956              		.loc 1 3146 9 view .LVU2019
 7957 000e FFF7FEFF 		bl	lsm303agr_read_reg
 7958              	.LVL549:
3147:Drivers/lsm303agr/Src/lsm303agr_reg.c ****                            (uint8_t *)&cfg_reg_c_m, 1);
3148:Drivers/lsm303agr/Src/lsm303agr_reg.c **** 
3149:Drivers/lsm303agr/Src/lsm303agr_reg.c ****   if (ret == 0)
 7959              		.loc 1 3149 3 is_stmt 1 view .LVU2020
 7960              		.loc 1 3149 6 is_stmt 0 view .LVU2021
 7961 0012 08B1     		cbz	r0, .L470
 7962              	.LVL550:
 7963              	.L467:
3150:Drivers/lsm303agr/Src/lsm303agr_reg.c ****   {
3151:Drivers/lsm303agr/Src/lsm303agr_reg.c ****     cfg_reg_c_m.int_mag = (uint8_t)val;
3152:Drivers/lsm303agr/Src/lsm303agr_reg.c ****     ret = lsm303agr_write_reg(ctx, LSM303AGR_CFG_REG_C_M,
3153:Drivers/lsm303agr/Src/lsm303agr_reg.c ****                               (uint8_t *)&cfg_reg_c_m, 1);
3154:Drivers/lsm303agr/Src/lsm303agr_reg.c ****   }
3155:Drivers/lsm303agr/Src/lsm303agr_reg.c **** 
3156:Drivers/lsm303agr/Src/lsm303agr_reg.c ****   return ret;
3157:Drivers/lsm303agr/Src/lsm303agr_reg.c **** }
 7964              		.loc 1 3157 1 view .LVU2022
 7965 0014 03B0     		add	sp, sp, #12
 7966              	.LCFI330:
 7967              		.cfi_remember_state
 7968              		.cfi_def_cfa_offset 12
 7969              		@ sp needed
 7970 0016 30BD     		pop	{r4, r5, pc}
 7971              	.LVL551:
 7972              	.L470:
 7973              	.LCFI331:
 7974              		.cfi_restore_state
3151:Drivers/lsm303agr/Src/lsm303agr_reg.c ****     ret = lsm303agr_write_reg(ctx, LSM303AGR_CFG_REG_C_M,
 7975              		.loc 1 3151 5 is_stmt 1 view .LVU2023
3151:Drivers/lsm303agr/Src/lsm303agr_reg.c ****     ret = lsm303agr_write_reg(ctx, LSM303AGR_CFG_REG_C_M,
 7976              		.loc 1 3151 25 is_stmt 0 view .LVU2024
 7977 0018 9DF80430 		ldrb	r3, [sp, #4]	@ zero_extendqisi2
 7978 001c 65F30003 		bfi	r3, r5, #0, #1
 7979 0020 8DF80430 		strb	r3, [sp, #4]
3152:Drivers/lsm303agr/Src/lsm303agr_reg.c ****                               (uint8_t *)&cfg_reg_c_m, 1);
 7980              		.loc 1 3152 5 is_stmt 1 view .LVU2025
3152:Drivers/lsm303agr/Src/lsm303agr_reg.c ****                               (uint8_t *)&cfg_reg_c_m, 1);
 7981              		.loc 1 3152 11 is_stmt 0 view .LVU2026
 7982 0024 0123     		movs	r3, #1
 7983              	.LVL552:
3152:Drivers/lsm303agr/Src/lsm303agr_reg.c ****                               (uint8_t *)&cfg_reg_c_m, 1);
 7984              		.loc 1 3152 11 view .LVU2027
 7985 0026 01AA     		add	r2, sp, #4
 7986 0028 6221     		movs	r1, #98
 7987 002a 2046     		mov	r0, r4
 7988 002c FFF7FEFF 		bl	lsm303agr_write_reg
 7989              	.LVL553:
3156:Drivers/lsm303agr/Src/lsm303agr_reg.c **** }
 7990              		.loc 1 3156 3 is_stmt 1 view .LVU2028
3156:Drivers/lsm303agr/Src/lsm303agr_reg.c **** }
 7991              		.loc 1 3156 10 is_stmt 0 view .LVU2029
 7992 0030 F0E7     		b	.L467
ARM GAS  C:\Users\SF\AppData\Local\Temp\ccFGOSN0.s 			page 204


 7993              		.cfi_endproc
 7994              	.LFE250:
 7996              		.section	.text.lsm303agr_mag_drdy_on_pin_get,"ax",%progbits
 7997              		.align	1
 7998              		.global	lsm303agr_mag_drdy_on_pin_get
 7999              		.syntax unified
 8000              		.thumb
 8001              		.thumb_func
 8003              	lsm303agr_mag_drdy_on_pin_get:
 8004              	.LVL554:
 8005              	.LFB251:
3158:Drivers/lsm303agr/Src/lsm303agr_reg.c **** 
3159:Drivers/lsm303agr/Src/lsm303agr_reg.c **** /**
3160:Drivers/lsm303agr/Src/lsm303agr_reg.c ****   * @brief  Data-ready signal on INT_DRDY pin.[get]
3161:Drivers/lsm303agr/Src/lsm303agr_reg.c ****   *
3162:Drivers/lsm303agr/Src/lsm303agr_reg.c ****   * @param  ctx    Read / write interface definitions.(ptr)
3163:Drivers/lsm303agr/Src/lsm303agr_reg.c ****   * @param  val    Get the values of drdy_on_pin in reg CFG_REG_C_M.(ptr)
3164:Drivers/lsm303agr/Src/lsm303agr_reg.c ****   * @retval        Interface status (MANDATORY: return 0 -> no Error).
3165:Drivers/lsm303agr/Src/lsm303agr_reg.c ****   *
3166:Drivers/lsm303agr/Src/lsm303agr_reg.c ****   */
3167:Drivers/lsm303agr/Src/lsm303agr_reg.c **** int32_t lsm303agr_mag_drdy_on_pin_get(stmdev_ctx_t *ctx, uint8_t *val)
3168:Drivers/lsm303agr/Src/lsm303agr_reg.c **** {
 8006              		.loc 1 3168 1 is_stmt 1 view -0
 8007              		.cfi_startproc
 8008              		@ args = 0, pretend = 0, frame = 8
 8009              		@ frame_needed = 0, uses_anonymous_args = 0
 8010              		.loc 1 3168 1 is_stmt 0 view .LVU2031
 8011 0000 10B5     		push	{r4, lr}
 8012              	.LCFI332:
 8013              		.cfi_def_cfa_offset 8
 8014              		.cfi_offset 4, -8
 8015              		.cfi_offset 14, -4
 8016 0002 82B0     		sub	sp, sp, #8
 8017              	.LCFI333:
 8018              		.cfi_def_cfa_offset 16
 8019 0004 0C46     		mov	r4, r1
3169:Drivers/lsm303agr/Src/lsm303agr_reg.c ****   lsm303agr_cfg_reg_c_m_t cfg_reg_c_m;
 8020              		.loc 1 3169 3 is_stmt 1 view .LVU2032
3170:Drivers/lsm303agr/Src/lsm303agr_reg.c ****   int32_t ret;
 8021              		.loc 1 3170 3 view .LVU2033
3171:Drivers/lsm303agr/Src/lsm303agr_reg.c **** 
3172:Drivers/lsm303agr/Src/lsm303agr_reg.c ****   ret = lsm303agr_read_reg(ctx, LSM303AGR_CFG_REG_C_M,
 8022              		.loc 1 3172 3 view .LVU2034
 8023              		.loc 1 3172 9 is_stmt 0 view .LVU2035
 8024 0006 0123     		movs	r3, #1
 8025 0008 01AA     		add	r2, sp, #4
 8026 000a 6221     		movs	r1, #98
 8027              	.LVL555:
 8028              		.loc 1 3172 9 view .LVU2036
 8029 000c FFF7FEFF 		bl	lsm303agr_read_reg
 8030              	.LVL556:
3173:Drivers/lsm303agr/Src/lsm303agr_reg.c ****                            (uint8_t *)&cfg_reg_c_m, 1);
3174:Drivers/lsm303agr/Src/lsm303agr_reg.c ****   *val = cfg_reg_c_m.int_mag;
 8031              		.loc 1 3174 3 is_stmt 1 view .LVU2037
 8032              		.loc 1 3174 21 is_stmt 0 view .LVU2038
 8033 0010 9DF80430 		ldrb	r3, [sp, #4]	@ zero_extendqisi2
 8034 0014 C3F30003 		ubfx	r3, r3, #0, #1
ARM GAS  C:\Users\SF\AppData\Local\Temp\ccFGOSN0.s 			page 205


 8035              		.loc 1 3174 8 view .LVU2039
 8036 0018 2370     		strb	r3, [r4]
3175:Drivers/lsm303agr/Src/lsm303agr_reg.c **** 
3176:Drivers/lsm303agr/Src/lsm303agr_reg.c ****   return ret;
 8037              		.loc 1 3176 3 is_stmt 1 view .LVU2040
3177:Drivers/lsm303agr/Src/lsm303agr_reg.c **** }
 8038              		.loc 1 3177 1 is_stmt 0 view .LVU2041
 8039 001a 02B0     		add	sp, sp, #8
 8040              	.LCFI334:
 8041              		.cfi_def_cfa_offset 8
 8042              		@ sp needed
 8043 001c 10BD     		pop	{r4, pc}
 8044              		.loc 1 3177 1 view .LVU2042
 8045              		.cfi_endproc
 8046              	.LFE251:
 8048              		.section	.text.lsm303agr_mag_int_on_pin_set,"ax",%progbits
 8049              		.align	1
 8050              		.global	lsm303agr_mag_int_on_pin_set
 8051              		.syntax unified
 8052              		.thumb
 8053              		.thumb_func
 8055              	lsm303agr_mag_int_on_pin_set:
 8056              	.LVL557:
 8057              	.LFB252:
3178:Drivers/lsm303agr/Src/lsm303agr_reg.c **** 
3179:Drivers/lsm303agr/Src/lsm303agr_reg.c **** /**
3180:Drivers/lsm303agr/Src/lsm303agr_reg.c ****   * @brief  Interrupt signal on INT_DRDY pin.[set]
3181:Drivers/lsm303agr/Src/lsm303agr_reg.c ****   *
3182:Drivers/lsm303agr/Src/lsm303agr_reg.c ****   * @param  ctx    Read / write interface definitions.(ptr)
3183:Drivers/lsm303agr/Src/lsm303agr_reg.c ****   * @param  val    Change the values of int_on_pin in reg CFG_REG_C_M
3184:Drivers/lsm303agr/Src/lsm303agr_reg.c ****   * @retval        Interface status (MANDATORY: return 0 -> no Error).
3185:Drivers/lsm303agr/Src/lsm303agr_reg.c ****   *
3186:Drivers/lsm303agr/Src/lsm303agr_reg.c ****   */
3187:Drivers/lsm303agr/Src/lsm303agr_reg.c **** int32_t lsm303agr_mag_int_on_pin_set(stmdev_ctx_t *ctx, uint8_t val)
3188:Drivers/lsm303agr/Src/lsm303agr_reg.c **** {
 8058              		.loc 1 3188 1 is_stmt 1 view -0
 8059              		.cfi_startproc
 8060              		@ args = 0, pretend = 0, frame = 8
 8061              		@ frame_needed = 0, uses_anonymous_args = 0
 8062              		.loc 1 3188 1 is_stmt 0 view .LVU2044
 8063 0000 30B5     		push	{r4, r5, lr}
 8064              	.LCFI335:
 8065              		.cfi_def_cfa_offset 12
 8066              		.cfi_offset 4, -12
 8067              		.cfi_offset 5, -8
 8068              		.cfi_offset 14, -4
 8069 0002 83B0     		sub	sp, sp, #12
 8070              	.LCFI336:
 8071              		.cfi_def_cfa_offset 24
 8072 0004 0446     		mov	r4, r0
 8073 0006 0D46     		mov	r5, r1
3189:Drivers/lsm303agr/Src/lsm303agr_reg.c ****   lsm303agr_cfg_reg_c_m_t cfg_reg_c_m;
 8074              		.loc 1 3189 3 is_stmt 1 view .LVU2045
3190:Drivers/lsm303agr/Src/lsm303agr_reg.c ****   int32_t ret;
 8075              		.loc 1 3190 3 view .LVU2046
3191:Drivers/lsm303agr/Src/lsm303agr_reg.c **** 
3192:Drivers/lsm303agr/Src/lsm303agr_reg.c ****   ret = lsm303agr_read_reg(ctx, LSM303AGR_CFG_REG_C_M,
ARM GAS  C:\Users\SF\AppData\Local\Temp\ccFGOSN0.s 			page 206


 8076              		.loc 1 3192 3 view .LVU2047
 8077              		.loc 1 3192 9 is_stmt 0 view .LVU2048
 8078 0008 0123     		movs	r3, #1
 8079 000a 01AA     		add	r2, sp, #4
 8080 000c 6221     		movs	r1, #98
 8081              	.LVL558:
 8082              		.loc 1 3192 9 view .LVU2049
 8083 000e FFF7FEFF 		bl	lsm303agr_read_reg
 8084              	.LVL559:
3193:Drivers/lsm303agr/Src/lsm303agr_reg.c ****                            (uint8_t *)&cfg_reg_c_m, 1);
3194:Drivers/lsm303agr/Src/lsm303agr_reg.c **** 
3195:Drivers/lsm303agr/Src/lsm303agr_reg.c ****   if (ret == 0)
 8085              		.loc 1 3195 3 is_stmt 1 view .LVU2050
 8086              		.loc 1 3195 6 is_stmt 0 view .LVU2051
 8087 0012 08B1     		cbz	r0, .L476
 8088              	.LVL560:
 8089              	.L473:
3196:Drivers/lsm303agr/Src/lsm303agr_reg.c ****   {
3197:Drivers/lsm303agr/Src/lsm303agr_reg.c ****     cfg_reg_c_m.int_mag_pin = (uint8_t)val;
3198:Drivers/lsm303agr/Src/lsm303agr_reg.c ****     ret = lsm303agr_write_reg(ctx, LSM303AGR_CFG_REG_C_M,
3199:Drivers/lsm303agr/Src/lsm303agr_reg.c ****                               (uint8_t *)&cfg_reg_c_m, 1);
3200:Drivers/lsm303agr/Src/lsm303agr_reg.c ****   }
3201:Drivers/lsm303agr/Src/lsm303agr_reg.c **** 
3202:Drivers/lsm303agr/Src/lsm303agr_reg.c ****   return ret;
3203:Drivers/lsm303agr/Src/lsm303agr_reg.c **** }
 8090              		.loc 1 3203 1 view .LVU2052
 8091 0014 03B0     		add	sp, sp, #12
 8092              	.LCFI337:
 8093              		.cfi_remember_state
 8094              		.cfi_def_cfa_offset 12
 8095              		@ sp needed
 8096 0016 30BD     		pop	{r4, r5, pc}
 8097              	.LVL561:
 8098              	.L476:
 8099              	.LCFI338:
 8100              		.cfi_restore_state
3197:Drivers/lsm303agr/Src/lsm303agr_reg.c ****     ret = lsm303agr_write_reg(ctx, LSM303AGR_CFG_REG_C_M,
 8101              		.loc 1 3197 5 is_stmt 1 view .LVU2053
3197:Drivers/lsm303agr/Src/lsm303agr_reg.c ****     ret = lsm303agr_write_reg(ctx, LSM303AGR_CFG_REG_C_M,
 8102              		.loc 1 3197 29 is_stmt 0 view .LVU2054
 8103 0018 9DF80430 		ldrb	r3, [sp, #4]	@ zero_extendqisi2
 8104 001c 65F38613 		bfi	r3, r5, #6, #1
 8105 0020 8DF80430 		strb	r3, [sp, #4]
3198:Drivers/lsm303agr/Src/lsm303agr_reg.c ****                               (uint8_t *)&cfg_reg_c_m, 1);
 8106              		.loc 1 3198 5 is_stmt 1 view .LVU2055
3198:Drivers/lsm303agr/Src/lsm303agr_reg.c ****                               (uint8_t *)&cfg_reg_c_m, 1);
 8107              		.loc 1 3198 11 is_stmt 0 view .LVU2056
 8108 0024 0123     		movs	r3, #1
 8109              	.LVL562:
3198:Drivers/lsm303agr/Src/lsm303agr_reg.c ****                               (uint8_t *)&cfg_reg_c_m, 1);
 8110              		.loc 1 3198 11 view .LVU2057
 8111 0026 01AA     		add	r2, sp, #4
 8112 0028 6221     		movs	r1, #98
 8113 002a 2046     		mov	r0, r4
 8114 002c FFF7FEFF 		bl	lsm303agr_write_reg
 8115              	.LVL563:
3202:Drivers/lsm303agr/Src/lsm303agr_reg.c **** }
ARM GAS  C:\Users\SF\AppData\Local\Temp\ccFGOSN0.s 			page 207


 8116              		.loc 1 3202 3 is_stmt 1 view .LVU2058
3202:Drivers/lsm303agr/Src/lsm303agr_reg.c **** }
 8117              		.loc 1 3202 10 is_stmt 0 view .LVU2059
 8118 0030 F0E7     		b	.L473
 8119              		.cfi_endproc
 8120              	.LFE252:
 8122              		.section	.text.lsm303agr_mag_int_on_pin_get,"ax",%progbits
 8123              		.align	1
 8124              		.global	lsm303agr_mag_int_on_pin_get
 8125              		.syntax unified
 8126              		.thumb
 8127              		.thumb_func
 8129              	lsm303agr_mag_int_on_pin_get:
 8130              	.LVL564:
 8131              	.LFB253:
3204:Drivers/lsm303agr/Src/lsm303agr_reg.c **** 
3205:Drivers/lsm303agr/Src/lsm303agr_reg.c **** /**
3206:Drivers/lsm303agr/Src/lsm303agr_reg.c ****   * @brief  Interrupt signal on INT_DRDY pin.[get]
3207:Drivers/lsm303agr/Src/lsm303agr_reg.c ****   *
3208:Drivers/lsm303agr/Src/lsm303agr_reg.c ****   * @param  ctx    Read / write interface definitions.(ptr)
3209:Drivers/lsm303agr/Src/lsm303agr_reg.c ****   * @param  val    Get the values of int_on_pin in reg CFG_REG_C_M.(ptr)
3210:Drivers/lsm303agr/Src/lsm303agr_reg.c ****   * @retval        Interface status (MANDATORY: return 0 -> no Error).
3211:Drivers/lsm303agr/Src/lsm303agr_reg.c ****   *
3212:Drivers/lsm303agr/Src/lsm303agr_reg.c ****   */
3213:Drivers/lsm303agr/Src/lsm303agr_reg.c **** int32_t lsm303agr_mag_int_on_pin_get(stmdev_ctx_t *ctx, uint8_t *val)
3214:Drivers/lsm303agr/Src/lsm303agr_reg.c **** {
 8132              		.loc 1 3214 1 is_stmt 1 view -0
 8133              		.cfi_startproc
 8134              		@ args = 0, pretend = 0, frame = 8
 8135              		@ frame_needed = 0, uses_anonymous_args = 0
 8136              		.loc 1 3214 1 is_stmt 0 view .LVU2061
 8137 0000 10B5     		push	{r4, lr}
 8138              	.LCFI339:
 8139              		.cfi_def_cfa_offset 8
 8140              		.cfi_offset 4, -8
 8141              		.cfi_offset 14, -4
 8142 0002 82B0     		sub	sp, sp, #8
 8143              	.LCFI340:
 8144              		.cfi_def_cfa_offset 16
 8145 0004 0C46     		mov	r4, r1
3215:Drivers/lsm303agr/Src/lsm303agr_reg.c ****   lsm303agr_cfg_reg_c_m_t cfg_reg_c_m;
 8146              		.loc 1 3215 3 is_stmt 1 view .LVU2062
3216:Drivers/lsm303agr/Src/lsm303agr_reg.c ****   int32_t ret;
 8147              		.loc 1 3216 3 view .LVU2063
3217:Drivers/lsm303agr/Src/lsm303agr_reg.c **** 
3218:Drivers/lsm303agr/Src/lsm303agr_reg.c ****   ret = lsm303agr_read_reg(ctx, LSM303AGR_CFG_REG_C_M,
 8148              		.loc 1 3218 3 view .LVU2064
 8149              		.loc 1 3218 9 is_stmt 0 view .LVU2065
 8150 0006 0123     		movs	r3, #1
 8151 0008 01AA     		add	r2, sp, #4
 8152 000a 6221     		movs	r1, #98
 8153              	.LVL565:
 8154              		.loc 1 3218 9 view .LVU2066
 8155 000c FFF7FEFF 		bl	lsm303agr_read_reg
 8156              	.LVL566:
3219:Drivers/lsm303agr/Src/lsm303agr_reg.c ****                            (uint8_t *)&cfg_reg_c_m, 1);
3220:Drivers/lsm303agr/Src/lsm303agr_reg.c ****   *val = cfg_reg_c_m.int_mag_pin;
ARM GAS  C:\Users\SF\AppData\Local\Temp\ccFGOSN0.s 			page 208


 8157              		.loc 1 3220 3 is_stmt 1 view .LVU2067
 8158              		.loc 1 3220 21 is_stmt 0 view .LVU2068
 8159 0010 9DF80430 		ldrb	r3, [sp, #4]	@ zero_extendqisi2
 8160 0014 C3F38013 		ubfx	r3, r3, #6, #1
 8161              		.loc 1 3220 8 view .LVU2069
 8162 0018 2370     		strb	r3, [r4]
3221:Drivers/lsm303agr/Src/lsm303agr_reg.c **** 
3222:Drivers/lsm303agr/Src/lsm303agr_reg.c ****   return ret;
 8163              		.loc 1 3222 3 is_stmt 1 view .LVU2070
3223:Drivers/lsm303agr/Src/lsm303agr_reg.c **** }
 8164              		.loc 1 3223 1 is_stmt 0 view .LVU2071
 8165 001a 02B0     		add	sp, sp, #8
 8166              	.LCFI341:
 8167              		.cfi_def_cfa_offset 8
 8168              		@ sp needed
 8169 001c 10BD     		pop	{r4, pc}
 8170              		.loc 1 3223 1 view .LVU2072
 8171              		.cfi_endproc
 8172              	.LFE253:
 8174              		.section	.text.lsm303agr_mag_int_gen_conf_set,"ax",%progbits
 8175              		.align	1
 8176              		.global	lsm303agr_mag_int_gen_conf_set
 8177              		.syntax unified
 8178              		.thumb
 8179              		.thumb_func
 8181              	lsm303agr_mag_int_gen_conf_set:
 8182              	.LVL567:
 8183              	.LFB254:
3224:Drivers/lsm303agr/Src/lsm303agr_reg.c **** 
3225:Drivers/lsm303agr/Src/lsm303agr_reg.c **** /**
3226:Drivers/lsm303agr/Src/lsm303agr_reg.c ****   * @brief  Interrupt generator configuration register.[set]
3227:Drivers/lsm303agr/Src/lsm303agr_reg.c ****   *
3228:Drivers/lsm303agr/Src/lsm303agr_reg.c ****   * @param  ctx    Read / write interface definitions.(ptr)
3229:Drivers/lsm303agr/Src/lsm303agr_reg.c ****   * @param  val    Change registers INT_CRTL_REG_M.(ptr)
3230:Drivers/lsm303agr/Src/lsm303agr_reg.c ****   * @retval        Interface status (MANDATORY: return 0 -> no Error).
3231:Drivers/lsm303agr/Src/lsm303agr_reg.c ****   *
3232:Drivers/lsm303agr/Src/lsm303agr_reg.c ****   */
3233:Drivers/lsm303agr/Src/lsm303agr_reg.c **** int32_t lsm303agr_mag_int_gen_conf_set(stmdev_ctx_t *ctx,
3234:Drivers/lsm303agr/Src/lsm303agr_reg.c ****                                        lsm303agr_int_crtl_reg_m_t *val)
3235:Drivers/lsm303agr/Src/lsm303agr_reg.c **** {
 8184              		.loc 1 3235 1 is_stmt 1 view -0
 8185              		.cfi_startproc
 8186              		@ args = 0, pretend = 0, frame = 0
 8187              		@ frame_needed = 0, uses_anonymous_args = 0
 8188              		.loc 1 3235 1 is_stmt 0 view .LVU2074
 8189 0000 08B5     		push	{r3, lr}
 8190              	.LCFI342:
 8191              		.cfi_def_cfa_offset 8
 8192              		.cfi_offset 3, -8
 8193              		.cfi_offset 14, -4
 8194 0002 0A46     		mov	r2, r1
3236:Drivers/lsm303agr/Src/lsm303agr_reg.c ****   int32_t ret;
 8195              		.loc 1 3236 3 is_stmt 1 view .LVU2075
3237:Drivers/lsm303agr/Src/lsm303agr_reg.c **** 
3238:Drivers/lsm303agr/Src/lsm303agr_reg.c ****   ret = lsm303agr_write_reg(ctx, LSM303AGR_INT_CRTL_REG_M,
 8196              		.loc 1 3238 3 view .LVU2076
 8197              		.loc 1 3238 9 is_stmt 0 view .LVU2077
ARM GAS  C:\Users\SF\AppData\Local\Temp\ccFGOSN0.s 			page 209


 8198 0004 0123     		movs	r3, #1
 8199 0006 6321     		movs	r1, #99
 8200              	.LVL568:
 8201              		.loc 1 3238 9 view .LVU2078
 8202 0008 FFF7FEFF 		bl	lsm303agr_write_reg
 8203              	.LVL569:
3239:Drivers/lsm303agr/Src/lsm303agr_reg.c ****                             (uint8_t *) val, 1);
3240:Drivers/lsm303agr/Src/lsm303agr_reg.c **** 
3241:Drivers/lsm303agr/Src/lsm303agr_reg.c ****   return ret;
 8204              		.loc 1 3241 3 is_stmt 1 view .LVU2079
3242:Drivers/lsm303agr/Src/lsm303agr_reg.c **** }
 8205              		.loc 1 3242 1 is_stmt 0 view .LVU2080
 8206 000c 08BD     		pop	{r3, pc}
 8207              		.cfi_endproc
 8208              	.LFE254:
 8210              		.section	.text.lsm303agr_mag_int_gen_conf_get,"ax",%progbits
 8211              		.align	1
 8212              		.global	lsm303agr_mag_int_gen_conf_get
 8213              		.syntax unified
 8214              		.thumb
 8215              		.thumb_func
 8217              	lsm303agr_mag_int_gen_conf_get:
 8218              	.LVL570:
 8219              	.LFB255:
3243:Drivers/lsm303agr/Src/lsm303agr_reg.c **** 
3244:Drivers/lsm303agr/Src/lsm303agr_reg.c **** /**
3245:Drivers/lsm303agr/Src/lsm303agr_reg.c ****   * @brief  Interrupt generator configuration register.[get]
3246:Drivers/lsm303agr/Src/lsm303agr_reg.c ****   *
3247:Drivers/lsm303agr/Src/lsm303agr_reg.c ****   * @param  ctx    Read / write interface definitions.(ptr)
3248:Drivers/lsm303agr/Src/lsm303agr_reg.c ****   * @param  val    Get registers INT_CRTL_REG_M.(ptr)
3249:Drivers/lsm303agr/Src/lsm303agr_reg.c ****   * @retval        Interface status (MANDATORY: return 0 -> no Error).
3250:Drivers/lsm303agr/Src/lsm303agr_reg.c ****   *
3251:Drivers/lsm303agr/Src/lsm303agr_reg.c ****   */
3252:Drivers/lsm303agr/Src/lsm303agr_reg.c **** int32_t lsm303agr_mag_int_gen_conf_get(stmdev_ctx_t *ctx,
3253:Drivers/lsm303agr/Src/lsm303agr_reg.c ****                                        lsm303agr_int_crtl_reg_m_t *val)
3254:Drivers/lsm303agr/Src/lsm303agr_reg.c **** {
 8220              		.loc 1 3254 1 is_stmt 1 view -0
 8221              		.cfi_startproc
 8222              		@ args = 0, pretend = 0, frame = 0
 8223              		@ frame_needed = 0, uses_anonymous_args = 0
 8224              		.loc 1 3254 1 is_stmt 0 view .LVU2082
 8225 0000 08B5     		push	{r3, lr}
 8226              	.LCFI343:
 8227              		.cfi_def_cfa_offset 8
 8228              		.cfi_offset 3, -8
 8229              		.cfi_offset 14, -4
 8230 0002 0A46     		mov	r2, r1
3255:Drivers/lsm303agr/Src/lsm303agr_reg.c ****   int32_t ret;
 8231              		.loc 1 3255 3 is_stmt 1 view .LVU2083
3256:Drivers/lsm303agr/Src/lsm303agr_reg.c **** 
3257:Drivers/lsm303agr/Src/lsm303agr_reg.c ****   ret = lsm303agr_read_reg(ctx, LSM303AGR_INT_CRTL_REG_M,
 8232              		.loc 1 3257 3 view .LVU2084
 8233              		.loc 1 3257 9 is_stmt 0 view .LVU2085
 8234 0004 0123     		movs	r3, #1
 8235 0006 6321     		movs	r1, #99
 8236              	.LVL571:
 8237              		.loc 1 3257 9 view .LVU2086
ARM GAS  C:\Users\SF\AppData\Local\Temp\ccFGOSN0.s 			page 210


 8238 0008 FFF7FEFF 		bl	lsm303agr_read_reg
 8239              	.LVL572:
3258:Drivers/lsm303agr/Src/lsm303agr_reg.c ****                            (uint8_t *) val, 1);
3259:Drivers/lsm303agr/Src/lsm303agr_reg.c **** 
3260:Drivers/lsm303agr/Src/lsm303agr_reg.c ****   return ret;
 8240              		.loc 1 3260 3 is_stmt 1 view .LVU2087
3261:Drivers/lsm303agr/Src/lsm303agr_reg.c **** }
 8241              		.loc 1 3261 1 is_stmt 0 view .LVU2088
 8242 000c 08BD     		pop	{r3, pc}
 8243              		.cfi_endproc
 8244              	.LFE255:
 8246              		.section	.text.lsm303agr_mag_int_gen_source_get,"ax",%progbits
 8247              		.align	1
 8248              		.global	lsm303agr_mag_int_gen_source_get
 8249              		.syntax unified
 8250              		.thumb
 8251              		.thumb_func
 8253              	lsm303agr_mag_int_gen_source_get:
 8254              	.LVL573:
 8255              	.LFB256:
3262:Drivers/lsm303agr/Src/lsm303agr_reg.c **** 
3263:Drivers/lsm303agr/Src/lsm303agr_reg.c **** /**
3264:Drivers/lsm303agr/Src/lsm303agr_reg.c ****   * @brief  Interrupt generator source register.[get]
3265:Drivers/lsm303agr/Src/lsm303agr_reg.c ****   *
3266:Drivers/lsm303agr/Src/lsm303agr_reg.c ****   * @param  ctx    Read / write interface definitions.(ptr)
3267:Drivers/lsm303agr/Src/lsm303agr_reg.c ****   * @param  val    Get registers INT_SOURCE_REG_M.(ptr)
3268:Drivers/lsm303agr/Src/lsm303agr_reg.c ****   * @retval        Interface status (MANDATORY: return 0 -> no Error).
3269:Drivers/lsm303agr/Src/lsm303agr_reg.c ****   *
3270:Drivers/lsm303agr/Src/lsm303agr_reg.c ****   */
3271:Drivers/lsm303agr/Src/lsm303agr_reg.c **** int32_t lsm303agr_mag_int_gen_source_get(stmdev_ctx_t *ctx,
3272:Drivers/lsm303agr/Src/lsm303agr_reg.c ****                                          lsm303agr_int_source_reg_m_t *val)
3273:Drivers/lsm303agr/Src/lsm303agr_reg.c **** {
 8256              		.loc 1 3273 1 is_stmt 1 view -0
 8257              		.cfi_startproc
 8258              		@ args = 0, pretend = 0, frame = 0
 8259              		@ frame_needed = 0, uses_anonymous_args = 0
 8260              		.loc 1 3273 1 is_stmt 0 view .LVU2090
 8261 0000 08B5     		push	{r3, lr}
 8262              	.LCFI344:
 8263              		.cfi_def_cfa_offset 8
 8264              		.cfi_offset 3, -8
 8265              		.cfi_offset 14, -4
 8266 0002 0A46     		mov	r2, r1
3274:Drivers/lsm303agr/Src/lsm303agr_reg.c ****   int32_t ret;
 8267              		.loc 1 3274 3 is_stmt 1 view .LVU2091
3275:Drivers/lsm303agr/Src/lsm303agr_reg.c **** 
3276:Drivers/lsm303agr/Src/lsm303agr_reg.c ****   ret = lsm303agr_read_reg(ctx, LSM303AGR_INT_SOURCE_REG_M,
 8268              		.loc 1 3276 3 view .LVU2092
 8269              		.loc 1 3276 9 is_stmt 0 view .LVU2093
 8270 0004 0123     		movs	r3, #1
 8271 0006 6421     		movs	r1, #100
 8272              	.LVL574:
 8273              		.loc 1 3276 9 view .LVU2094
 8274 0008 FFF7FEFF 		bl	lsm303agr_read_reg
 8275              	.LVL575:
3277:Drivers/lsm303agr/Src/lsm303agr_reg.c ****                            (uint8_t *) val, 1);
3278:Drivers/lsm303agr/Src/lsm303agr_reg.c **** 
ARM GAS  C:\Users\SF\AppData\Local\Temp\ccFGOSN0.s 			page 211


3279:Drivers/lsm303agr/Src/lsm303agr_reg.c ****   return ret;
 8276              		.loc 1 3279 3 is_stmt 1 view .LVU2095
3280:Drivers/lsm303agr/Src/lsm303agr_reg.c **** }
 8277              		.loc 1 3280 1 is_stmt 0 view .LVU2096
 8278 000c 08BD     		pop	{r3, pc}
 8279              		.cfi_endproc
 8280              	.LFE256:
 8282              		.section	.text.lsm303agr_mag_int_gen_treshold_set,"ax",%progbits
 8283              		.align	1
 8284              		.global	lsm303agr_mag_int_gen_treshold_set
 8285              		.syntax unified
 8286              		.thumb
 8287              		.thumb_func
 8289              	lsm303agr_mag_int_gen_treshold_set:
 8290              	.LVL576:
 8291              	.LFB257:
3281:Drivers/lsm303agr/Src/lsm303agr_reg.c **** 
3282:Drivers/lsm303agr/Src/lsm303agr_reg.c **** /**
3283:Drivers/lsm303agr/Src/lsm303agr_reg.c ****   * @brief  User-defined threshold value for xl interrupt event on generator.
3284:Drivers/lsm303agr/Src/lsm303agr_reg.c ****   *         Data format is the same of output
3285:Drivers/lsm303agr/Src/lsm303agr_reg.c ****   *         data raw: twos complement with
3286:Drivers/lsm303agr/Src/lsm303agr_reg.c ****   *         1LSb = 1.5mG.[set]
3287:Drivers/lsm303agr/Src/lsm303agr_reg.c ****   *
3288:Drivers/lsm303agr/Src/lsm303agr_reg.c ****   * @param  ctx    Read / write interface definitions.(ptr)
3289:Drivers/lsm303agr/Src/lsm303agr_reg.c ****   * @param  buff   Buffer that contains data to write.(ptr)
3290:Drivers/lsm303agr/Src/lsm303agr_reg.c ****   * @retval        Interface status (MANDATORY: return 0 -> no Error).
3291:Drivers/lsm303agr/Src/lsm303agr_reg.c ****   *
3292:Drivers/lsm303agr/Src/lsm303agr_reg.c ****   */
3293:Drivers/lsm303agr/Src/lsm303agr_reg.c **** int32_t lsm303agr_mag_int_gen_treshold_set(stmdev_ctx_t *ctx,
3294:Drivers/lsm303agr/Src/lsm303agr_reg.c ****                                            int16_t val)
3295:Drivers/lsm303agr/Src/lsm303agr_reg.c **** {
 8292              		.loc 1 3295 1 is_stmt 1 view -0
 8293              		.cfi_startproc
 8294              		@ args = 0, pretend = 0, frame = 8
 8295              		@ frame_needed = 0, uses_anonymous_args = 0
 8296              		.loc 1 3295 1 is_stmt 0 view .LVU2098
 8297 0000 00B5     		push	{lr}
 8298              	.LCFI345:
 8299              		.cfi_def_cfa_offset 4
 8300              		.cfi_offset 14, -4
 8301 0002 83B0     		sub	sp, sp, #12
 8302              	.LCFI346:
 8303              		.cfi_def_cfa_offset 16
3296:Drivers/lsm303agr/Src/lsm303agr_reg.c ****   uint8_t buff[6];
 8304              		.loc 1 3296 3 is_stmt 1 view .LVU2099
3297:Drivers/lsm303agr/Src/lsm303agr_reg.c ****   int32_t ret;
 8305              		.loc 1 3297 3 view .LVU2100
3298:Drivers/lsm303agr/Src/lsm303agr_reg.c **** 
3299:Drivers/lsm303agr/Src/lsm303agr_reg.c ****   buff[1] = (uint8_t)((uint16_t)val / 256U);
 8306              		.loc 1 3299 3 view .LVU2101
 8307              		.loc 1 3299 13 is_stmt 0 view .LVU2102
 8308 0004 C1F30723 		ubfx	r3, r1, #8, #8
 8309              		.loc 1 3299 11 view .LVU2103
 8310 0008 8DF80130 		strb	r3, [sp, #1]
3300:Drivers/lsm303agr/Src/lsm303agr_reg.c ****   buff[0] = (uint8_t)((uint16_t)val - (buff[1] * 256U));
 8311              		.loc 1 3300 3 is_stmt 1 view .LVU2104
 8312              		.loc 1 3300 11 is_stmt 0 view .LVU2105
ARM GAS  C:\Users\SF\AppData\Local\Temp\ccFGOSN0.s 			page 212


 8313 000c 8DF80010 		strb	r1, [sp]
3301:Drivers/lsm303agr/Src/lsm303agr_reg.c ****   ret = lsm303agr_write_reg(ctx, LSM303AGR_INT_THS_L_REG_M, buff, 2);
 8314              		.loc 1 3301 3 is_stmt 1 view .LVU2106
 8315              		.loc 1 3301 9 is_stmt 0 view .LVU2107
 8316 0010 0223     		movs	r3, #2
 8317 0012 6A46     		mov	r2, sp
 8318 0014 6521     		movs	r1, #101
 8319              	.LVL577:
 8320              		.loc 1 3301 9 view .LVU2108
 8321 0016 FFF7FEFF 		bl	lsm303agr_write_reg
 8322              	.LVL578:
3302:Drivers/lsm303agr/Src/lsm303agr_reg.c **** 
3303:Drivers/lsm303agr/Src/lsm303agr_reg.c ****   return ret;
 8323              		.loc 1 3303 3 is_stmt 1 view .LVU2109
3304:Drivers/lsm303agr/Src/lsm303agr_reg.c **** }
 8324              		.loc 1 3304 1 is_stmt 0 view .LVU2110
 8325 001a 03B0     		add	sp, sp, #12
 8326              	.LCFI347:
 8327              		.cfi_def_cfa_offset 4
 8328              		@ sp needed
 8329 001c 5DF804FB 		ldr	pc, [sp], #4
 8330              		.cfi_endproc
 8331              	.LFE257:
 8333              		.section	.text.lsm303agr_mag_int_gen_treshold_get,"ax",%progbits
 8334              		.align	1
 8335              		.global	lsm303agr_mag_int_gen_treshold_get
 8336              		.syntax unified
 8337              		.thumb
 8338              		.thumb_func
 8340              	lsm303agr_mag_int_gen_treshold_get:
 8341              	.LVL579:
 8342              	.LFB258:
3305:Drivers/lsm303agr/Src/lsm303agr_reg.c **** 
3306:Drivers/lsm303agr/Src/lsm303agr_reg.c **** /**
3307:Drivers/lsm303agr/Src/lsm303agr_reg.c ****   * @brief  User-defined threshold value for xl interrupt event on generator.
3308:Drivers/lsm303agr/Src/lsm303agr_reg.c ****   *         Data format is the same of output
3309:Drivers/lsm303agr/Src/lsm303agr_reg.c ****   *         data raw: twos complement with
3310:Drivers/lsm303agr/Src/lsm303agr_reg.c ****   *         1LSb = 1.5mG.[get]
3311:Drivers/lsm303agr/Src/lsm303agr_reg.c ****   *
3312:Drivers/lsm303agr/Src/lsm303agr_reg.c ****   * @param  ctx    Read / write interface definitions.(ptr)
3313:Drivers/lsm303agr/Src/lsm303agr_reg.c ****   * @param  buff   Buffer that stores data read.(ptr)
3314:Drivers/lsm303agr/Src/lsm303agr_reg.c ****   * @retval        Interface status (MANDATORY: return 0 -> no Error).
3315:Drivers/lsm303agr/Src/lsm303agr_reg.c ****   *
3316:Drivers/lsm303agr/Src/lsm303agr_reg.c ****   */
3317:Drivers/lsm303agr/Src/lsm303agr_reg.c **** int32_t lsm303agr_mag_int_gen_treshold_get(stmdev_ctx_t *ctx,
3318:Drivers/lsm303agr/Src/lsm303agr_reg.c ****                                            int16_t *val)
3319:Drivers/lsm303agr/Src/lsm303agr_reg.c **** {
 8343              		.loc 1 3319 1 is_stmt 1 view -0
 8344              		.cfi_startproc
 8345              		@ args = 0, pretend = 0, frame = 8
 8346              		@ frame_needed = 0, uses_anonymous_args = 0
 8347              		.loc 1 3319 1 is_stmt 0 view .LVU2112
 8348 0000 10B5     		push	{r4, lr}
 8349              	.LCFI348:
 8350              		.cfi_def_cfa_offset 8
 8351              		.cfi_offset 4, -8
 8352              		.cfi_offset 14, -4
ARM GAS  C:\Users\SF\AppData\Local\Temp\ccFGOSN0.s 			page 213


 8353 0002 82B0     		sub	sp, sp, #8
 8354              	.LCFI349:
 8355              		.cfi_def_cfa_offset 16
 8356 0004 0C46     		mov	r4, r1
3320:Drivers/lsm303agr/Src/lsm303agr_reg.c ****   uint8_t buff[2];
 8357              		.loc 1 3320 3 is_stmt 1 view .LVU2113
3321:Drivers/lsm303agr/Src/lsm303agr_reg.c ****   int32_t ret;
 8358              		.loc 1 3321 3 view .LVU2114
3322:Drivers/lsm303agr/Src/lsm303agr_reg.c **** 
3323:Drivers/lsm303agr/Src/lsm303agr_reg.c ****   ret = lsm303agr_read_reg(ctx, LSM303AGR_INT_THS_L_REG_M, buff, 2);
 8359              		.loc 1 3323 3 view .LVU2115
 8360              		.loc 1 3323 9 is_stmt 0 view .LVU2116
 8361 0006 0223     		movs	r3, #2
 8362 0008 01AA     		add	r2, sp, #4
 8363 000a 6521     		movs	r1, #101
 8364              	.LVL580:
 8365              		.loc 1 3323 9 view .LVU2117
 8366 000c FFF7FEFF 		bl	lsm303agr_read_reg
 8367              	.LVL581:
3324:Drivers/lsm303agr/Src/lsm303agr_reg.c ****   val[0] = (int16_t)buff[1];
 8368              		.loc 1 3324 3 is_stmt 1 view .LVU2118
 8369              		.loc 1 3324 12 is_stmt 0 view .LVU2119
 8370 0010 9DF80520 		ldrb	r2, [sp, #5]	@ zero_extendqisi2
 8371              		.loc 1 3324 10 view .LVU2120
 8372 0014 2280     		strh	r2, [r4]	@ movhi
3325:Drivers/lsm303agr/Src/lsm303agr_reg.c ****   val[0] = (val[0] * 256) + (int16_t)buff[0];
 8373              		.loc 1 3325 3 is_stmt 1 view .LVU2121
 8374              		.loc 1 3325 42 is_stmt 0 view .LVU2122
 8375 0016 9DF80430 		ldrb	r3, [sp, #4]	@ zero_extendqisi2
 8376              		.loc 1 3325 27 view .LVU2123
 8377 001a 03EB0223 		add	r3, r3, r2, lsl #8
 8378              		.loc 1 3325 10 view .LVU2124
 8379 001e 2380     		strh	r3, [r4]	@ movhi
3326:Drivers/lsm303agr/Src/lsm303agr_reg.c **** 
3327:Drivers/lsm303agr/Src/lsm303agr_reg.c ****   return ret;
 8380              		.loc 1 3327 3 is_stmt 1 view .LVU2125
3328:Drivers/lsm303agr/Src/lsm303agr_reg.c **** }
 8381              		.loc 1 3328 1 is_stmt 0 view .LVU2126
 8382 0020 02B0     		add	sp, sp, #8
 8383              	.LCFI350:
 8384              		.cfi_def_cfa_offset 8
 8385              		@ sp needed
 8386 0022 10BD     		pop	{r4, pc}
 8387              		.loc 1 3328 1 view .LVU2127
 8388              		.cfi_endproc
 8389              	.LFE258:
 8391              		.section	.text.lsm303agr_xl_fifo_set,"ax",%progbits
 8392              		.align	1
 8393              		.global	lsm303agr_xl_fifo_set
 8394              		.syntax unified
 8395              		.thumb
 8396              		.thumb_func
 8398              	lsm303agr_xl_fifo_set:
 8399              	.LVL582:
 8400              	.LFB259:
3329:Drivers/lsm303agr/Src/lsm303agr_reg.c **** 
3330:Drivers/lsm303agr/Src/lsm303agr_reg.c **** /**
ARM GAS  C:\Users\SF\AppData\Local\Temp\ccFGOSN0.s 			page 214


3331:Drivers/lsm303agr/Src/lsm303agr_reg.c ****   * @}
3332:Drivers/lsm303agr/Src/lsm303agr_reg.c ****   *
3333:Drivers/lsm303agr/Src/lsm303agr_reg.c ****   */
3334:Drivers/lsm303agr/Src/lsm303agr_reg.c **** 
3335:Drivers/lsm303agr/Src/lsm303agr_reg.c **** /**
3336:Drivers/lsm303agr/Src/lsm303agr_reg.c ****   * @addtogroup  accelerometer_fifo
3337:Drivers/lsm303agr/Src/lsm303agr_reg.c ****   * @brief       This section group all the functions concerning the xl
3338:Drivers/lsm303agr/Src/lsm303agr_reg.c ****   *              fifo usage
3339:Drivers/lsm303agr/Src/lsm303agr_reg.c ****   * @{
3340:Drivers/lsm303agr/Src/lsm303agr_reg.c ****   *
3341:Drivers/lsm303agr/Src/lsm303agr_reg.c ****   */
3342:Drivers/lsm303agr/Src/lsm303agr_reg.c **** 
3343:Drivers/lsm303agr/Src/lsm303agr_reg.c **** /**
3344:Drivers/lsm303agr/Src/lsm303agr_reg.c ****   * @brief  FIFOenable.[set]
3345:Drivers/lsm303agr/Src/lsm303agr_reg.c ****   *
3346:Drivers/lsm303agr/Src/lsm303agr_reg.c ****   * @param  ctx    Read / write interface definitions.(ptr)
3347:Drivers/lsm303agr/Src/lsm303agr_reg.c ****   * @param  val    Change the values of fifo_en in reg CTRL_REG5_A
3348:Drivers/lsm303agr/Src/lsm303agr_reg.c ****   * @retval        Interface status (MANDATORY: return 0 -> no Error).
3349:Drivers/lsm303agr/Src/lsm303agr_reg.c ****   *
3350:Drivers/lsm303agr/Src/lsm303agr_reg.c ****   */
3351:Drivers/lsm303agr/Src/lsm303agr_reg.c **** int32_t lsm303agr_xl_fifo_set(stmdev_ctx_t *ctx, uint8_t val)
3352:Drivers/lsm303agr/Src/lsm303agr_reg.c **** {
 8401              		.loc 1 3352 1 is_stmt 1 view -0
 8402              		.cfi_startproc
 8403              		@ args = 0, pretend = 0, frame = 8
 8404              		@ frame_needed = 0, uses_anonymous_args = 0
 8405              		.loc 1 3352 1 is_stmt 0 view .LVU2129
 8406 0000 30B5     		push	{r4, r5, lr}
 8407              	.LCFI351:
 8408              		.cfi_def_cfa_offset 12
 8409              		.cfi_offset 4, -12
 8410              		.cfi_offset 5, -8
 8411              		.cfi_offset 14, -4
 8412 0002 83B0     		sub	sp, sp, #12
 8413              	.LCFI352:
 8414              		.cfi_def_cfa_offset 24
 8415 0004 0446     		mov	r4, r0
 8416 0006 0D46     		mov	r5, r1
3353:Drivers/lsm303agr/Src/lsm303agr_reg.c ****   lsm303agr_ctrl_reg5_a_t ctrl_reg5_a;
 8417              		.loc 1 3353 3 is_stmt 1 view .LVU2130
3354:Drivers/lsm303agr/Src/lsm303agr_reg.c ****   int32_t ret;
 8418              		.loc 1 3354 3 view .LVU2131
3355:Drivers/lsm303agr/Src/lsm303agr_reg.c **** 
3356:Drivers/lsm303agr/Src/lsm303agr_reg.c ****   ret = lsm303agr_read_reg(ctx, LSM303AGR_CTRL_REG5_A,
 8419              		.loc 1 3356 3 view .LVU2132
 8420              		.loc 1 3356 9 is_stmt 0 view .LVU2133
 8421 0008 0123     		movs	r3, #1
 8422 000a 01AA     		add	r2, sp, #4
 8423 000c 2421     		movs	r1, #36
 8424              	.LVL583:
 8425              		.loc 1 3356 9 view .LVU2134
 8426 000e FFF7FEFF 		bl	lsm303agr_read_reg
 8427              	.LVL584:
3357:Drivers/lsm303agr/Src/lsm303agr_reg.c ****                            (uint8_t *)&ctrl_reg5_a, 1);
3358:Drivers/lsm303agr/Src/lsm303agr_reg.c **** 
3359:Drivers/lsm303agr/Src/lsm303agr_reg.c ****   if (ret == 0)
 8428              		.loc 1 3359 3 is_stmt 1 view .LVU2135
ARM GAS  C:\Users\SF\AppData\Local\Temp\ccFGOSN0.s 			page 215


 8429              		.loc 1 3359 6 is_stmt 0 view .LVU2136
 8430 0012 08B1     		cbz	r0, .L492
 8431              	.LVL585:
 8432              	.L489:
3360:Drivers/lsm303agr/Src/lsm303agr_reg.c ****   {
3361:Drivers/lsm303agr/Src/lsm303agr_reg.c ****     ctrl_reg5_a.fifo_en = (uint8_t)val;
3362:Drivers/lsm303agr/Src/lsm303agr_reg.c ****     ret = lsm303agr_write_reg(ctx, LSM303AGR_CTRL_REG5_A,
3363:Drivers/lsm303agr/Src/lsm303agr_reg.c ****                               (uint8_t *)&ctrl_reg5_a, 1);
3364:Drivers/lsm303agr/Src/lsm303agr_reg.c ****   }
3365:Drivers/lsm303agr/Src/lsm303agr_reg.c **** 
3366:Drivers/lsm303agr/Src/lsm303agr_reg.c ****   return ret;
3367:Drivers/lsm303agr/Src/lsm303agr_reg.c **** }
 8433              		.loc 1 3367 1 view .LVU2137
 8434 0014 03B0     		add	sp, sp, #12
 8435              	.LCFI353:
 8436              		.cfi_remember_state
 8437              		.cfi_def_cfa_offset 12
 8438              		@ sp needed
 8439 0016 30BD     		pop	{r4, r5, pc}
 8440              	.LVL586:
 8441              	.L492:
 8442              	.LCFI354:
 8443              		.cfi_restore_state
3361:Drivers/lsm303agr/Src/lsm303agr_reg.c ****     ret = lsm303agr_write_reg(ctx, LSM303AGR_CTRL_REG5_A,
 8444              		.loc 1 3361 5 is_stmt 1 view .LVU2138
3361:Drivers/lsm303agr/Src/lsm303agr_reg.c ****     ret = lsm303agr_write_reg(ctx, LSM303AGR_CTRL_REG5_A,
 8445              		.loc 1 3361 25 is_stmt 0 view .LVU2139
 8446 0018 9DF80430 		ldrb	r3, [sp, #4]	@ zero_extendqisi2
 8447 001c 65F38613 		bfi	r3, r5, #6, #1
 8448 0020 8DF80430 		strb	r3, [sp, #4]
3362:Drivers/lsm303agr/Src/lsm303agr_reg.c ****                               (uint8_t *)&ctrl_reg5_a, 1);
 8449              		.loc 1 3362 5 is_stmt 1 view .LVU2140
3362:Drivers/lsm303agr/Src/lsm303agr_reg.c ****                               (uint8_t *)&ctrl_reg5_a, 1);
 8450              		.loc 1 3362 11 is_stmt 0 view .LVU2141
 8451 0024 0123     		movs	r3, #1
 8452              	.LVL587:
3362:Drivers/lsm303agr/Src/lsm303agr_reg.c ****                               (uint8_t *)&ctrl_reg5_a, 1);
 8453              		.loc 1 3362 11 view .LVU2142
 8454 0026 01AA     		add	r2, sp, #4
 8455 0028 2421     		movs	r1, #36
 8456 002a 2046     		mov	r0, r4
 8457 002c FFF7FEFF 		bl	lsm303agr_write_reg
 8458              	.LVL588:
3366:Drivers/lsm303agr/Src/lsm303agr_reg.c **** }
 8459              		.loc 1 3366 3 is_stmt 1 view .LVU2143
3366:Drivers/lsm303agr/Src/lsm303agr_reg.c **** }
 8460              		.loc 1 3366 10 is_stmt 0 view .LVU2144
 8461 0030 F0E7     		b	.L489
 8462              		.cfi_endproc
 8463              	.LFE259:
 8465              		.section	.text.lsm303agr_xl_fifo_get,"ax",%progbits
 8466              		.align	1
 8467              		.global	lsm303agr_xl_fifo_get
 8468              		.syntax unified
 8469              		.thumb
 8470              		.thumb_func
 8472              	lsm303agr_xl_fifo_get:
ARM GAS  C:\Users\SF\AppData\Local\Temp\ccFGOSN0.s 			page 216


 8473              	.LVL589:
 8474              	.LFB260:
3368:Drivers/lsm303agr/Src/lsm303agr_reg.c **** 
3369:Drivers/lsm303agr/Src/lsm303agr_reg.c **** /**
3370:Drivers/lsm303agr/Src/lsm303agr_reg.c ****   * @brief  FIFOenable.[get]
3371:Drivers/lsm303agr/Src/lsm303agr_reg.c ****   *
3372:Drivers/lsm303agr/Src/lsm303agr_reg.c ****   * @param  ctx    Read / write interface definitions.(ptr)
3373:Drivers/lsm303agr/Src/lsm303agr_reg.c ****   * @param  val    Get the values of fifo_en in reg CTRL_REG5_A.(ptr)
3374:Drivers/lsm303agr/Src/lsm303agr_reg.c ****   * @retval        Interface status (MANDATORY: return 0 -> no Error).
3375:Drivers/lsm303agr/Src/lsm303agr_reg.c ****   *
3376:Drivers/lsm303agr/Src/lsm303agr_reg.c ****   */
3377:Drivers/lsm303agr/Src/lsm303agr_reg.c **** int32_t lsm303agr_xl_fifo_get(stmdev_ctx_t *ctx, uint8_t *val)
3378:Drivers/lsm303agr/Src/lsm303agr_reg.c **** {
 8475              		.loc 1 3378 1 is_stmt 1 view -0
 8476              		.cfi_startproc
 8477              		@ args = 0, pretend = 0, frame = 8
 8478              		@ frame_needed = 0, uses_anonymous_args = 0
 8479              		.loc 1 3378 1 is_stmt 0 view .LVU2146
 8480 0000 10B5     		push	{r4, lr}
 8481              	.LCFI355:
 8482              		.cfi_def_cfa_offset 8
 8483              		.cfi_offset 4, -8
 8484              		.cfi_offset 14, -4
 8485 0002 82B0     		sub	sp, sp, #8
 8486              	.LCFI356:
 8487              		.cfi_def_cfa_offset 16
 8488 0004 0C46     		mov	r4, r1
3379:Drivers/lsm303agr/Src/lsm303agr_reg.c ****   lsm303agr_ctrl_reg5_a_t ctrl_reg5_a;
 8489              		.loc 1 3379 3 is_stmt 1 view .LVU2147
3380:Drivers/lsm303agr/Src/lsm303agr_reg.c ****   int32_t ret;
 8490              		.loc 1 3380 3 view .LVU2148
3381:Drivers/lsm303agr/Src/lsm303agr_reg.c **** 
3382:Drivers/lsm303agr/Src/lsm303agr_reg.c ****   ret = lsm303agr_read_reg(ctx, LSM303AGR_CTRL_REG5_A,
 8491              		.loc 1 3382 3 view .LVU2149
 8492              		.loc 1 3382 9 is_stmt 0 view .LVU2150
 8493 0006 0123     		movs	r3, #1
 8494 0008 01AA     		add	r2, sp, #4
 8495 000a 2421     		movs	r1, #36
 8496              	.LVL590:
 8497              		.loc 1 3382 9 view .LVU2151
 8498 000c FFF7FEFF 		bl	lsm303agr_read_reg
 8499              	.LVL591:
3383:Drivers/lsm303agr/Src/lsm303agr_reg.c ****                            (uint8_t *)&ctrl_reg5_a, 1);
3384:Drivers/lsm303agr/Src/lsm303agr_reg.c ****   *val = ctrl_reg5_a.fifo_en;
 8500              		.loc 1 3384 3 is_stmt 1 view .LVU2152
 8501              		.loc 1 3384 21 is_stmt 0 view .LVU2153
 8502 0010 9DF80430 		ldrb	r3, [sp, #4]	@ zero_extendqisi2
 8503 0014 C3F38013 		ubfx	r3, r3, #6, #1
 8504              		.loc 1 3384 8 view .LVU2154
 8505 0018 2370     		strb	r3, [r4]
3385:Drivers/lsm303agr/Src/lsm303agr_reg.c **** 
3386:Drivers/lsm303agr/Src/lsm303agr_reg.c ****   return ret;
 8506              		.loc 1 3386 3 is_stmt 1 view .LVU2155
3387:Drivers/lsm303agr/Src/lsm303agr_reg.c **** }
 8507              		.loc 1 3387 1 is_stmt 0 view .LVU2156
 8508 001a 02B0     		add	sp, sp, #8
 8509              	.LCFI357:
ARM GAS  C:\Users\SF\AppData\Local\Temp\ccFGOSN0.s 			page 217


 8510              		.cfi_def_cfa_offset 8
 8511              		@ sp needed
 8512 001c 10BD     		pop	{r4, pc}
 8513              		.loc 1 3387 1 view .LVU2157
 8514              		.cfi_endproc
 8515              	.LFE260:
 8517              		.section	.text.lsm303agr_xl_fifo_watermark_set,"ax",%progbits
 8518              		.align	1
 8519              		.global	lsm303agr_xl_fifo_watermark_set
 8520              		.syntax unified
 8521              		.thumb
 8522              		.thumb_func
 8524              	lsm303agr_xl_fifo_watermark_set:
 8525              	.LVL592:
 8526              	.LFB261:
3388:Drivers/lsm303agr/Src/lsm303agr_reg.c **** 
3389:Drivers/lsm303agr/Src/lsm303agr_reg.c **** /**
3390:Drivers/lsm303agr/Src/lsm303agr_reg.c ****   * @brief  FIFO watermark level selection.[set]
3391:Drivers/lsm303agr/Src/lsm303agr_reg.c ****   *
3392:Drivers/lsm303agr/Src/lsm303agr_reg.c ****   * @param  ctx    Read / write interface definitions.(ptr)
3393:Drivers/lsm303agr/Src/lsm303agr_reg.c ****   * @param  val    Change the values of fth in reg FIFO_CTRL_REG_A
3394:Drivers/lsm303agr/Src/lsm303agr_reg.c ****   * @retval        Interface status (MANDATORY: return 0 -> no Error).
3395:Drivers/lsm303agr/Src/lsm303agr_reg.c ****   *
3396:Drivers/lsm303agr/Src/lsm303agr_reg.c ****   */
3397:Drivers/lsm303agr/Src/lsm303agr_reg.c **** int32_t lsm303agr_xl_fifo_watermark_set(stmdev_ctx_t *ctx,
3398:Drivers/lsm303agr/Src/lsm303agr_reg.c ****                                         uint8_t val)
3399:Drivers/lsm303agr/Src/lsm303agr_reg.c **** {
 8527              		.loc 1 3399 1 is_stmt 1 view -0
 8528              		.cfi_startproc
 8529              		@ args = 0, pretend = 0, frame = 8
 8530              		@ frame_needed = 0, uses_anonymous_args = 0
 8531              		.loc 1 3399 1 is_stmt 0 view .LVU2159
 8532 0000 30B5     		push	{r4, r5, lr}
 8533              	.LCFI358:
 8534              		.cfi_def_cfa_offset 12
 8535              		.cfi_offset 4, -12
 8536              		.cfi_offset 5, -8
 8537              		.cfi_offset 14, -4
 8538 0002 83B0     		sub	sp, sp, #12
 8539              	.LCFI359:
 8540              		.cfi_def_cfa_offset 24
 8541 0004 0446     		mov	r4, r0
 8542 0006 0D46     		mov	r5, r1
3400:Drivers/lsm303agr/Src/lsm303agr_reg.c ****   lsm303agr_fifo_ctrl_reg_a_t fifo_ctrl_reg_a;
 8543              		.loc 1 3400 3 is_stmt 1 view .LVU2160
3401:Drivers/lsm303agr/Src/lsm303agr_reg.c ****   int32_t ret;
 8544              		.loc 1 3401 3 view .LVU2161
3402:Drivers/lsm303agr/Src/lsm303agr_reg.c **** 
3403:Drivers/lsm303agr/Src/lsm303agr_reg.c ****   ret = lsm303agr_read_reg(ctx, LSM303AGR_FIFO_CTRL_REG_A,
 8545              		.loc 1 3403 3 view .LVU2162
 8546              		.loc 1 3403 9 is_stmt 0 view .LVU2163
 8547 0008 0123     		movs	r3, #1
 8548 000a 01AA     		add	r2, sp, #4
 8549 000c 2E21     		movs	r1, #46
 8550              	.LVL593:
 8551              		.loc 1 3403 9 view .LVU2164
 8552 000e FFF7FEFF 		bl	lsm303agr_read_reg
ARM GAS  C:\Users\SF\AppData\Local\Temp\ccFGOSN0.s 			page 218


 8553              	.LVL594:
3404:Drivers/lsm303agr/Src/lsm303agr_reg.c ****                            (uint8_t *)&fifo_ctrl_reg_a, 1);
3405:Drivers/lsm303agr/Src/lsm303agr_reg.c **** 
3406:Drivers/lsm303agr/Src/lsm303agr_reg.c ****   if (ret == 0)
 8554              		.loc 1 3406 3 is_stmt 1 view .LVU2165
 8555              		.loc 1 3406 6 is_stmt 0 view .LVU2166
 8556 0012 08B1     		cbz	r0, .L498
 8557              	.LVL595:
 8558              	.L495:
3407:Drivers/lsm303agr/Src/lsm303agr_reg.c ****   {
3408:Drivers/lsm303agr/Src/lsm303agr_reg.c ****     fifo_ctrl_reg_a.fth = (uint8_t)val;
3409:Drivers/lsm303agr/Src/lsm303agr_reg.c ****     ret = lsm303agr_write_reg(ctx, LSM303AGR_FIFO_CTRL_REG_A,
3410:Drivers/lsm303agr/Src/lsm303agr_reg.c ****                               (uint8_t *)&fifo_ctrl_reg_a, 1);
3411:Drivers/lsm303agr/Src/lsm303agr_reg.c ****   }
3412:Drivers/lsm303agr/Src/lsm303agr_reg.c **** 
3413:Drivers/lsm303agr/Src/lsm303agr_reg.c ****   return ret;
3414:Drivers/lsm303agr/Src/lsm303agr_reg.c **** }
 8559              		.loc 1 3414 1 view .LVU2167
 8560 0014 03B0     		add	sp, sp, #12
 8561              	.LCFI360:
 8562              		.cfi_remember_state
 8563              		.cfi_def_cfa_offset 12
 8564              		@ sp needed
 8565 0016 30BD     		pop	{r4, r5, pc}
 8566              	.LVL596:
 8567              	.L498:
 8568              	.LCFI361:
 8569              		.cfi_restore_state
3408:Drivers/lsm303agr/Src/lsm303agr_reg.c ****     ret = lsm303agr_write_reg(ctx, LSM303AGR_FIFO_CTRL_REG_A,
 8570              		.loc 1 3408 5 is_stmt 1 view .LVU2168
3408:Drivers/lsm303agr/Src/lsm303agr_reg.c ****     ret = lsm303agr_write_reg(ctx, LSM303AGR_FIFO_CTRL_REG_A,
 8571              		.loc 1 3408 25 is_stmt 0 view .LVU2169
 8572 0018 9DF80430 		ldrb	r3, [sp, #4]	@ zero_extendqisi2
 8573 001c 65F30403 		bfi	r3, r5, #0, #5
 8574 0020 8DF80430 		strb	r3, [sp, #4]
3409:Drivers/lsm303agr/Src/lsm303agr_reg.c ****                               (uint8_t *)&fifo_ctrl_reg_a, 1);
 8575              		.loc 1 3409 5 is_stmt 1 view .LVU2170
3409:Drivers/lsm303agr/Src/lsm303agr_reg.c ****                               (uint8_t *)&fifo_ctrl_reg_a, 1);
 8576              		.loc 1 3409 11 is_stmt 0 view .LVU2171
 8577 0024 0123     		movs	r3, #1
 8578              	.LVL597:
3409:Drivers/lsm303agr/Src/lsm303agr_reg.c ****                               (uint8_t *)&fifo_ctrl_reg_a, 1);
 8579              		.loc 1 3409 11 view .LVU2172
 8580 0026 01AA     		add	r2, sp, #4
 8581 0028 2E21     		movs	r1, #46
 8582 002a 2046     		mov	r0, r4
 8583 002c FFF7FEFF 		bl	lsm303agr_write_reg
 8584              	.LVL598:
3413:Drivers/lsm303agr/Src/lsm303agr_reg.c **** }
 8585              		.loc 1 3413 3 is_stmt 1 view .LVU2173
3413:Drivers/lsm303agr/Src/lsm303agr_reg.c **** }
 8586              		.loc 1 3413 10 is_stmt 0 view .LVU2174
 8587 0030 F0E7     		b	.L495
 8588              		.cfi_endproc
 8589              	.LFE261:
 8591              		.section	.text.lsm303agr_xl_fifo_watermark_get,"ax",%progbits
 8592              		.align	1
ARM GAS  C:\Users\SF\AppData\Local\Temp\ccFGOSN0.s 			page 219


 8593              		.global	lsm303agr_xl_fifo_watermark_get
 8594              		.syntax unified
 8595              		.thumb
 8596              		.thumb_func
 8598              	lsm303agr_xl_fifo_watermark_get:
 8599              	.LVL599:
 8600              	.LFB262:
3415:Drivers/lsm303agr/Src/lsm303agr_reg.c **** 
3416:Drivers/lsm303agr/Src/lsm303agr_reg.c **** /**
3417:Drivers/lsm303agr/Src/lsm303agr_reg.c ****   * @brief  FIFO watermark level selection.[get]
3418:Drivers/lsm303agr/Src/lsm303agr_reg.c ****   *
3419:Drivers/lsm303agr/Src/lsm303agr_reg.c ****   * @param  ctx    Read / write interface definitions.(ptr)
3420:Drivers/lsm303agr/Src/lsm303agr_reg.c ****   * @param  val    Get the values of fth in reg FIFO_CTRL_REG_A.(ptr)
3421:Drivers/lsm303agr/Src/lsm303agr_reg.c ****   * @retval        Interface status (MANDATORY: return 0 -> no Error).
3422:Drivers/lsm303agr/Src/lsm303agr_reg.c ****   *
3423:Drivers/lsm303agr/Src/lsm303agr_reg.c ****   */
3424:Drivers/lsm303agr/Src/lsm303agr_reg.c **** int32_t lsm303agr_xl_fifo_watermark_get(stmdev_ctx_t *ctx,
3425:Drivers/lsm303agr/Src/lsm303agr_reg.c ****                                         uint8_t *val)
3426:Drivers/lsm303agr/Src/lsm303agr_reg.c **** {
 8601              		.loc 1 3426 1 is_stmt 1 view -0
 8602              		.cfi_startproc
 8603              		@ args = 0, pretend = 0, frame = 8
 8604              		@ frame_needed = 0, uses_anonymous_args = 0
 8605              		.loc 1 3426 1 is_stmt 0 view .LVU2176
 8606 0000 10B5     		push	{r4, lr}
 8607              	.LCFI362:
 8608              		.cfi_def_cfa_offset 8
 8609              		.cfi_offset 4, -8
 8610              		.cfi_offset 14, -4
 8611 0002 82B0     		sub	sp, sp, #8
 8612              	.LCFI363:
 8613              		.cfi_def_cfa_offset 16
 8614 0004 0C46     		mov	r4, r1
3427:Drivers/lsm303agr/Src/lsm303agr_reg.c ****   lsm303agr_fifo_ctrl_reg_a_t fifo_ctrl_reg_a;
 8615              		.loc 1 3427 3 is_stmt 1 view .LVU2177
3428:Drivers/lsm303agr/Src/lsm303agr_reg.c ****   int32_t ret;
 8616              		.loc 1 3428 3 view .LVU2178
3429:Drivers/lsm303agr/Src/lsm303agr_reg.c **** 
3430:Drivers/lsm303agr/Src/lsm303agr_reg.c ****   ret = lsm303agr_read_reg(ctx, LSM303AGR_FIFO_CTRL_REG_A,
 8617              		.loc 1 3430 3 view .LVU2179
 8618              		.loc 1 3430 9 is_stmt 0 view .LVU2180
 8619 0006 0123     		movs	r3, #1
 8620 0008 01AA     		add	r2, sp, #4
 8621 000a 2E21     		movs	r1, #46
 8622              	.LVL600:
 8623              		.loc 1 3430 9 view .LVU2181
 8624 000c FFF7FEFF 		bl	lsm303agr_read_reg
 8625              	.LVL601:
3431:Drivers/lsm303agr/Src/lsm303agr_reg.c ****                            (uint8_t *)&fifo_ctrl_reg_a, 1);
3432:Drivers/lsm303agr/Src/lsm303agr_reg.c ****   *val = fifo_ctrl_reg_a.fth;
 8626              		.loc 1 3432 3 is_stmt 1 view .LVU2182
 8627              		.loc 1 3432 25 is_stmt 0 view .LVU2183
 8628 0010 9DF80430 		ldrb	r3, [sp, #4]	@ zero_extendqisi2
 8629 0014 C3F30403 		ubfx	r3, r3, #0, #5
 8630              		.loc 1 3432 8 view .LVU2184
 8631 0018 2370     		strb	r3, [r4]
3433:Drivers/lsm303agr/Src/lsm303agr_reg.c **** 
ARM GAS  C:\Users\SF\AppData\Local\Temp\ccFGOSN0.s 			page 220


3434:Drivers/lsm303agr/Src/lsm303agr_reg.c ****   return ret;
 8632              		.loc 1 3434 3 is_stmt 1 view .LVU2185
3435:Drivers/lsm303agr/Src/lsm303agr_reg.c **** }
 8633              		.loc 1 3435 1 is_stmt 0 view .LVU2186
 8634 001a 02B0     		add	sp, sp, #8
 8635              	.LCFI364:
 8636              		.cfi_def_cfa_offset 8
 8637              		@ sp needed
 8638 001c 10BD     		pop	{r4, pc}
 8639              		.loc 1 3435 1 view .LVU2187
 8640              		.cfi_endproc
 8641              	.LFE262:
 8643              		.section	.text.lsm303agr_xl_fifo_trigger_event_set,"ax",%progbits
 8644              		.align	1
 8645              		.global	lsm303agr_xl_fifo_trigger_event_set
 8646              		.syntax unified
 8647              		.thumb
 8648              		.thumb_func
 8650              	lsm303agr_xl_fifo_trigger_event_set:
 8651              	.LVL602:
 8652              	.LFB263:
3436:Drivers/lsm303agr/Src/lsm303agr_reg.c **** 
3437:Drivers/lsm303agr/Src/lsm303agr_reg.c **** /**
3438:Drivers/lsm303agr/Src/lsm303agr_reg.c ****   * @brief  Trigger FIFO selection.[set]
3439:Drivers/lsm303agr/Src/lsm303agr_reg.c ****   *
3440:Drivers/lsm303agr/Src/lsm303agr_reg.c ****   * @param  ctx    Read / write interface definitions.(ptr)
3441:Drivers/lsm303agr/Src/lsm303agr_reg.c ****   * @param  val    Change the values of tr in reg FIFO_CTRL_REG_A
3442:Drivers/lsm303agr/Src/lsm303agr_reg.c ****   * @retval        Interface status (MANDATORY: return 0 -> no Error).
3443:Drivers/lsm303agr/Src/lsm303agr_reg.c ****   *
3444:Drivers/lsm303agr/Src/lsm303agr_reg.c ****   */
3445:Drivers/lsm303agr/Src/lsm303agr_reg.c **** int32_t lsm303agr_xl_fifo_trigger_event_set(stmdev_ctx_t *ctx,
3446:Drivers/lsm303agr/Src/lsm303agr_reg.c ****                                             lsm303agr_tr_a_t val)
3447:Drivers/lsm303agr/Src/lsm303agr_reg.c **** {
 8653              		.loc 1 3447 1 is_stmt 1 view -0
 8654              		.cfi_startproc
 8655              		@ args = 0, pretend = 0, frame = 8
 8656              		@ frame_needed = 0, uses_anonymous_args = 0
 8657              		.loc 1 3447 1 is_stmt 0 view .LVU2189
 8658 0000 30B5     		push	{r4, r5, lr}
 8659              	.LCFI365:
 8660              		.cfi_def_cfa_offset 12
 8661              		.cfi_offset 4, -12
 8662              		.cfi_offset 5, -8
 8663              		.cfi_offset 14, -4
 8664 0002 83B0     		sub	sp, sp, #12
 8665              	.LCFI366:
 8666              		.cfi_def_cfa_offset 24
 8667 0004 0446     		mov	r4, r0
 8668 0006 0D46     		mov	r5, r1
3448:Drivers/lsm303agr/Src/lsm303agr_reg.c ****   lsm303agr_fifo_ctrl_reg_a_t fifo_ctrl_reg_a;
 8669              		.loc 1 3448 3 is_stmt 1 view .LVU2190
3449:Drivers/lsm303agr/Src/lsm303agr_reg.c ****   int32_t ret;
 8670              		.loc 1 3449 3 view .LVU2191
3450:Drivers/lsm303agr/Src/lsm303agr_reg.c **** 
3451:Drivers/lsm303agr/Src/lsm303agr_reg.c ****   ret = lsm303agr_read_reg(ctx, LSM303AGR_FIFO_CTRL_REG_A,
 8671              		.loc 1 3451 3 view .LVU2192
 8672              		.loc 1 3451 9 is_stmt 0 view .LVU2193
ARM GAS  C:\Users\SF\AppData\Local\Temp\ccFGOSN0.s 			page 221


 8673 0008 0123     		movs	r3, #1
 8674 000a 01AA     		add	r2, sp, #4
 8675 000c 2E21     		movs	r1, #46
 8676              	.LVL603:
 8677              		.loc 1 3451 9 view .LVU2194
 8678 000e FFF7FEFF 		bl	lsm303agr_read_reg
 8679              	.LVL604:
3452:Drivers/lsm303agr/Src/lsm303agr_reg.c ****                            (uint8_t *)&fifo_ctrl_reg_a, 1);
3453:Drivers/lsm303agr/Src/lsm303agr_reg.c **** 
3454:Drivers/lsm303agr/Src/lsm303agr_reg.c ****   if (ret == 0)
 8680              		.loc 1 3454 3 is_stmt 1 view .LVU2195
 8681              		.loc 1 3454 6 is_stmt 0 view .LVU2196
 8682 0012 08B1     		cbz	r0, .L504
 8683              	.LVL605:
 8684              	.L501:
3455:Drivers/lsm303agr/Src/lsm303agr_reg.c ****   {
3456:Drivers/lsm303agr/Src/lsm303agr_reg.c ****     fifo_ctrl_reg_a.tr = (uint8_t)val;
3457:Drivers/lsm303agr/Src/lsm303agr_reg.c ****     ret = lsm303agr_write_reg(ctx, LSM303AGR_FIFO_CTRL_REG_A,
3458:Drivers/lsm303agr/Src/lsm303agr_reg.c ****                               (uint8_t *)&fifo_ctrl_reg_a, 1);
3459:Drivers/lsm303agr/Src/lsm303agr_reg.c ****   }
3460:Drivers/lsm303agr/Src/lsm303agr_reg.c **** 
3461:Drivers/lsm303agr/Src/lsm303agr_reg.c ****   return ret;
3462:Drivers/lsm303agr/Src/lsm303agr_reg.c **** }
 8685              		.loc 1 3462 1 view .LVU2197
 8686 0014 03B0     		add	sp, sp, #12
 8687              	.LCFI367:
 8688              		.cfi_remember_state
 8689              		.cfi_def_cfa_offset 12
 8690              		@ sp needed
 8691 0016 30BD     		pop	{r4, r5, pc}
 8692              	.LVL606:
 8693              	.L504:
 8694              	.LCFI368:
 8695              		.cfi_restore_state
3456:Drivers/lsm303agr/Src/lsm303agr_reg.c ****     ret = lsm303agr_write_reg(ctx, LSM303AGR_FIFO_CTRL_REG_A,
 8696              		.loc 1 3456 5 is_stmt 1 view .LVU2198
3456:Drivers/lsm303agr/Src/lsm303agr_reg.c ****     ret = lsm303agr_write_reg(ctx, LSM303AGR_FIFO_CTRL_REG_A,
 8697              		.loc 1 3456 24 is_stmt 0 view .LVU2199
 8698 0018 9DF80430 		ldrb	r3, [sp, #4]	@ zero_extendqisi2
 8699 001c 65F34513 		bfi	r3, r5, #5, #1
 8700 0020 8DF80430 		strb	r3, [sp, #4]
3457:Drivers/lsm303agr/Src/lsm303agr_reg.c ****                               (uint8_t *)&fifo_ctrl_reg_a, 1);
 8701              		.loc 1 3457 5 is_stmt 1 view .LVU2200
3457:Drivers/lsm303agr/Src/lsm303agr_reg.c ****                               (uint8_t *)&fifo_ctrl_reg_a, 1);
 8702              		.loc 1 3457 11 is_stmt 0 view .LVU2201
 8703 0024 0123     		movs	r3, #1
 8704              	.LVL607:
3457:Drivers/lsm303agr/Src/lsm303agr_reg.c ****                               (uint8_t *)&fifo_ctrl_reg_a, 1);
 8705              		.loc 1 3457 11 view .LVU2202
 8706 0026 01AA     		add	r2, sp, #4
 8707 0028 2E21     		movs	r1, #46
 8708 002a 2046     		mov	r0, r4
 8709 002c FFF7FEFF 		bl	lsm303agr_write_reg
 8710              	.LVL608:
3461:Drivers/lsm303agr/Src/lsm303agr_reg.c **** }
 8711              		.loc 1 3461 3 is_stmt 1 view .LVU2203
3461:Drivers/lsm303agr/Src/lsm303agr_reg.c **** }
ARM GAS  C:\Users\SF\AppData\Local\Temp\ccFGOSN0.s 			page 222


 8712              		.loc 1 3461 10 is_stmt 0 view .LVU2204
 8713 0030 F0E7     		b	.L501
 8714              		.cfi_endproc
 8715              	.LFE263:
 8717              		.section	.text.lsm303agr_xl_fifo_trigger_event_get,"ax",%progbits
 8718              		.align	1
 8719              		.global	lsm303agr_xl_fifo_trigger_event_get
 8720              		.syntax unified
 8721              		.thumb
 8722              		.thumb_func
 8724              	lsm303agr_xl_fifo_trigger_event_get:
 8725              	.LVL609:
 8726              	.LFB264:
3463:Drivers/lsm303agr/Src/lsm303agr_reg.c **** 
3464:Drivers/lsm303agr/Src/lsm303agr_reg.c **** /**
3465:Drivers/lsm303agr/Src/lsm303agr_reg.c ****   * @brief  Trigger FIFO selection.[get]
3466:Drivers/lsm303agr/Src/lsm303agr_reg.c ****   *
3467:Drivers/lsm303agr/Src/lsm303agr_reg.c ****   * @param  ctx    Read / write interface definitions.(ptr)
3468:Drivers/lsm303agr/Src/lsm303agr_reg.c ****   * @param  val    Get the values of tr in reg FIFO_CTRL_REG_A.(ptr)
3469:Drivers/lsm303agr/Src/lsm303agr_reg.c ****   * @retval        Interface status (MANDATORY: return 0 -> no Error).
3470:Drivers/lsm303agr/Src/lsm303agr_reg.c ****   *
3471:Drivers/lsm303agr/Src/lsm303agr_reg.c ****   */
3472:Drivers/lsm303agr/Src/lsm303agr_reg.c **** int32_t lsm303agr_xl_fifo_trigger_event_get(stmdev_ctx_t *ctx,
3473:Drivers/lsm303agr/Src/lsm303agr_reg.c ****                                             lsm303agr_tr_a_t *val)
3474:Drivers/lsm303agr/Src/lsm303agr_reg.c **** {
 8727              		.loc 1 3474 1 is_stmt 1 view -0
 8728              		.cfi_startproc
 8729              		@ args = 0, pretend = 0, frame = 8
 8730              		@ frame_needed = 0, uses_anonymous_args = 0
 8731              		.loc 1 3474 1 is_stmt 0 view .LVU2206
 8732 0000 10B5     		push	{r4, lr}
 8733              	.LCFI369:
 8734              		.cfi_def_cfa_offset 8
 8735              		.cfi_offset 4, -8
 8736              		.cfi_offset 14, -4
 8737 0002 82B0     		sub	sp, sp, #8
 8738              	.LCFI370:
 8739              		.cfi_def_cfa_offset 16
 8740 0004 0C46     		mov	r4, r1
3475:Drivers/lsm303agr/Src/lsm303agr_reg.c ****   lsm303agr_fifo_ctrl_reg_a_t fifo_ctrl_reg_a;
 8741              		.loc 1 3475 3 is_stmt 1 view .LVU2207
3476:Drivers/lsm303agr/Src/lsm303agr_reg.c ****   int32_t ret;
 8742              		.loc 1 3476 3 view .LVU2208
3477:Drivers/lsm303agr/Src/lsm303agr_reg.c **** 
3478:Drivers/lsm303agr/Src/lsm303agr_reg.c ****   ret = lsm303agr_read_reg(ctx, LSM303AGR_FIFO_CTRL_REG_A,
 8743              		.loc 1 3478 3 view .LVU2209
 8744              		.loc 1 3478 9 is_stmt 0 view .LVU2210
 8745 0006 0123     		movs	r3, #1
 8746 0008 01AA     		add	r2, sp, #4
 8747 000a 2E21     		movs	r1, #46
 8748              	.LVL610:
 8749              		.loc 1 3478 9 view .LVU2211
 8750 000c FFF7FEFF 		bl	lsm303agr_read_reg
 8751              	.LVL611:
3479:Drivers/lsm303agr/Src/lsm303agr_reg.c ****                            (uint8_t *)&fifo_ctrl_reg_a, 1);
3480:Drivers/lsm303agr/Src/lsm303agr_reg.c **** 
3481:Drivers/lsm303agr/Src/lsm303agr_reg.c ****   switch (fifo_ctrl_reg_a.tr)
ARM GAS  C:\Users\SF\AppData\Local\Temp\ccFGOSN0.s 			page 223


 8752              		.loc 1 3481 3 is_stmt 1 view .LVU2212
 8753              		.loc 1 3481 26 is_stmt 0 view .LVU2213
 8754 0010 9DF80430 		ldrb	r3, [sp, #4]	@ zero_extendqisi2
 8755 0014 C3F34012 		ubfx	r2, r3, #5, #1
 8756              		.loc 1 3481 3 view .LVU2214
 8757 0018 13F0200F 		tst	r3, #32
 8758 001c 03D0     		beq	.L506
 8759 001e 32B9     		cbnz	r2, .L507
3482:Drivers/lsm303agr/Src/lsm303agr_reg.c ****   {
3483:Drivers/lsm303agr/Src/lsm303agr_reg.c ****     case LSM303AGR_INT1_GEN:
3484:Drivers/lsm303agr/Src/lsm303agr_reg.c ****       *val = LSM303AGR_INT1_GEN;
3485:Drivers/lsm303agr/Src/lsm303agr_reg.c ****       break;
3486:Drivers/lsm303agr/Src/lsm303agr_reg.c **** 
3487:Drivers/lsm303agr/Src/lsm303agr_reg.c ****     case LSM303AGR_INT2_GEN:
3488:Drivers/lsm303agr/Src/lsm303agr_reg.c ****       *val = LSM303AGR_INT2_GEN;
3489:Drivers/lsm303agr/Src/lsm303agr_reg.c ****       break;
3490:Drivers/lsm303agr/Src/lsm303agr_reg.c **** 
3491:Drivers/lsm303agr/Src/lsm303agr_reg.c ****     default:
3492:Drivers/lsm303agr/Src/lsm303agr_reg.c ****       *val = LSM303AGR_INT1_GEN;
 8760              		.loc 1 3492 7 is_stmt 1 view .LVU2215
 8761              		.loc 1 3492 12 is_stmt 0 view .LVU2216
 8762 0020 0023     		movs	r3, #0
 8763 0022 2370     		strb	r3, [r4]
3493:Drivers/lsm303agr/Src/lsm303agr_reg.c ****       break;
 8764              		.loc 1 3493 7 is_stmt 1 view .LVU2217
3494:Drivers/lsm303agr/Src/lsm303agr_reg.c ****   }
3495:Drivers/lsm303agr/Src/lsm303agr_reg.c **** 
3496:Drivers/lsm303agr/Src/lsm303agr_reg.c ****   return ret;
 8765              		.loc 1 3496 3 view .LVU2218
 8766              		.loc 1 3496 10 is_stmt 0 view .LVU2219
 8767 0024 01E0     		b	.L505
 8768              	.L506:
3484:Drivers/lsm303agr/Src/lsm303agr_reg.c ****       break;
 8769              		.loc 1 3484 7 is_stmt 1 view .LVU2220
3484:Drivers/lsm303agr/Src/lsm303agr_reg.c ****       break;
 8770              		.loc 1 3484 12 is_stmt 0 view .LVU2221
 8771 0026 0023     		movs	r3, #0
 8772 0028 2370     		strb	r3, [r4]
3485:Drivers/lsm303agr/Src/lsm303agr_reg.c **** 
 8773              		.loc 1 3485 7 is_stmt 1 view .LVU2222
 8774              	.L505:
3497:Drivers/lsm303agr/Src/lsm303agr_reg.c **** }
 8775              		.loc 1 3497 1 is_stmt 0 view .LVU2223
 8776 002a 02B0     		add	sp, sp, #8
 8777              	.LCFI371:
 8778              		.cfi_remember_state
 8779              		.cfi_def_cfa_offset 8
 8780              		@ sp needed
 8781 002c 10BD     		pop	{r4, pc}
 8782              	.LVL612:
 8783              	.L507:
 8784              	.LCFI372:
 8785              		.cfi_restore_state
3488:Drivers/lsm303agr/Src/lsm303agr_reg.c ****       break;
 8786              		.loc 1 3488 7 is_stmt 1 view .LVU2224
3488:Drivers/lsm303agr/Src/lsm303agr_reg.c ****       break;
 8787              		.loc 1 3488 12 is_stmt 0 view .LVU2225
ARM GAS  C:\Users\SF\AppData\Local\Temp\ccFGOSN0.s 			page 224


 8788 002e 0123     		movs	r3, #1
 8789 0030 2370     		strb	r3, [r4]
3489:Drivers/lsm303agr/Src/lsm303agr_reg.c **** 
 8790              		.loc 1 3489 7 is_stmt 1 view .LVU2226
 8791 0032 FAE7     		b	.L505
 8792              		.cfi_endproc
 8793              	.LFE264:
 8795              		.section	.text.lsm303agr_xl_fifo_mode_set,"ax",%progbits
 8796              		.align	1
 8797              		.global	lsm303agr_xl_fifo_mode_set
 8798              		.syntax unified
 8799              		.thumb
 8800              		.thumb_func
 8802              	lsm303agr_xl_fifo_mode_set:
 8803              	.LVL613:
 8804              	.LFB265:
3498:Drivers/lsm303agr/Src/lsm303agr_reg.c **** 
3499:Drivers/lsm303agr/Src/lsm303agr_reg.c **** /**
3500:Drivers/lsm303agr/Src/lsm303agr_reg.c ****   * @brief  FIFO mode selection.[set]
3501:Drivers/lsm303agr/Src/lsm303agr_reg.c ****   *
3502:Drivers/lsm303agr/Src/lsm303agr_reg.c ****   * @param  ctx    Read / write interface definitions.(ptr)
3503:Drivers/lsm303agr/Src/lsm303agr_reg.c ****   * @param  val    Change the values of fm in reg FIFO_CTRL_REG_A
3504:Drivers/lsm303agr/Src/lsm303agr_reg.c ****   * @retval        Interface status (MANDATORY: return 0 -> no Error).
3505:Drivers/lsm303agr/Src/lsm303agr_reg.c ****   *
3506:Drivers/lsm303agr/Src/lsm303agr_reg.c ****   */
3507:Drivers/lsm303agr/Src/lsm303agr_reg.c **** int32_t lsm303agr_xl_fifo_mode_set(stmdev_ctx_t *ctx,
3508:Drivers/lsm303agr/Src/lsm303agr_reg.c ****                                    lsm303agr_fm_a_t val)
3509:Drivers/lsm303agr/Src/lsm303agr_reg.c **** {
 8805              		.loc 1 3509 1 view -0
 8806              		.cfi_startproc
 8807              		@ args = 0, pretend = 0, frame = 8
 8808              		@ frame_needed = 0, uses_anonymous_args = 0
 8809              		.loc 1 3509 1 is_stmt 0 view .LVU2228
 8810 0000 30B5     		push	{r4, r5, lr}
 8811              	.LCFI373:
 8812              		.cfi_def_cfa_offset 12
 8813              		.cfi_offset 4, -12
 8814              		.cfi_offset 5, -8
 8815              		.cfi_offset 14, -4
 8816 0002 83B0     		sub	sp, sp, #12
 8817              	.LCFI374:
 8818              		.cfi_def_cfa_offset 24
 8819 0004 0446     		mov	r4, r0
 8820 0006 0D46     		mov	r5, r1
3510:Drivers/lsm303agr/Src/lsm303agr_reg.c ****   lsm303agr_fifo_ctrl_reg_a_t fifo_ctrl_reg_a;
 8821              		.loc 1 3510 3 is_stmt 1 view .LVU2229
3511:Drivers/lsm303agr/Src/lsm303agr_reg.c ****   int32_t ret;
 8822              		.loc 1 3511 3 view .LVU2230
3512:Drivers/lsm303agr/Src/lsm303agr_reg.c **** 
3513:Drivers/lsm303agr/Src/lsm303agr_reg.c ****   ret = lsm303agr_read_reg(ctx, LSM303AGR_FIFO_CTRL_REG_A,
 8823              		.loc 1 3513 3 view .LVU2231
 8824              		.loc 1 3513 9 is_stmt 0 view .LVU2232
 8825 0008 0123     		movs	r3, #1
 8826 000a 01AA     		add	r2, sp, #4
 8827 000c 2E21     		movs	r1, #46
 8828              	.LVL614:
 8829              		.loc 1 3513 9 view .LVU2233
ARM GAS  C:\Users\SF\AppData\Local\Temp\ccFGOSN0.s 			page 225


 8830 000e FFF7FEFF 		bl	lsm303agr_read_reg
 8831              	.LVL615:
3514:Drivers/lsm303agr/Src/lsm303agr_reg.c ****                            (uint8_t *)&fifo_ctrl_reg_a, 1);
3515:Drivers/lsm303agr/Src/lsm303agr_reg.c **** 
3516:Drivers/lsm303agr/Src/lsm303agr_reg.c ****   if (ret == 0)
 8832              		.loc 1 3516 3 is_stmt 1 view .LVU2234
 8833              		.loc 1 3516 6 is_stmt 0 view .LVU2235
 8834 0012 08B1     		cbz	r0, .L515
 8835              	.LVL616:
 8836              	.L512:
3517:Drivers/lsm303agr/Src/lsm303agr_reg.c ****   {
3518:Drivers/lsm303agr/Src/lsm303agr_reg.c ****     fifo_ctrl_reg_a.fm = (uint8_t)val;
3519:Drivers/lsm303agr/Src/lsm303agr_reg.c ****     ret = lsm303agr_write_reg(ctx, LSM303AGR_FIFO_CTRL_REG_A,
3520:Drivers/lsm303agr/Src/lsm303agr_reg.c ****                               (uint8_t *)&fifo_ctrl_reg_a, 1);
3521:Drivers/lsm303agr/Src/lsm303agr_reg.c ****   }
3522:Drivers/lsm303agr/Src/lsm303agr_reg.c **** 
3523:Drivers/lsm303agr/Src/lsm303agr_reg.c ****   return ret;
3524:Drivers/lsm303agr/Src/lsm303agr_reg.c **** }
 8837              		.loc 1 3524 1 view .LVU2236
 8838 0014 03B0     		add	sp, sp, #12
 8839              	.LCFI375:
 8840              		.cfi_remember_state
 8841              		.cfi_def_cfa_offset 12
 8842              		@ sp needed
 8843 0016 30BD     		pop	{r4, r5, pc}
 8844              	.LVL617:
 8845              	.L515:
 8846              	.LCFI376:
 8847              		.cfi_restore_state
3518:Drivers/lsm303agr/Src/lsm303agr_reg.c ****     ret = lsm303agr_write_reg(ctx, LSM303AGR_FIFO_CTRL_REG_A,
 8848              		.loc 1 3518 5 is_stmt 1 view .LVU2237
3518:Drivers/lsm303agr/Src/lsm303agr_reg.c ****     ret = lsm303agr_write_reg(ctx, LSM303AGR_FIFO_CTRL_REG_A,
 8849              		.loc 1 3518 24 is_stmt 0 view .LVU2238
 8850 0018 9DF80430 		ldrb	r3, [sp, #4]	@ zero_extendqisi2
 8851 001c 65F38713 		bfi	r3, r5, #6, #2
 8852 0020 8DF80430 		strb	r3, [sp, #4]
3519:Drivers/lsm303agr/Src/lsm303agr_reg.c ****                               (uint8_t *)&fifo_ctrl_reg_a, 1);
 8853              		.loc 1 3519 5 is_stmt 1 view .LVU2239
3519:Drivers/lsm303agr/Src/lsm303agr_reg.c ****                               (uint8_t *)&fifo_ctrl_reg_a, 1);
 8854              		.loc 1 3519 11 is_stmt 0 view .LVU2240
 8855 0024 0123     		movs	r3, #1
 8856              	.LVL618:
3519:Drivers/lsm303agr/Src/lsm303agr_reg.c ****                               (uint8_t *)&fifo_ctrl_reg_a, 1);
 8857              		.loc 1 3519 11 view .LVU2241
 8858 0026 01AA     		add	r2, sp, #4
 8859 0028 2E21     		movs	r1, #46
 8860 002a 2046     		mov	r0, r4
 8861 002c FFF7FEFF 		bl	lsm303agr_write_reg
 8862              	.LVL619:
3523:Drivers/lsm303agr/Src/lsm303agr_reg.c **** }
 8863              		.loc 1 3523 3 is_stmt 1 view .LVU2242
3523:Drivers/lsm303agr/Src/lsm303agr_reg.c **** }
 8864              		.loc 1 3523 10 is_stmt 0 view .LVU2243
 8865 0030 F0E7     		b	.L512
 8866              		.cfi_endproc
 8867              	.LFE265:
 8869              		.section	.text.lsm303agr_xl_fifo_mode_get,"ax",%progbits
ARM GAS  C:\Users\SF\AppData\Local\Temp\ccFGOSN0.s 			page 226


 8870              		.align	1
 8871              		.global	lsm303agr_xl_fifo_mode_get
 8872              		.syntax unified
 8873              		.thumb
 8874              		.thumb_func
 8876              	lsm303agr_xl_fifo_mode_get:
 8877              	.LVL620:
 8878              	.LFB266:
3525:Drivers/lsm303agr/Src/lsm303agr_reg.c **** 
3526:Drivers/lsm303agr/Src/lsm303agr_reg.c **** /**
3527:Drivers/lsm303agr/Src/lsm303agr_reg.c ****   * @brief  FIFO mode selection.[get]
3528:Drivers/lsm303agr/Src/lsm303agr_reg.c ****   *
3529:Drivers/lsm303agr/Src/lsm303agr_reg.c ****   * @param  ctx    Read / write interface definitions.(ptr)
3530:Drivers/lsm303agr/Src/lsm303agr_reg.c ****   * @param  val    Get the values of fm in reg FIFO_CTRL_REG_A.(ptr)
3531:Drivers/lsm303agr/Src/lsm303agr_reg.c ****   * @retval        Interface status (MANDATORY: return 0 -> no Error).
3532:Drivers/lsm303agr/Src/lsm303agr_reg.c ****   *
3533:Drivers/lsm303agr/Src/lsm303agr_reg.c ****   */
3534:Drivers/lsm303agr/Src/lsm303agr_reg.c **** int32_t lsm303agr_xl_fifo_mode_get(stmdev_ctx_t *ctx,
3535:Drivers/lsm303agr/Src/lsm303agr_reg.c ****                                    lsm303agr_fm_a_t *val)
3536:Drivers/lsm303agr/Src/lsm303agr_reg.c **** {
 8879              		.loc 1 3536 1 is_stmt 1 view -0
 8880              		.cfi_startproc
 8881              		@ args = 0, pretend = 0, frame = 8
 8882              		@ frame_needed = 0, uses_anonymous_args = 0
 8883              		.loc 1 3536 1 is_stmt 0 view .LVU2245
 8884 0000 10B5     		push	{r4, lr}
 8885              	.LCFI377:
 8886              		.cfi_def_cfa_offset 8
 8887              		.cfi_offset 4, -8
 8888              		.cfi_offset 14, -4
 8889 0002 82B0     		sub	sp, sp, #8
 8890              	.LCFI378:
 8891              		.cfi_def_cfa_offset 16
 8892 0004 0C46     		mov	r4, r1
3537:Drivers/lsm303agr/Src/lsm303agr_reg.c ****   lsm303agr_fifo_ctrl_reg_a_t fifo_ctrl_reg_a;
 8893              		.loc 1 3537 3 is_stmt 1 view .LVU2246
3538:Drivers/lsm303agr/Src/lsm303agr_reg.c ****   int32_t ret;
 8894              		.loc 1 3538 3 view .LVU2247
3539:Drivers/lsm303agr/Src/lsm303agr_reg.c **** 
3540:Drivers/lsm303agr/Src/lsm303agr_reg.c ****   ret = lsm303agr_read_reg(ctx, LSM303AGR_FIFO_CTRL_REG_A,
 8895              		.loc 1 3540 3 view .LVU2248
 8896              		.loc 1 3540 9 is_stmt 0 view .LVU2249
 8897 0006 0123     		movs	r3, #1
 8898 0008 01AA     		add	r2, sp, #4
 8899 000a 2E21     		movs	r1, #46
 8900              	.LVL621:
 8901              		.loc 1 3540 9 view .LVU2250
 8902 000c FFF7FEFF 		bl	lsm303agr_read_reg
 8903              	.LVL622:
3541:Drivers/lsm303agr/Src/lsm303agr_reg.c ****                            (uint8_t *)&fifo_ctrl_reg_a, 1);
3542:Drivers/lsm303agr/Src/lsm303agr_reg.c **** 
3543:Drivers/lsm303agr/Src/lsm303agr_reg.c ****   switch (fifo_ctrl_reg_a.fm)
 8904              		.loc 1 3543 3 is_stmt 1 view .LVU2251
 8905              		.loc 1 3543 26 is_stmt 0 view .LVU2252
 8906 0010 9DF80430 		ldrb	r3, [sp, #4]	@ zero_extendqisi2
 8907 0014 9B09     		lsrs	r3, r3, #6
 8908              		.loc 1 3543 3 view .LVU2253
ARM GAS  C:\Users\SF\AppData\Local\Temp\ccFGOSN0.s 			page 227


 8909 0016 032B     		cmp	r3, #3
 8910 0018 10D8     		bhi	.L517
 8911 001a DFE803F0 		tbb	[pc, r3]
 8912              	.L519:
 8913 001e 02       		.byte	(.L522-.L519)/2
 8914 001f 06       		.byte	(.L521-.L519)/2
 8915 0020 09       		.byte	(.L520-.L519)/2
 8916 0021 0C       		.byte	(.L518-.L519)/2
 8917              		.p2align 1
 8918              	.L522:
3544:Drivers/lsm303agr/Src/lsm303agr_reg.c ****   {
3545:Drivers/lsm303agr/Src/lsm303agr_reg.c ****     case LSM303AGR_BYPASS_MODE:
3546:Drivers/lsm303agr/Src/lsm303agr_reg.c ****       *val = LSM303AGR_BYPASS_MODE;
 8919              		.loc 1 3546 7 is_stmt 1 view .LVU2254
 8920              		.loc 1 3546 12 is_stmt 0 view .LVU2255
 8921 0022 0023     		movs	r3, #0
 8922 0024 2370     		strb	r3, [r4]
3547:Drivers/lsm303agr/Src/lsm303agr_reg.c ****       break;
 8923              		.loc 1 3547 7 is_stmt 1 view .LVU2256
 8924              	.L516:
3548:Drivers/lsm303agr/Src/lsm303agr_reg.c **** 
3549:Drivers/lsm303agr/Src/lsm303agr_reg.c ****     case LSM303AGR_FIFO_MODE:
3550:Drivers/lsm303agr/Src/lsm303agr_reg.c ****       *val = LSM303AGR_FIFO_MODE;
3551:Drivers/lsm303agr/Src/lsm303agr_reg.c ****       break;
3552:Drivers/lsm303agr/Src/lsm303agr_reg.c **** 
3553:Drivers/lsm303agr/Src/lsm303agr_reg.c ****     case LSM303AGR_DYNAMIC_STREAM_MODE:
3554:Drivers/lsm303agr/Src/lsm303agr_reg.c ****       *val = LSM303AGR_DYNAMIC_STREAM_MODE;
3555:Drivers/lsm303agr/Src/lsm303agr_reg.c ****       break;
3556:Drivers/lsm303agr/Src/lsm303agr_reg.c **** 
3557:Drivers/lsm303agr/Src/lsm303agr_reg.c ****     case LSM303AGR_STREAM_TO_FIFO_MODE:
3558:Drivers/lsm303agr/Src/lsm303agr_reg.c ****       *val = LSM303AGR_STREAM_TO_FIFO_MODE;
3559:Drivers/lsm303agr/Src/lsm303agr_reg.c ****       break;
3560:Drivers/lsm303agr/Src/lsm303agr_reg.c **** 
3561:Drivers/lsm303agr/Src/lsm303agr_reg.c ****     default:
3562:Drivers/lsm303agr/Src/lsm303agr_reg.c ****       *val = LSM303AGR_BYPASS_MODE;
3563:Drivers/lsm303agr/Src/lsm303agr_reg.c ****       break;
3564:Drivers/lsm303agr/Src/lsm303agr_reg.c ****   }
3565:Drivers/lsm303agr/Src/lsm303agr_reg.c **** 
3566:Drivers/lsm303agr/Src/lsm303agr_reg.c ****   return ret;
3567:Drivers/lsm303agr/Src/lsm303agr_reg.c **** }
 8925              		.loc 1 3567 1 is_stmt 0 view .LVU2257
 8926 0026 02B0     		add	sp, sp, #8
 8927              	.LCFI379:
 8928              		.cfi_remember_state
 8929              		.cfi_def_cfa_offset 8
 8930              		@ sp needed
 8931 0028 10BD     		pop	{r4, pc}
 8932              	.LVL623:
 8933              	.L521:
 8934              	.LCFI380:
 8935              		.cfi_restore_state
3550:Drivers/lsm303agr/Src/lsm303agr_reg.c ****       break;
 8936              		.loc 1 3550 7 is_stmt 1 view .LVU2258
3550:Drivers/lsm303agr/Src/lsm303agr_reg.c ****       break;
 8937              		.loc 1 3550 12 is_stmt 0 view .LVU2259
 8938 002a 0123     		movs	r3, #1
 8939 002c 2370     		strb	r3, [r4]
ARM GAS  C:\Users\SF\AppData\Local\Temp\ccFGOSN0.s 			page 228


3551:Drivers/lsm303agr/Src/lsm303agr_reg.c **** 
 8940              		.loc 1 3551 7 is_stmt 1 view .LVU2260
 8941 002e FAE7     		b	.L516
 8942              	.L520:
3554:Drivers/lsm303agr/Src/lsm303agr_reg.c ****       break;
 8943              		.loc 1 3554 7 view .LVU2261
3554:Drivers/lsm303agr/Src/lsm303agr_reg.c ****       break;
 8944              		.loc 1 3554 12 is_stmt 0 view .LVU2262
 8945 0030 0223     		movs	r3, #2
 8946 0032 2370     		strb	r3, [r4]
3555:Drivers/lsm303agr/Src/lsm303agr_reg.c **** 
 8947              		.loc 1 3555 7 is_stmt 1 view .LVU2263
 8948 0034 F7E7     		b	.L516
 8949              	.L518:
3558:Drivers/lsm303agr/Src/lsm303agr_reg.c ****       break;
 8950              		.loc 1 3558 7 view .LVU2264
3558:Drivers/lsm303agr/Src/lsm303agr_reg.c ****       break;
 8951              		.loc 1 3558 12 is_stmt 0 view .LVU2265
 8952 0036 0323     		movs	r3, #3
 8953 0038 2370     		strb	r3, [r4]
3559:Drivers/lsm303agr/Src/lsm303agr_reg.c **** 
 8954              		.loc 1 3559 7 is_stmt 1 view .LVU2266
 8955 003a F4E7     		b	.L516
 8956              	.L517:
3562:Drivers/lsm303agr/Src/lsm303agr_reg.c ****       break;
 8957              		.loc 1 3562 7 view .LVU2267
3562:Drivers/lsm303agr/Src/lsm303agr_reg.c ****       break;
 8958              		.loc 1 3562 12 is_stmt 0 view .LVU2268
 8959 003c 0023     		movs	r3, #0
 8960 003e 2370     		strb	r3, [r4]
3563:Drivers/lsm303agr/Src/lsm303agr_reg.c ****   }
 8961              		.loc 1 3563 7 is_stmt 1 view .LVU2269
3566:Drivers/lsm303agr/Src/lsm303agr_reg.c **** }
 8962              		.loc 1 3566 3 view .LVU2270
3566:Drivers/lsm303agr/Src/lsm303agr_reg.c **** }
 8963              		.loc 1 3566 10 is_stmt 0 view .LVU2271
 8964 0040 F1E7     		b	.L516
 8965              		.cfi_endproc
 8966              	.LFE266:
 8968              		.section	.text.lsm303agr_xl_fifo_status_get,"ax",%progbits
 8969              		.align	1
 8970              		.global	lsm303agr_xl_fifo_status_get
 8971              		.syntax unified
 8972              		.thumb
 8973              		.thumb_func
 8975              	lsm303agr_xl_fifo_status_get:
 8976              	.LVL624:
 8977              	.LFB267:
3568:Drivers/lsm303agr/Src/lsm303agr_reg.c **** 
3569:Drivers/lsm303agr/Src/lsm303agr_reg.c **** /**
3570:Drivers/lsm303agr/Src/lsm303agr_reg.c ****   * @brief  FIFO status register.[get]
3571:Drivers/lsm303agr/Src/lsm303agr_reg.c ****   *
3572:Drivers/lsm303agr/Src/lsm303agr_reg.c ****   * @param  ctx    Read / write interface definitions.(ptr)
3573:Drivers/lsm303agr/Src/lsm303agr_reg.c ****   * @param  val    Get registers FIFO_SRC_REG_A.(ptr)
3574:Drivers/lsm303agr/Src/lsm303agr_reg.c ****   * @retval        Interface status (MANDATORY: return 0 -> no Error).
3575:Drivers/lsm303agr/Src/lsm303agr_reg.c ****   *
3576:Drivers/lsm303agr/Src/lsm303agr_reg.c ****   */
ARM GAS  C:\Users\SF\AppData\Local\Temp\ccFGOSN0.s 			page 229


3577:Drivers/lsm303agr/Src/lsm303agr_reg.c **** int32_t lsm303agr_xl_fifo_status_get(stmdev_ctx_t *ctx,
3578:Drivers/lsm303agr/Src/lsm303agr_reg.c ****                                      lsm303agr_fifo_src_reg_a_t *val)
3579:Drivers/lsm303agr/Src/lsm303agr_reg.c **** {
 8978              		.loc 1 3579 1 is_stmt 1 view -0
 8979              		.cfi_startproc
 8980              		@ args = 0, pretend = 0, frame = 0
 8981              		@ frame_needed = 0, uses_anonymous_args = 0
 8982              		.loc 1 3579 1 is_stmt 0 view .LVU2273
 8983 0000 08B5     		push	{r3, lr}
 8984              	.LCFI381:
 8985              		.cfi_def_cfa_offset 8
 8986              		.cfi_offset 3, -8
 8987              		.cfi_offset 14, -4
 8988 0002 0A46     		mov	r2, r1
3580:Drivers/lsm303agr/Src/lsm303agr_reg.c ****   int32_t ret;
 8989              		.loc 1 3580 3 is_stmt 1 view .LVU2274
3581:Drivers/lsm303agr/Src/lsm303agr_reg.c **** 
3582:Drivers/lsm303agr/Src/lsm303agr_reg.c ****   ret = lsm303agr_read_reg(ctx, LSM303AGR_FIFO_SRC_REG_A,
 8990              		.loc 1 3582 3 view .LVU2275
 8991              		.loc 1 3582 9 is_stmt 0 view .LVU2276
 8992 0004 0123     		movs	r3, #1
 8993 0006 2F21     		movs	r1, #47
 8994              	.LVL625:
 8995              		.loc 1 3582 9 view .LVU2277
 8996 0008 FFF7FEFF 		bl	lsm303agr_read_reg
 8997              	.LVL626:
3583:Drivers/lsm303agr/Src/lsm303agr_reg.c ****                            (uint8_t *) val, 1);
3584:Drivers/lsm303agr/Src/lsm303agr_reg.c **** 
3585:Drivers/lsm303agr/Src/lsm303agr_reg.c ****   return ret;
 8998              		.loc 1 3585 3 is_stmt 1 view .LVU2278
3586:Drivers/lsm303agr/Src/lsm303agr_reg.c **** }
 8999              		.loc 1 3586 1 is_stmt 0 view .LVU2279
 9000 000c 08BD     		pop	{r3, pc}
 9001              		.cfi_endproc
 9002              	.LFE267:
 9004              		.section	.text.lsm303agr_xl_fifo_data_level_get,"ax",%progbits
 9005              		.align	1
 9006              		.global	lsm303agr_xl_fifo_data_level_get
 9007              		.syntax unified
 9008              		.thumb
 9009              		.thumb_func
 9011              	lsm303agr_xl_fifo_data_level_get:
 9012              	.LVL627:
 9013              	.LFB268:
3587:Drivers/lsm303agr/Src/lsm303agr_reg.c **** 
3588:Drivers/lsm303agr/Src/lsm303agr_reg.c **** /**
3589:Drivers/lsm303agr/Src/lsm303agr_reg.c ****   * @brief  FIFO stored data level.[get]
3590:Drivers/lsm303agr/Src/lsm303agr_reg.c ****   *
3591:Drivers/lsm303agr/Src/lsm303agr_reg.c ****   * @param  ctx    Read / write interface definitions.(ptr)
3592:Drivers/lsm303agr/Src/lsm303agr_reg.c ****   * @param  val    Get the values of fss in reg FIFO_SRC_REG_A.(ptr)
3593:Drivers/lsm303agr/Src/lsm303agr_reg.c ****   * @retval        Interface status (MANDATORY: return 0 -> no Error).
3594:Drivers/lsm303agr/Src/lsm303agr_reg.c ****   *
3595:Drivers/lsm303agr/Src/lsm303agr_reg.c ****   */
3596:Drivers/lsm303agr/Src/lsm303agr_reg.c **** int32_t lsm303agr_xl_fifo_data_level_get(stmdev_ctx_t *ctx,
3597:Drivers/lsm303agr/Src/lsm303agr_reg.c ****                                          uint8_t *val)
3598:Drivers/lsm303agr/Src/lsm303agr_reg.c **** {
 9014              		.loc 1 3598 1 is_stmt 1 view -0
ARM GAS  C:\Users\SF\AppData\Local\Temp\ccFGOSN0.s 			page 230


 9015              		.cfi_startproc
 9016              		@ args = 0, pretend = 0, frame = 8
 9017              		@ frame_needed = 0, uses_anonymous_args = 0
 9018              		.loc 1 3598 1 is_stmt 0 view .LVU2281
 9019 0000 10B5     		push	{r4, lr}
 9020              	.LCFI382:
 9021              		.cfi_def_cfa_offset 8
 9022              		.cfi_offset 4, -8
 9023              		.cfi_offset 14, -4
 9024 0002 82B0     		sub	sp, sp, #8
 9025              	.LCFI383:
 9026              		.cfi_def_cfa_offset 16
 9027 0004 0C46     		mov	r4, r1
3599:Drivers/lsm303agr/Src/lsm303agr_reg.c ****   lsm303agr_fifo_src_reg_a_t fifo_src_reg_a;
 9028              		.loc 1 3599 3 is_stmt 1 view .LVU2282
3600:Drivers/lsm303agr/Src/lsm303agr_reg.c ****   int32_t ret;
 9029              		.loc 1 3600 3 view .LVU2283
3601:Drivers/lsm303agr/Src/lsm303agr_reg.c **** 
3602:Drivers/lsm303agr/Src/lsm303agr_reg.c ****   ret = lsm303agr_read_reg(ctx, LSM303AGR_FIFO_SRC_REG_A,
 9030              		.loc 1 3602 3 view .LVU2284
 9031              		.loc 1 3602 9 is_stmt 0 view .LVU2285
 9032 0006 0123     		movs	r3, #1
 9033 0008 01AA     		add	r2, sp, #4
 9034 000a 2F21     		movs	r1, #47
 9035              	.LVL628:
 9036              		.loc 1 3602 9 view .LVU2286
 9037 000c FFF7FEFF 		bl	lsm303agr_read_reg
 9038              	.LVL629:
3603:Drivers/lsm303agr/Src/lsm303agr_reg.c ****                            (uint8_t *)&fifo_src_reg_a, 1);
3604:Drivers/lsm303agr/Src/lsm303agr_reg.c ****   *val = fifo_src_reg_a.fss;
 9039              		.loc 1 3604 3 is_stmt 1 view .LVU2287
 9040              		.loc 1 3604 24 is_stmt 0 view .LVU2288
 9041 0010 9DF80430 		ldrb	r3, [sp, #4]	@ zero_extendqisi2
 9042 0014 C3F30403 		ubfx	r3, r3, #0, #5
 9043              		.loc 1 3604 8 view .LVU2289
 9044 0018 2370     		strb	r3, [r4]
3605:Drivers/lsm303agr/Src/lsm303agr_reg.c **** 
3606:Drivers/lsm303agr/Src/lsm303agr_reg.c ****   return ret;
 9045              		.loc 1 3606 3 is_stmt 1 view .LVU2290
3607:Drivers/lsm303agr/Src/lsm303agr_reg.c **** }
 9046              		.loc 1 3607 1 is_stmt 0 view .LVU2291
 9047 001a 02B0     		add	sp, sp, #8
 9048              	.LCFI384:
 9049              		.cfi_def_cfa_offset 8
 9050              		@ sp needed
 9051 001c 10BD     		pop	{r4, pc}
 9052              		.loc 1 3607 1 view .LVU2292
 9053              		.cfi_endproc
 9054              	.LFE268:
 9056              		.section	.text.lsm303agr_xl_fifo_empty_flag_get,"ax",%progbits
 9057              		.align	1
 9058              		.global	lsm303agr_xl_fifo_empty_flag_get
 9059              		.syntax unified
 9060              		.thumb
 9061              		.thumb_func
 9063              	lsm303agr_xl_fifo_empty_flag_get:
 9064              	.LVL630:
ARM GAS  C:\Users\SF\AppData\Local\Temp\ccFGOSN0.s 			page 231


 9065              	.LFB269:
3608:Drivers/lsm303agr/Src/lsm303agr_reg.c **** 
3609:Drivers/lsm303agr/Src/lsm303agr_reg.c **** /**
3610:Drivers/lsm303agr/Src/lsm303agr_reg.c ****   * @brief  Empty FIFO status flag.[get]
3611:Drivers/lsm303agr/Src/lsm303agr_reg.c ****   *
3612:Drivers/lsm303agr/Src/lsm303agr_reg.c ****   * @param  ctx    Read / write interface definitions.(ptr)
3613:Drivers/lsm303agr/Src/lsm303agr_reg.c ****   * @param  val    Get the values of empty in reg FIFO_SRC_REG_A.(ptr)
3614:Drivers/lsm303agr/Src/lsm303agr_reg.c ****   * @retval        Interface status (MANDATORY: return 0 -> no Error).
3615:Drivers/lsm303agr/Src/lsm303agr_reg.c ****   *
3616:Drivers/lsm303agr/Src/lsm303agr_reg.c ****   */
3617:Drivers/lsm303agr/Src/lsm303agr_reg.c **** int32_t lsm303agr_xl_fifo_empty_flag_get(stmdev_ctx_t *ctx,
3618:Drivers/lsm303agr/Src/lsm303agr_reg.c ****                                          uint8_t *val)
3619:Drivers/lsm303agr/Src/lsm303agr_reg.c **** {
 9066              		.loc 1 3619 1 is_stmt 1 view -0
 9067              		.cfi_startproc
 9068              		@ args = 0, pretend = 0, frame = 8
 9069              		@ frame_needed = 0, uses_anonymous_args = 0
 9070              		.loc 1 3619 1 is_stmt 0 view .LVU2294
 9071 0000 10B5     		push	{r4, lr}
 9072              	.LCFI385:
 9073              		.cfi_def_cfa_offset 8
 9074              		.cfi_offset 4, -8
 9075              		.cfi_offset 14, -4
 9076 0002 82B0     		sub	sp, sp, #8
 9077              	.LCFI386:
 9078              		.cfi_def_cfa_offset 16
 9079 0004 0C46     		mov	r4, r1
3620:Drivers/lsm303agr/Src/lsm303agr_reg.c ****   lsm303agr_fifo_src_reg_a_t fifo_src_reg_a;
 9080              		.loc 1 3620 3 is_stmt 1 view .LVU2295
3621:Drivers/lsm303agr/Src/lsm303agr_reg.c ****   int32_t ret;
 9081              		.loc 1 3621 3 view .LVU2296
3622:Drivers/lsm303agr/Src/lsm303agr_reg.c **** 
3623:Drivers/lsm303agr/Src/lsm303agr_reg.c ****   ret = lsm303agr_read_reg(ctx, LSM303AGR_FIFO_SRC_REG_A,
 9082              		.loc 1 3623 3 view .LVU2297
 9083              		.loc 1 3623 9 is_stmt 0 view .LVU2298
 9084 0006 0123     		movs	r3, #1
 9085 0008 01AA     		add	r2, sp, #4
 9086 000a 2F21     		movs	r1, #47
 9087              	.LVL631:
 9088              		.loc 1 3623 9 view .LVU2299
 9089 000c FFF7FEFF 		bl	lsm303agr_read_reg
 9090              	.LVL632:
3624:Drivers/lsm303agr/Src/lsm303agr_reg.c ****                            (uint8_t *)&fifo_src_reg_a, 1);
3625:Drivers/lsm303agr/Src/lsm303agr_reg.c ****   *val = fifo_src_reg_a.empty;
 9091              		.loc 1 3625 3 is_stmt 1 view .LVU2300
 9092              		.loc 1 3625 24 is_stmt 0 view .LVU2301
 9093 0010 9DF80430 		ldrb	r3, [sp, #4]	@ zero_extendqisi2
 9094 0014 C3F34013 		ubfx	r3, r3, #5, #1
 9095              		.loc 1 3625 8 view .LVU2302
 9096 0018 2370     		strb	r3, [r4]
3626:Drivers/lsm303agr/Src/lsm303agr_reg.c **** 
3627:Drivers/lsm303agr/Src/lsm303agr_reg.c ****   return ret;
 9097              		.loc 1 3627 3 is_stmt 1 view .LVU2303
3628:Drivers/lsm303agr/Src/lsm303agr_reg.c **** }
 9098              		.loc 1 3628 1 is_stmt 0 view .LVU2304
 9099 001a 02B0     		add	sp, sp, #8
 9100              	.LCFI387:
ARM GAS  C:\Users\SF\AppData\Local\Temp\ccFGOSN0.s 			page 232


 9101              		.cfi_def_cfa_offset 8
 9102              		@ sp needed
 9103 001c 10BD     		pop	{r4, pc}
 9104              		.loc 1 3628 1 view .LVU2305
 9105              		.cfi_endproc
 9106              	.LFE269:
 9108              		.section	.text.lsm303agr_xl_fifo_ovr_flag_get,"ax",%progbits
 9109              		.align	1
 9110              		.global	lsm303agr_xl_fifo_ovr_flag_get
 9111              		.syntax unified
 9112              		.thumb
 9113              		.thumb_func
 9115              	lsm303agr_xl_fifo_ovr_flag_get:
 9116              	.LVL633:
 9117              	.LFB270:
3629:Drivers/lsm303agr/Src/lsm303agr_reg.c **** 
3630:Drivers/lsm303agr/Src/lsm303agr_reg.c **** /**
3631:Drivers/lsm303agr/Src/lsm303agr_reg.c ****   * @brief  FIFO overrun status flag.[get]
3632:Drivers/lsm303agr/Src/lsm303agr_reg.c ****   *
3633:Drivers/lsm303agr/Src/lsm303agr_reg.c ****   * @param  ctx    Read / write interface definitions.(ptr)
3634:Drivers/lsm303agr/Src/lsm303agr_reg.c ****   * @param  val    Get the values of ovrn_fifo in reg FIFO_SRC_REG_A.(ptr)
3635:Drivers/lsm303agr/Src/lsm303agr_reg.c ****   * @retval        Interface status (MANDATORY: return 0 -> no Error).
3636:Drivers/lsm303agr/Src/lsm303agr_reg.c ****   *
3637:Drivers/lsm303agr/Src/lsm303agr_reg.c ****   */
3638:Drivers/lsm303agr/Src/lsm303agr_reg.c **** int32_t lsm303agr_xl_fifo_ovr_flag_get(stmdev_ctx_t *ctx,
3639:Drivers/lsm303agr/Src/lsm303agr_reg.c ****                                        uint8_t *val)
3640:Drivers/lsm303agr/Src/lsm303agr_reg.c **** {
 9118              		.loc 1 3640 1 is_stmt 1 view -0
 9119              		.cfi_startproc
 9120              		@ args = 0, pretend = 0, frame = 8
 9121              		@ frame_needed = 0, uses_anonymous_args = 0
 9122              		.loc 1 3640 1 is_stmt 0 view .LVU2307
 9123 0000 10B5     		push	{r4, lr}
 9124              	.LCFI388:
 9125              		.cfi_def_cfa_offset 8
 9126              		.cfi_offset 4, -8
 9127              		.cfi_offset 14, -4
 9128 0002 82B0     		sub	sp, sp, #8
 9129              	.LCFI389:
 9130              		.cfi_def_cfa_offset 16
 9131 0004 0C46     		mov	r4, r1
3641:Drivers/lsm303agr/Src/lsm303agr_reg.c ****   lsm303agr_fifo_src_reg_a_t fifo_src_reg_a;
 9132              		.loc 1 3641 3 is_stmt 1 view .LVU2308
3642:Drivers/lsm303agr/Src/lsm303agr_reg.c ****   int32_t ret;
 9133              		.loc 1 3642 3 view .LVU2309
3643:Drivers/lsm303agr/Src/lsm303agr_reg.c **** 
3644:Drivers/lsm303agr/Src/lsm303agr_reg.c ****   ret = lsm303agr_read_reg(ctx, LSM303AGR_FIFO_SRC_REG_A,
 9134              		.loc 1 3644 3 view .LVU2310
 9135              		.loc 1 3644 9 is_stmt 0 view .LVU2311
 9136 0006 0123     		movs	r3, #1
 9137 0008 01AA     		add	r2, sp, #4
 9138 000a 2F21     		movs	r1, #47
 9139              	.LVL634:
 9140              		.loc 1 3644 9 view .LVU2312
 9141 000c FFF7FEFF 		bl	lsm303agr_read_reg
 9142              	.LVL635:
3645:Drivers/lsm303agr/Src/lsm303agr_reg.c ****                            (uint8_t *)&fifo_src_reg_a, 1);
ARM GAS  C:\Users\SF\AppData\Local\Temp\ccFGOSN0.s 			page 233


3646:Drivers/lsm303agr/Src/lsm303agr_reg.c ****   *val = fifo_src_reg_a.ovrn_fifo;
 9143              		.loc 1 3646 3 is_stmt 1 view .LVU2313
 9144              		.loc 1 3646 24 is_stmt 0 view .LVU2314
 9145 0010 9DF80430 		ldrb	r3, [sp, #4]	@ zero_extendqisi2
 9146 0014 C3F38013 		ubfx	r3, r3, #6, #1
 9147              		.loc 1 3646 8 view .LVU2315
 9148 0018 2370     		strb	r3, [r4]
3647:Drivers/lsm303agr/Src/lsm303agr_reg.c **** 
3648:Drivers/lsm303agr/Src/lsm303agr_reg.c ****   return ret;
 9149              		.loc 1 3648 3 is_stmt 1 view .LVU2316
3649:Drivers/lsm303agr/Src/lsm303agr_reg.c **** }
 9150              		.loc 1 3649 1 is_stmt 0 view .LVU2317
 9151 001a 02B0     		add	sp, sp, #8
 9152              	.LCFI390:
 9153              		.cfi_def_cfa_offset 8
 9154              		@ sp needed
 9155 001c 10BD     		pop	{r4, pc}
 9156              		.loc 1 3649 1 view .LVU2318
 9157              		.cfi_endproc
 9158              	.LFE270:
 9160              		.section	.text.lsm303agr_xl_fifo_fth_flag_get,"ax",%progbits
 9161              		.align	1
 9162              		.global	lsm303agr_xl_fifo_fth_flag_get
 9163              		.syntax unified
 9164              		.thumb
 9165              		.thumb_func
 9167              	lsm303agr_xl_fifo_fth_flag_get:
 9168              	.LVL636:
 9169              	.LFB271:
3650:Drivers/lsm303agr/Src/lsm303agr_reg.c **** 
3651:Drivers/lsm303agr/Src/lsm303agr_reg.c **** /**
3652:Drivers/lsm303agr/Src/lsm303agr_reg.c ****   * @brief  FIFO watermark status.[get]
3653:Drivers/lsm303agr/Src/lsm303agr_reg.c ****   *
3654:Drivers/lsm303agr/Src/lsm303agr_reg.c ****   * @param  ctx    Read / write interface definitions.(ptr)
3655:Drivers/lsm303agr/Src/lsm303agr_reg.c ****   * @param  val    Get the values of wtm in reg FIFO_SRC_REG_A.(ptr)
3656:Drivers/lsm303agr/Src/lsm303agr_reg.c ****   * @retval        Interface status (MANDATORY: return 0 -> no Error).
3657:Drivers/lsm303agr/Src/lsm303agr_reg.c ****   *
3658:Drivers/lsm303agr/Src/lsm303agr_reg.c ****   */
3659:Drivers/lsm303agr/Src/lsm303agr_reg.c **** int32_t lsm303agr_xl_fifo_fth_flag_get(stmdev_ctx_t *ctx,
3660:Drivers/lsm303agr/Src/lsm303agr_reg.c ****                                        uint8_t *val)
3661:Drivers/lsm303agr/Src/lsm303agr_reg.c **** {
 9170              		.loc 1 3661 1 is_stmt 1 view -0
 9171              		.cfi_startproc
 9172              		@ args = 0, pretend = 0, frame = 8
 9173              		@ frame_needed = 0, uses_anonymous_args = 0
 9174              		.loc 1 3661 1 is_stmt 0 view .LVU2320
 9175 0000 10B5     		push	{r4, lr}
 9176              	.LCFI391:
 9177              		.cfi_def_cfa_offset 8
 9178              		.cfi_offset 4, -8
 9179              		.cfi_offset 14, -4
 9180 0002 82B0     		sub	sp, sp, #8
 9181              	.LCFI392:
 9182              		.cfi_def_cfa_offset 16
 9183 0004 0C46     		mov	r4, r1
3662:Drivers/lsm303agr/Src/lsm303agr_reg.c ****   lsm303agr_fifo_src_reg_a_t fifo_src_reg_a;
 9184              		.loc 1 3662 3 is_stmt 1 view .LVU2321
ARM GAS  C:\Users\SF\AppData\Local\Temp\ccFGOSN0.s 			page 234


3663:Drivers/lsm303agr/Src/lsm303agr_reg.c ****   int32_t ret;
 9185              		.loc 1 3663 3 view .LVU2322
3664:Drivers/lsm303agr/Src/lsm303agr_reg.c **** 
3665:Drivers/lsm303agr/Src/lsm303agr_reg.c ****   ret = lsm303agr_read_reg(ctx, LSM303AGR_FIFO_SRC_REG_A,
 9186              		.loc 1 3665 3 view .LVU2323
 9187              		.loc 1 3665 9 is_stmt 0 view .LVU2324
 9188 0006 0123     		movs	r3, #1
 9189 0008 01AA     		add	r2, sp, #4
 9190 000a 2F21     		movs	r1, #47
 9191              	.LVL637:
 9192              		.loc 1 3665 9 view .LVU2325
 9193 000c FFF7FEFF 		bl	lsm303agr_read_reg
 9194              	.LVL638:
3666:Drivers/lsm303agr/Src/lsm303agr_reg.c ****                            (uint8_t *)&fifo_src_reg_a, 1);
3667:Drivers/lsm303agr/Src/lsm303agr_reg.c ****   *val = fifo_src_reg_a.wtm;
 9195              		.loc 1 3667 3 is_stmt 1 view .LVU2326
 9196              		.loc 1 3667 24 is_stmt 0 view .LVU2327
 9197 0010 9DF80430 		ldrb	r3, [sp, #4]	@ zero_extendqisi2
 9198 0014 C3F3C013 		ubfx	r3, r3, #7, #1
 9199              		.loc 1 3667 8 view .LVU2328
 9200 0018 2370     		strb	r3, [r4]
3668:Drivers/lsm303agr/Src/lsm303agr_reg.c **** 
3669:Drivers/lsm303agr/Src/lsm303agr_reg.c ****   return ret;
 9201              		.loc 1 3669 3 is_stmt 1 view .LVU2329
3670:Drivers/lsm303agr/Src/lsm303agr_reg.c **** }
 9202              		.loc 1 3670 1 is_stmt 0 view .LVU2330
 9203 001a 02B0     		add	sp, sp, #8
 9204              	.LCFI393:
 9205              		.cfi_def_cfa_offset 8
 9206              		@ sp needed
 9207 001c 10BD     		pop	{r4, pc}
 9208              		.loc 1 3670 1 view .LVU2331
 9209              		.cfi_endproc
 9210              	.LFE271:
 9212              		.section	.text.lsm303agr_tap_conf_set,"ax",%progbits
 9213              		.align	1
 9214              		.global	lsm303agr_tap_conf_set
 9215              		.syntax unified
 9216              		.thumb
 9217              		.thumb_func
 9219              	lsm303agr_tap_conf_set:
 9220              	.LVL639:
 9221              	.LFB272:
3671:Drivers/lsm303agr/Src/lsm303agr_reg.c **** 
3672:Drivers/lsm303agr/Src/lsm303agr_reg.c **** /**
3673:Drivers/lsm303agr/Src/lsm303agr_reg.c ****   * @}
3674:Drivers/lsm303agr/Src/lsm303agr_reg.c ****   *
3675:Drivers/lsm303agr/Src/lsm303agr_reg.c ****   */
3676:Drivers/lsm303agr/Src/lsm303agr_reg.c **** 
3677:Drivers/lsm303agr/Src/lsm303agr_reg.c **** /**
3678:Drivers/lsm303agr/Src/lsm303agr_reg.c ****   * @addtogroup  tap_generator
3679:Drivers/lsm303agr/Src/lsm303agr_reg.c ****   * @brief       This section group all the functions that manage the tap and
3680:Drivers/lsm303agr/Src/lsm303agr_reg.c ****   *              double tap event generation
3681:Drivers/lsm303agr/Src/lsm303agr_reg.c ****   * @{
3682:Drivers/lsm303agr/Src/lsm303agr_reg.c ****   *
3683:Drivers/lsm303agr/Src/lsm303agr_reg.c ****   */
3684:Drivers/lsm303agr/Src/lsm303agr_reg.c **** 
ARM GAS  C:\Users\SF\AppData\Local\Temp\ccFGOSN0.s 			page 235


3685:Drivers/lsm303agr/Src/lsm303agr_reg.c **** /**
3686:Drivers/lsm303agr/Src/lsm303agr_reg.c ****   * @brief  Tap/Double Tap generator configuration register.[set]
3687:Drivers/lsm303agr/Src/lsm303agr_reg.c ****   *
3688:Drivers/lsm303agr/Src/lsm303agr_reg.c ****   * @param  ctx    Read / write interface definitions.(ptr)
3689:Drivers/lsm303agr/Src/lsm303agr_reg.c ****   * @param  val    Change registers CLICK_CFG_A.(ptr)
3690:Drivers/lsm303agr/Src/lsm303agr_reg.c ****   * @retval        Interface status (MANDATORY: return 0 -> no Error).
3691:Drivers/lsm303agr/Src/lsm303agr_reg.c ****   *
3692:Drivers/lsm303agr/Src/lsm303agr_reg.c ****   */
3693:Drivers/lsm303agr/Src/lsm303agr_reg.c **** int32_t lsm303agr_tap_conf_set(stmdev_ctx_t *ctx,
3694:Drivers/lsm303agr/Src/lsm303agr_reg.c ****                                lsm303agr_click_cfg_a_t *val)
3695:Drivers/lsm303agr/Src/lsm303agr_reg.c **** {
 9222              		.loc 1 3695 1 is_stmt 1 view -0
 9223              		.cfi_startproc
 9224              		@ args = 0, pretend = 0, frame = 0
 9225              		@ frame_needed = 0, uses_anonymous_args = 0
 9226              		.loc 1 3695 1 is_stmt 0 view .LVU2333
 9227 0000 08B5     		push	{r3, lr}
 9228              	.LCFI394:
 9229              		.cfi_def_cfa_offset 8
 9230              		.cfi_offset 3, -8
 9231              		.cfi_offset 14, -4
 9232 0002 0A46     		mov	r2, r1
3696:Drivers/lsm303agr/Src/lsm303agr_reg.c ****   int32_t ret;
 9233              		.loc 1 3696 3 is_stmt 1 view .LVU2334
3697:Drivers/lsm303agr/Src/lsm303agr_reg.c **** 
3698:Drivers/lsm303agr/Src/lsm303agr_reg.c ****   ret = lsm303agr_write_reg(ctx, LSM303AGR_CLICK_CFG_A, (uint8_t *) val, 1);
 9234              		.loc 1 3698 3 view .LVU2335
 9235              		.loc 1 3698 9 is_stmt 0 view .LVU2336
 9236 0004 0123     		movs	r3, #1
 9237 0006 3821     		movs	r1, #56
 9238              	.LVL640:
 9239              		.loc 1 3698 9 view .LVU2337
 9240 0008 FFF7FEFF 		bl	lsm303agr_write_reg
 9241              	.LVL641:
3699:Drivers/lsm303agr/Src/lsm303agr_reg.c **** 
3700:Drivers/lsm303agr/Src/lsm303agr_reg.c ****   return ret;
 9242              		.loc 1 3700 3 is_stmt 1 view .LVU2338
3701:Drivers/lsm303agr/Src/lsm303agr_reg.c **** }
 9243              		.loc 1 3701 1 is_stmt 0 view .LVU2339
 9244 000c 08BD     		pop	{r3, pc}
 9245              		.cfi_endproc
 9246              	.LFE272:
 9248              		.section	.text.lsm303agr_tap_conf_get,"ax",%progbits
 9249              		.align	1
 9250              		.global	lsm303agr_tap_conf_get
 9251              		.syntax unified
 9252              		.thumb
 9253              		.thumb_func
 9255              	lsm303agr_tap_conf_get:
 9256              	.LVL642:
 9257              	.LFB273:
3702:Drivers/lsm303agr/Src/lsm303agr_reg.c **** 
3703:Drivers/lsm303agr/Src/lsm303agr_reg.c **** /**
3704:Drivers/lsm303agr/Src/lsm303agr_reg.c ****   * @brief  Tap/Double Tap generator configuration register.[get]
3705:Drivers/lsm303agr/Src/lsm303agr_reg.c ****   *
3706:Drivers/lsm303agr/Src/lsm303agr_reg.c ****   * @param  ctx    Read / write interface definitions.(ptr)
3707:Drivers/lsm303agr/Src/lsm303agr_reg.c ****   * @param  val    Get registers CLICK_CFG_A.(ptr)
ARM GAS  C:\Users\SF\AppData\Local\Temp\ccFGOSN0.s 			page 236


3708:Drivers/lsm303agr/Src/lsm303agr_reg.c ****   * @retval        Interface status (MANDATORY: return 0 -> no Error).
3709:Drivers/lsm303agr/Src/lsm303agr_reg.c ****   *
3710:Drivers/lsm303agr/Src/lsm303agr_reg.c ****   */
3711:Drivers/lsm303agr/Src/lsm303agr_reg.c **** int32_t lsm303agr_tap_conf_get(stmdev_ctx_t *ctx,
3712:Drivers/lsm303agr/Src/lsm303agr_reg.c ****                                lsm303agr_click_cfg_a_t *val)
3713:Drivers/lsm303agr/Src/lsm303agr_reg.c **** {
 9258              		.loc 1 3713 1 is_stmt 1 view -0
 9259              		.cfi_startproc
 9260              		@ args = 0, pretend = 0, frame = 0
 9261              		@ frame_needed = 0, uses_anonymous_args = 0
 9262              		.loc 1 3713 1 is_stmt 0 view .LVU2341
 9263 0000 08B5     		push	{r3, lr}
 9264              	.LCFI395:
 9265              		.cfi_def_cfa_offset 8
 9266              		.cfi_offset 3, -8
 9267              		.cfi_offset 14, -4
 9268 0002 0A46     		mov	r2, r1
3714:Drivers/lsm303agr/Src/lsm303agr_reg.c ****   int32_t ret;
 9269              		.loc 1 3714 3 is_stmt 1 view .LVU2342
3715:Drivers/lsm303agr/Src/lsm303agr_reg.c **** 
3716:Drivers/lsm303agr/Src/lsm303agr_reg.c ****   ret = lsm303agr_read_reg(ctx, LSM303AGR_CLICK_CFG_A, (uint8_t *) val, 1);
 9270              		.loc 1 3716 3 view .LVU2343
 9271              		.loc 1 3716 9 is_stmt 0 view .LVU2344
 9272 0004 0123     		movs	r3, #1
 9273 0006 3821     		movs	r1, #56
 9274              	.LVL643:
 9275              		.loc 1 3716 9 view .LVU2345
 9276 0008 FFF7FEFF 		bl	lsm303agr_read_reg
 9277              	.LVL644:
3717:Drivers/lsm303agr/Src/lsm303agr_reg.c **** 
3718:Drivers/lsm303agr/Src/lsm303agr_reg.c ****   return ret;
 9278              		.loc 1 3718 3 is_stmt 1 view .LVU2346
3719:Drivers/lsm303agr/Src/lsm303agr_reg.c **** }
 9279              		.loc 1 3719 1 is_stmt 0 view .LVU2347
 9280 000c 08BD     		pop	{r3, pc}
 9281              		.cfi_endproc
 9282              	.LFE273:
 9284              		.section	.text.lsm303agr_tap_source_get,"ax",%progbits
 9285              		.align	1
 9286              		.global	lsm303agr_tap_source_get
 9287              		.syntax unified
 9288              		.thumb
 9289              		.thumb_func
 9291              	lsm303agr_tap_source_get:
 9292              	.LVL645:
 9293              	.LFB274:
3720:Drivers/lsm303agr/Src/lsm303agr_reg.c **** 
3721:Drivers/lsm303agr/Src/lsm303agr_reg.c **** /**
3722:Drivers/lsm303agr/Src/lsm303agr_reg.c ****   * @brief  Tap/Double Tap generator source register.[get]
3723:Drivers/lsm303agr/Src/lsm303agr_reg.c ****   *
3724:Drivers/lsm303agr/Src/lsm303agr_reg.c ****   * @param  ctx    Read / write interface definitions.(ptr)
3725:Drivers/lsm303agr/Src/lsm303agr_reg.c ****   * @param  val    Get registers CLICK_SRC_A.(ptr)
3726:Drivers/lsm303agr/Src/lsm303agr_reg.c ****   * @retval        Interface status (MANDATORY: return 0 -> no Error).
3727:Drivers/lsm303agr/Src/lsm303agr_reg.c ****   *
3728:Drivers/lsm303agr/Src/lsm303agr_reg.c ****   */
3729:Drivers/lsm303agr/Src/lsm303agr_reg.c **** int32_t lsm303agr_tap_source_get(stmdev_ctx_t *ctx,
3730:Drivers/lsm303agr/Src/lsm303agr_reg.c ****                                  lsm303agr_click_src_a_t *val)
ARM GAS  C:\Users\SF\AppData\Local\Temp\ccFGOSN0.s 			page 237


3731:Drivers/lsm303agr/Src/lsm303agr_reg.c **** {
 9294              		.loc 1 3731 1 is_stmt 1 view -0
 9295              		.cfi_startproc
 9296              		@ args = 0, pretend = 0, frame = 0
 9297              		@ frame_needed = 0, uses_anonymous_args = 0
 9298              		.loc 1 3731 1 is_stmt 0 view .LVU2349
 9299 0000 08B5     		push	{r3, lr}
 9300              	.LCFI396:
 9301              		.cfi_def_cfa_offset 8
 9302              		.cfi_offset 3, -8
 9303              		.cfi_offset 14, -4
 9304 0002 0A46     		mov	r2, r1
3732:Drivers/lsm303agr/Src/lsm303agr_reg.c ****   int32_t ret;
 9305              		.loc 1 3732 3 is_stmt 1 view .LVU2350
3733:Drivers/lsm303agr/Src/lsm303agr_reg.c **** 
3734:Drivers/lsm303agr/Src/lsm303agr_reg.c ****   ret = lsm303agr_read_reg(ctx, LSM303AGR_CLICK_SRC_A, (uint8_t *) val, 1);
 9306              		.loc 1 3734 3 view .LVU2351
 9307              		.loc 1 3734 9 is_stmt 0 view .LVU2352
 9308 0004 0123     		movs	r3, #1
 9309 0006 3921     		movs	r1, #57
 9310              	.LVL646:
 9311              		.loc 1 3734 9 view .LVU2353
 9312 0008 FFF7FEFF 		bl	lsm303agr_read_reg
 9313              	.LVL647:
3735:Drivers/lsm303agr/Src/lsm303agr_reg.c **** 
3736:Drivers/lsm303agr/Src/lsm303agr_reg.c ****   return ret;
 9314              		.loc 1 3736 3 is_stmt 1 view .LVU2354
3737:Drivers/lsm303agr/Src/lsm303agr_reg.c **** }
 9315              		.loc 1 3737 1 is_stmt 0 view .LVU2355
 9316 000c 08BD     		pop	{r3, pc}
 9317              		.cfi_endproc
 9318              	.LFE274:
 9320              		.section	.text.lsm303agr_tap_threshold_set,"ax",%progbits
 9321              		.align	1
 9322              		.global	lsm303agr_tap_threshold_set
 9323              		.syntax unified
 9324              		.thumb
 9325              		.thumb_func
 9327              	lsm303agr_tap_threshold_set:
 9328              	.LVL648:
 9329              	.LFB275:
3738:Drivers/lsm303agr/Src/lsm303agr_reg.c **** 
3739:Drivers/lsm303agr/Src/lsm303agr_reg.c **** /**
3740:Drivers/lsm303agr/Src/lsm303agr_reg.c ****   * @brief  User-defined threshold value for Tap/Double Tap event.
3741:Drivers/lsm303agr/Src/lsm303agr_reg.c ****   *         (1 LSB = full scale/128)[set]
3742:Drivers/lsm303agr/Src/lsm303agr_reg.c ****   *
3743:Drivers/lsm303agr/Src/lsm303agr_reg.c ****   * @param  ctx    Read / write interface definitions.(ptr)
3744:Drivers/lsm303agr/Src/lsm303agr_reg.c ****   * @param  val    Change the values of ths in reg CLICK_THS_A
3745:Drivers/lsm303agr/Src/lsm303agr_reg.c ****   * @retval        Interface status (MANDATORY: return 0 -> no Error).
3746:Drivers/lsm303agr/Src/lsm303agr_reg.c ****   *
3747:Drivers/lsm303agr/Src/lsm303agr_reg.c ****   */
3748:Drivers/lsm303agr/Src/lsm303agr_reg.c **** int32_t lsm303agr_tap_threshold_set(stmdev_ctx_t *ctx, uint8_t val)
3749:Drivers/lsm303agr/Src/lsm303agr_reg.c **** {
 9330              		.loc 1 3749 1 is_stmt 1 view -0
 9331              		.cfi_startproc
 9332              		@ args = 0, pretend = 0, frame = 8
 9333              		@ frame_needed = 0, uses_anonymous_args = 0
ARM GAS  C:\Users\SF\AppData\Local\Temp\ccFGOSN0.s 			page 238


 9334              		.loc 1 3749 1 is_stmt 0 view .LVU2357
 9335 0000 30B5     		push	{r4, r5, lr}
 9336              	.LCFI397:
 9337              		.cfi_def_cfa_offset 12
 9338              		.cfi_offset 4, -12
 9339              		.cfi_offset 5, -8
 9340              		.cfi_offset 14, -4
 9341 0002 83B0     		sub	sp, sp, #12
 9342              	.LCFI398:
 9343              		.cfi_def_cfa_offset 24
 9344 0004 0446     		mov	r4, r0
 9345 0006 0D46     		mov	r5, r1
3750:Drivers/lsm303agr/Src/lsm303agr_reg.c ****   lsm303agr_click_ths_a_t click_ths_a;
 9346              		.loc 1 3750 3 is_stmt 1 view .LVU2358
3751:Drivers/lsm303agr/Src/lsm303agr_reg.c ****   int32_t ret;
 9347              		.loc 1 3751 3 view .LVU2359
3752:Drivers/lsm303agr/Src/lsm303agr_reg.c **** 
3753:Drivers/lsm303agr/Src/lsm303agr_reg.c ****   ret = lsm303agr_read_reg(ctx, LSM303AGR_CLICK_THS_A,
 9348              		.loc 1 3753 3 view .LVU2360
 9349              		.loc 1 3753 9 is_stmt 0 view .LVU2361
 9350 0008 0123     		movs	r3, #1
 9351 000a 01AA     		add	r2, sp, #4
 9352 000c 3A21     		movs	r1, #58
 9353              	.LVL649:
 9354              		.loc 1 3753 9 view .LVU2362
 9355 000e FFF7FEFF 		bl	lsm303agr_read_reg
 9356              	.LVL650:
3754:Drivers/lsm303agr/Src/lsm303agr_reg.c ****                            (uint8_t *)&click_ths_a, 1);
3755:Drivers/lsm303agr/Src/lsm303agr_reg.c **** 
3756:Drivers/lsm303agr/Src/lsm303agr_reg.c ****   if (ret == 0)
 9357              		.loc 1 3756 3 is_stmt 1 view .LVU2363
 9358              		.loc 1 3756 6 is_stmt 0 view .LVU2364
 9359 0012 08B1     		cbz	r0, .L544
 9360              	.LVL651:
 9361              	.L541:
3757:Drivers/lsm303agr/Src/lsm303agr_reg.c ****   {
3758:Drivers/lsm303agr/Src/lsm303agr_reg.c ****     click_ths_a.ths = (uint8_t)val;
3759:Drivers/lsm303agr/Src/lsm303agr_reg.c ****     ret = lsm303agr_write_reg(ctx, LSM303AGR_CLICK_THS_A,
3760:Drivers/lsm303agr/Src/lsm303agr_reg.c ****                               (uint8_t *)&click_ths_a, 1);
3761:Drivers/lsm303agr/Src/lsm303agr_reg.c ****   }
3762:Drivers/lsm303agr/Src/lsm303agr_reg.c **** 
3763:Drivers/lsm303agr/Src/lsm303agr_reg.c ****   return ret;
3764:Drivers/lsm303agr/Src/lsm303agr_reg.c **** }
 9362              		.loc 1 3764 1 view .LVU2365
 9363 0014 03B0     		add	sp, sp, #12
 9364              	.LCFI399:
 9365              		.cfi_remember_state
 9366              		.cfi_def_cfa_offset 12
 9367              		@ sp needed
 9368 0016 30BD     		pop	{r4, r5, pc}
 9369              	.LVL652:
 9370              	.L544:
 9371              	.LCFI400:
 9372              		.cfi_restore_state
3758:Drivers/lsm303agr/Src/lsm303agr_reg.c ****     ret = lsm303agr_write_reg(ctx, LSM303AGR_CLICK_THS_A,
 9373              		.loc 1 3758 5 is_stmt 1 view .LVU2366
3758:Drivers/lsm303agr/Src/lsm303agr_reg.c ****     ret = lsm303agr_write_reg(ctx, LSM303AGR_CLICK_THS_A,
ARM GAS  C:\Users\SF\AppData\Local\Temp\ccFGOSN0.s 			page 239


 9374              		.loc 1 3758 21 is_stmt 0 view .LVU2367
 9375 0018 9DF80430 		ldrb	r3, [sp, #4]	@ zero_extendqisi2
 9376 001c 65F30603 		bfi	r3, r5, #0, #7
 9377 0020 8DF80430 		strb	r3, [sp, #4]
3759:Drivers/lsm303agr/Src/lsm303agr_reg.c ****                               (uint8_t *)&click_ths_a, 1);
 9378              		.loc 1 3759 5 is_stmt 1 view .LVU2368
3759:Drivers/lsm303agr/Src/lsm303agr_reg.c ****                               (uint8_t *)&click_ths_a, 1);
 9379              		.loc 1 3759 11 is_stmt 0 view .LVU2369
 9380 0024 0123     		movs	r3, #1
 9381              	.LVL653:
3759:Drivers/lsm303agr/Src/lsm303agr_reg.c ****                               (uint8_t *)&click_ths_a, 1);
 9382              		.loc 1 3759 11 view .LVU2370
 9383 0026 01AA     		add	r2, sp, #4
 9384 0028 3A21     		movs	r1, #58
 9385 002a 2046     		mov	r0, r4
 9386 002c FFF7FEFF 		bl	lsm303agr_write_reg
 9387              	.LVL654:
3763:Drivers/lsm303agr/Src/lsm303agr_reg.c **** }
 9388              		.loc 1 3763 3 is_stmt 1 view .LVU2371
3763:Drivers/lsm303agr/Src/lsm303agr_reg.c **** }
 9389              		.loc 1 3763 10 is_stmt 0 view .LVU2372
 9390 0030 F0E7     		b	.L541
 9391              		.cfi_endproc
 9392              	.LFE275:
 9394              		.section	.text.lsm303agr_tap_threshold_get,"ax",%progbits
 9395              		.align	1
 9396              		.global	lsm303agr_tap_threshold_get
 9397              		.syntax unified
 9398              		.thumb
 9399              		.thumb_func
 9401              	lsm303agr_tap_threshold_get:
 9402              	.LVL655:
 9403              	.LFB276:
3765:Drivers/lsm303agr/Src/lsm303agr_reg.c **** 
3766:Drivers/lsm303agr/Src/lsm303agr_reg.c **** /**
3767:Drivers/lsm303agr/Src/lsm303agr_reg.c ****   * @brief  User-defined threshold value for Tap/Double Tap event.
3768:Drivers/lsm303agr/Src/lsm303agr_reg.c ****   *         (1 LSB = full scale/128)[get]
3769:Drivers/lsm303agr/Src/lsm303agr_reg.c ****   *
3770:Drivers/lsm303agr/Src/lsm303agr_reg.c ****   * @param  ctx    Read / write interface definitions.(ptr)
3771:Drivers/lsm303agr/Src/lsm303agr_reg.c ****   * @param  val    Get the values of ths in reg CLICK_THS_A.(ptr)
3772:Drivers/lsm303agr/Src/lsm303agr_reg.c ****   * @retval        Interface status (MANDATORY: return 0 -> no Error).
3773:Drivers/lsm303agr/Src/lsm303agr_reg.c ****   *
3774:Drivers/lsm303agr/Src/lsm303agr_reg.c ****   */
3775:Drivers/lsm303agr/Src/lsm303agr_reg.c **** int32_t lsm303agr_tap_threshold_get(stmdev_ctx_t *ctx, uint8_t *val)
3776:Drivers/lsm303agr/Src/lsm303agr_reg.c **** {
 9404              		.loc 1 3776 1 is_stmt 1 view -0
 9405              		.cfi_startproc
 9406              		@ args = 0, pretend = 0, frame = 8
 9407              		@ frame_needed = 0, uses_anonymous_args = 0
 9408              		.loc 1 3776 1 is_stmt 0 view .LVU2374
 9409 0000 10B5     		push	{r4, lr}
 9410              	.LCFI401:
 9411              		.cfi_def_cfa_offset 8
 9412              		.cfi_offset 4, -8
 9413              		.cfi_offset 14, -4
 9414 0002 82B0     		sub	sp, sp, #8
 9415              	.LCFI402:
ARM GAS  C:\Users\SF\AppData\Local\Temp\ccFGOSN0.s 			page 240


 9416              		.cfi_def_cfa_offset 16
 9417 0004 0C46     		mov	r4, r1
3777:Drivers/lsm303agr/Src/lsm303agr_reg.c ****   lsm303agr_click_ths_a_t click_ths_a;
 9418              		.loc 1 3777 3 is_stmt 1 view .LVU2375
3778:Drivers/lsm303agr/Src/lsm303agr_reg.c ****   int32_t ret;
 9419              		.loc 1 3778 3 view .LVU2376
3779:Drivers/lsm303agr/Src/lsm303agr_reg.c **** 
3780:Drivers/lsm303agr/Src/lsm303agr_reg.c ****   ret = lsm303agr_read_reg(ctx, LSM303AGR_CLICK_THS_A,
 9420              		.loc 1 3780 3 view .LVU2377
 9421              		.loc 1 3780 9 is_stmt 0 view .LVU2378
 9422 0006 0123     		movs	r3, #1
 9423 0008 01AA     		add	r2, sp, #4
 9424 000a 3A21     		movs	r1, #58
 9425              	.LVL656:
 9426              		.loc 1 3780 9 view .LVU2379
 9427 000c FFF7FEFF 		bl	lsm303agr_read_reg
 9428              	.LVL657:
3781:Drivers/lsm303agr/Src/lsm303agr_reg.c ****                            (uint8_t *)&click_ths_a, 1);
3782:Drivers/lsm303agr/Src/lsm303agr_reg.c ****   *val = click_ths_a.ths;
 9429              		.loc 1 3782 3 is_stmt 1 view .LVU2380
 9430              		.loc 1 3782 21 is_stmt 0 view .LVU2381
 9431 0010 9DF80430 		ldrb	r3, [sp, #4]	@ zero_extendqisi2
 9432 0014 C3F30603 		ubfx	r3, r3, #0, #7
 9433              		.loc 1 3782 8 view .LVU2382
 9434 0018 2370     		strb	r3, [r4]
3783:Drivers/lsm303agr/Src/lsm303agr_reg.c **** 
3784:Drivers/lsm303agr/Src/lsm303agr_reg.c ****   return ret;
 9435              		.loc 1 3784 3 is_stmt 1 view .LVU2383
3785:Drivers/lsm303agr/Src/lsm303agr_reg.c **** }
 9436              		.loc 1 3785 1 is_stmt 0 view .LVU2384
 9437 001a 02B0     		add	sp, sp, #8
 9438              	.LCFI403:
 9439              		.cfi_def_cfa_offset 8
 9440              		@ sp needed
 9441 001c 10BD     		pop	{r4, pc}
 9442              		.loc 1 3785 1 view .LVU2385
 9443              		.cfi_endproc
 9444              	.LFE276:
 9446              		.section	.text.lsm303agr_shock_dur_set,"ax",%progbits
 9447              		.align	1
 9448              		.global	lsm303agr_shock_dur_set
 9449              		.syntax unified
 9450              		.thumb
 9451              		.thumb_func
 9453              	lsm303agr_shock_dur_set:
 9454              	.LVL658:
 9455              	.LFB277:
3786:Drivers/lsm303agr/Src/lsm303agr_reg.c **** 
3787:Drivers/lsm303agr/Src/lsm303agr_reg.c **** /**
3788:Drivers/lsm303agr/Src/lsm303agr_reg.c ****   * @brief  The maximum time (1 LSB = 1/ODR) interval that can
3789:Drivers/lsm303agr/Src/lsm303agr_reg.c ****   *         elapse between the start of the click-detection procedure
3790:Drivers/lsm303agr/Src/lsm303agr_reg.c ****   *         and when the acceleration falls back below the threshold.[set]
3791:Drivers/lsm303agr/Src/lsm303agr_reg.c ****   *
3792:Drivers/lsm303agr/Src/lsm303agr_reg.c ****   * @param  ctx    Read / write interface definitions.(ptr)
3793:Drivers/lsm303agr/Src/lsm303agr_reg.c ****   * @param  val    Change the values of tli in reg TIME_LIMIT_A
3794:Drivers/lsm303agr/Src/lsm303agr_reg.c ****   * @retval        Interface status (MANDATORY: return 0 -> no Error).
3795:Drivers/lsm303agr/Src/lsm303agr_reg.c ****   *
ARM GAS  C:\Users\SF\AppData\Local\Temp\ccFGOSN0.s 			page 241


3796:Drivers/lsm303agr/Src/lsm303agr_reg.c ****   */
3797:Drivers/lsm303agr/Src/lsm303agr_reg.c **** int32_t lsm303agr_shock_dur_set(stmdev_ctx_t *ctx, uint8_t val)
3798:Drivers/lsm303agr/Src/lsm303agr_reg.c **** {
 9456              		.loc 1 3798 1 is_stmt 1 view -0
 9457              		.cfi_startproc
 9458              		@ args = 0, pretend = 0, frame = 8
 9459              		@ frame_needed = 0, uses_anonymous_args = 0
 9460              		.loc 1 3798 1 is_stmt 0 view .LVU2387
 9461 0000 30B5     		push	{r4, r5, lr}
 9462              	.LCFI404:
 9463              		.cfi_def_cfa_offset 12
 9464              		.cfi_offset 4, -12
 9465              		.cfi_offset 5, -8
 9466              		.cfi_offset 14, -4
 9467 0002 83B0     		sub	sp, sp, #12
 9468              	.LCFI405:
 9469              		.cfi_def_cfa_offset 24
 9470 0004 0446     		mov	r4, r0
 9471 0006 0D46     		mov	r5, r1
3799:Drivers/lsm303agr/Src/lsm303agr_reg.c ****   lsm303agr_time_limit_a_t time_limit_a;
 9472              		.loc 1 3799 3 is_stmt 1 view .LVU2388
3800:Drivers/lsm303agr/Src/lsm303agr_reg.c ****   int32_t ret;
 9473              		.loc 1 3800 3 view .LVU2389
3801:Drivers/lsm303agr/Src/lsm303agr_reg.c **** 
3802:Drivers/lsm303agr/Src/lsm303agr_reg.c ****   ret = lsm303agr_read_reg(ctx, LSM303AGR_TIME_LIMIT_A,
 9474              		.loc 1 3802 3 view .LVU2390
 9475              		.loc 1 3802 9 is_stmt 0 view .LVU2391
 9476 0008 0123     		movs	r3, #1
 9477 000a 01AA     		add	r2, sp, #4
 9478 000c 3B21     		movs	r1, #59
 9479              	.LVL659:
 9480              		.loc 1 3802 9 view .LVU2392
 9481 000e FFF7FEFF 		bl	lsm303agr_read_reg
 9482              	.LVL660:
3803:Drivers/lsm303agr/Src/lsm303agr_reg.c ****                            (uint8_t *)&time_limit_a, 1);
3804:Drivers/lsm303agr/Src/lsm303agr_reg.c **** 
3805:Drivers/lsm303agr/Src/lsm303agr_reg.c ****   if (ret == 0)
 9483              		.loc 1 3805 3 is_stmt 1 view .LVU2393
 9484              		.loc 1 3805 6 is_stmt 0 view .LVU2394
 9485 0012 08B1     		cbz	r0, .L550
 9486              	.LVL661:
 9487              	.L547:
3806:Drivers/lsm303agr/Src/lsm303agr_reg.c ****   {
3807:Drivers/lsm303agr/Src/lsm303agr_reg.c ****     time_limit_a.tli = (uint8_t)val;
3808:Drivers/lsm303agr/Src/lsm303agr_reg.c ****     ret = lsm303agr_write_reg(ctx, LSM303AGR_TIME_LIMIT_A,
3809:Drivers/lsm303agr/Src/lsm303agr_reg.c ****                               (uint8_t *)&time_limit_a, 1);
3810:Drivers/lsm303agr/Src/lsm303agr_reg.c ****   }
3811:Drivers/lsm303agr/Src/lsm303agr_reg.c **** 
3812:Drivers/lsm303agr/Src/lsm303agr_reg.c ****   return ret;
3813:Drivers/lsm303agr/Src/lsm303agr_reg.c **** }
 9488              		.loc 1 3813 1 view .LVU2395
 9489 0014 03B0     		add	sp, sp, #12
 9490              	.LCFI406:
 9491              		.cfi_remember_state
 9492              		.cfi_def_cfa_offset 12
 9493              		@ sp needed
 9494 0016 30BD     		pop	{r4, r5, pc}
ARM GAS  C:\Users\SF\AppData\Local\Temp\ccFGOSN0.s 			page 242


 9495              	.LVL662:
 9496              	.L550:
 9497              	.LCFI407:
 9498              		.cfi_restore_state
3807:Drivers/lsm303agr/Src/lsm303agr_reg.c ****     ret = lsm303agr_write_reg(ctx, LSM303AGR_TIME_LIMIT_A,
 9499              		.loc 1 3807 5 is_stmt 1 view .LVU2396
3807:Drivers/lsm303agr/Src/lsm303agr_reg.c ****     ret = lsm303agr_write_reg(ctx, LSM303AGR_TIME_LIMIT_A,
 9500              		.loc 1 3807 22 is_stmt 0 view .LVU2397
 9501 0018 9DF80430 		ldrb	r3, [sp, #4]	@ zero_extendqisi2
 9502 001c 65F30603 		bfi	r3, r5, #0, #7
 9503 0020 8DF80430 		strb	r3, [sp, #4]
3808:Drivers/lsm303agr/Src/lsm303agr_reg.c ****                               (uint8_t *)&time_limit_a, 1);
 9504              		.loc 1 3808 5 is_stmt 1 view .LVU2398
3808:Drivers/lsm303agr/Src/lsm303agr_reg.c ****                               (uint8_t *)&time_limit_a, 1);
 9505              		.loc 1 3808 11 is_stmt 0 view .LVU2399
 9506 0024 0123     		movs	r3, #1
 9507              	.LVL663:
3808:Drivers/lsm303agr/Src/lsm303agr_reg.c ****                               (uint8_t *)&time_limit_a, 1);
 9508              		.loc 1 3808 11 view .LVU2400
 9509 0026 01AA     		add	r2, sp, #4
 9510 0028 3B21     		movs	r1, #59
 9511 002a 2046     		mov	r0, r4
 9512 002c FFF7FEFF 		bl	lsm303agr_write_reg
 9513              	.LVL664:
3812:Drivers/lsm303agr/Src/lsm303agr_reg.c **** }
 9514              		.loc 1 3812 3 is_stmt 1 view .LVU2401
3812:Drivers/lsm303agr/Src/lsm303agr_reg.c **** }
 9515              		.loc 1 3812 10 is_stmt 0 view .LVU2402
 9516 0030 F0E7     		b	.L547
 9517              		.cfi_endproc
 9518              	.LFE277:
 9520              		.section	.text.lsm303agr_shock_dur_get,"ax",%progbits
 9521              		.align	1
 9522              		.global	lsm303agr_shock_dur_get
 9523              		.syntax unified
 9524              		.thumb
 9525              		.thumb_func
 9527              	lsm303agr_shock_dur_get:
 9528              	.LVL665:
 9529              	.LFB278:
3814:Drivers/lsm303agr/Src/lsm303agr_reg.c **** 
3815:Drivers/lsm303agr/Src/lsm303agr_reg.c **** /**
3816:Drivers/lsm303agr/Src/lsm303agr_reg.c ****   * @brief  The maximum time (1 LSB = 1/ODR) interval that can
3817:Drivers/lsm303agr/Src/lsm303agr_reg.c ****   *         elapse between the start of the click-detection procedure
3818:Drivers/lsm303agr/Src/lsm303agr_reg.c ****   *         and when the acceleration falls back below the threshold.[get]
3819:Drivers/lsm303agr/Src/lsm303agr_reg.c ****   *
3820:Drivers/lsm303agr/Src/lsm303agr_reg.c ****   * @param  ctx    Read / write interface definitions.(ptr)
3821:Drivers/lsm303agr/Src/lsm303agr_reg.c ****   * @param  val    Get the values of tli in reg TIME_LIMIT_A.(ptr)
3822:Drivers/lsm303agr/Src/lsm303agr_reg.c ****   * @retval        Interface status (MANDATORY: return 0 -> no Error).
3823:Drivers/lsm303agr/Src/lsm303agr_reg.c ****   *
3824:Drivers/lsm303agr/Src/lsm303agr_reg.c ****   */
3825:Drivers/lsm303agr/Src/lsm303agr_reg.c **** int32_t lsm303agr_shock_dur_get(stmdev_ctx_t *ctx, uint8_t *val)
3826:Drivers/lsm303agr/Src/lsm303agr_reg.c **** {
 9530              		.loc 1 3826 1 is_stmt 1 view -0
 9531              		.cfi_startproc
 9532              		@ args = 0, pretend = 0, frame = 8
 9533              		@ frame_needed = 0, uses_anonymous_args = 0
ARM GAS  C:\Users\SF\AppData\Local\Temp\ccFGOSN0.s 			page 243


 9534              		.loc 1 3826 1 is_stmt 0 view .LVU2404
 9535 0000 10B5     		push	{r4, lr}
 9536              	.LCFI408:
 9537              		.cfi_def_cfa_offset 8
 9538              		.cfi_offset 4, -8
 9539              		.cfi_offset 14, -4
 9540 0002 82B0     		sub	sp, sp, #8
 9541              	.LCFI409:
 9542              		.cfi_def_cfa_offset 16
 9543 0004 0C46     		mov	r4, r1
3827:Drivers/lsm303agr/Src/lsm303agr_reg.c ****   lsm303agr_time_limit_a_t time_limit_a;
 9544              		.loc 1 3827 3 is_stmt 1 view .LVU2405
3828:Drivers/lsm303agr/Src/lsm303agr_reg.c ****   int32_t ret;
 9545              		.loc 1 3828 3 view .LVU2406
3829:Drivers/lsm303agr/Src/lsm303agr_reg.c **** 
3830:Drivers/lsm303agr/Src/lsm303agr_reg.c ****   ret = lsm303agr_read_reg(ctx, LSM303AGR_TIME_LIMIT_A,
 9546              		.loc 1 3830 3 view .LVU2407
 9547              		.loc 1 3830 9 is_stmt 0 view .LVU2408
 9548 0006 0123     		movs	r3, #1
 9549 0008 01AA     		add	r2, sp, #4
 9550 000a 3B21     		movs	r1, #59
 9551              	.LVL666:
 9552              		.loc 1 3830 9 view .LVU2409
 9553 000c FFF7FEFF 		bl	lsm303agr_read_reg
 9554              	.LVL667:
3831:Drivers/lsm303agr/Src/lsm303agr_reg.c ****                            (uint8_t *)&time_limit_a, 1);
3832:Drivers/lsm303agr/Src/lsm303agr_reg.c ****   *val = time_limit_a.tli;
 9555              		.loc 1 3832 3 is_stmt 1 view .LVU2410
 9556              		.loc 1 3832 22 is_stmt 0 view .LVU2411
 9557 0010 9DF80430 		ldrb	r3, [sp, #4]	@ zero_extendqisi2
 9558 0014 C3F30603 		ubfx	r3, r3, #0, #7
 9559              		.loc 1 3832 8 view .LVU2412
 9560 0018 2370     		strb	r3, [r4]
3833:Drivers/lsm303agr/Src/lsm303agr_reg.c **** 
3834:Drivers/lsm303agr/Src/lsm303agr_reg.c ****   return ret;
 9561              		.loc 1 3834 3 is_stmt 1 view .LVU2413
3835:Drivers/lsm303agr/Src/lsm303agr_reg.c **** }
 9562              		.loc 1 3835 1 is_stmt 0 view .LVU2414
 9563 001a 02B0     		add	sp, sp, #8
 9564              	.LCFI410:
 9565              		.cfi_def_cfa_offset 8
 9566              		@ sp needed
 9567 001c 10BD     		pop	{r4, pc}
 9568              		.loc 1 3835 1 view .LVU2415
 9569              		.cfi_endproc
 9570              	.LFE278:
 9572              		.section	.text.lsm303agr_quiet_dur_set,"ax",%progbits
 9573              		.align	1
 9574              		.global	lsm303agr_quiet_dur_set
 9575              		.syntax unified
 9576              		.thumb
 9577              		.thumb_func
 9579              	lsm303agr_quiet_dur_set:
 9580              	.LVL668:
 9581              	.LFB279:
3836:Drivers/lsm303agr/Src/lsm303agr_reg.c **** 
3837:Drivers/lsm303agr/Src/lsm303agr_reg.c **** /**
ARM GAS  C:\Users\SF\AppData\Local\Temp\ccFGOSN0.s 			page 244


3838:Drivers/lsm303agr/Src/lsm303agr_reg.c ****   * @brief  The time (1 LSB = 1/ODR) interval that starts after the
3839:Drivers/lsm303agr/Src/lsm303agr_reg.c ****   *         first click detection where the click-detection procedure
3840:Drivers/lsm303agr/Src/lsm303agr_reg.c ****   *         is disabled, in cases where the device is configured for
3841:Drivers/lsm303agr/Src/lsm303agr_reg.c ****   *         double-click detection.[set]
3842:Drivers/lsm303agr/Src/lsm303agr_reg.c ****   *
3843:Drivers/lsm303agr/Src/lsm303agr_reg.c ****   * @param  ctx    Read / write interface definitions.(ptr)
3844:Drivers/lsm303agr/Src/lsm303agr_reg.c ****   * @param  val    Change the values of tla in reg TIME_LATENCY_A
3845:Drivers/lsm303agr/Src/lsm303agr_reg.c ****   * @retval        Interface status (MANDATORY: return 0 -> no Error).
3846:Drivers/lsm303agr/Src/lsm303agr_reg.c ****   *
3847:Drivers/lsm303agr/Src/lsm303agr_reg.c ****   */
3848:Drivers/lsm303agr/Src/lsm303agr_reg.c **** int32_t lsm303agr_quiet_dur_set(stmdev_ctx_t *ctx, uint8_t val)
3849:Drivers/lsm303agr/Src/lsm303agr_reg.c **** {
 9582              		.loc 1 3849 1 is_stmt 1 view -0
 9583              		.cfi_startproc
 9584              		@ args = 0, pretend = 0, frame = 8
 9585              		@ frame_needed = 0, uses_anonymous_args = 0
 9586              		.loc 1 3849 1 is_stmt 0 view .LVU2417
 9587 0000 30B5     		push	{r4, r5, lr}
 9588              	.LCFI411:
 9589              		.cfi_def_cfa_offset 12
 9590              		.cfi_offset 4, -12
 9591              		.cfi_offset 5, -8
 9592              		.cfi_offset 14, -4
 9593 0002 83B0     		sub	sp, sp, #12
 9594              	.LCFI412:
 9595              		.cfi_def_cfa_offset 24
 9596 0004 0446     		mov	r4, r0
 9597 0006 0D46     		mov	r5, r1
3850:Drivers/lsm303agr/Src/lsm303agr_reg.c ****   lsm303agr_time_latency_a_t time_latency_a;
 9598              		.loc 1 3850 3 is_stmt 1 view .LVU2418
3851:Drivers/lsm303agr/Src/lsm303agr_reg.c ****   int32_t ret;
 9599              		.loc 1 3851 3 view .LVU2419
3852:Drivers/lsm303agr/Src/lsm303agr_reg.c **** 
3853:Drivers/lsm303agr/Src/lsm303agr_reg.c ****   ret = lsm303agr_read_reg(ctx, LSM303AGR_TIME_LATENCY_A,
 9600              		.loc 1 3853 3 view .LVU2420
 9601              		.loc 1 3853 9 is_stmt 0 view .LVU2421
 9602 0008 0123     		movs	r3, #1
 9603 000a 01AA     		add	r2, sp, #4
 9604 000c 3C21     		movs	r1, #60
 9605              	.LVL669:
 9606              		.loc 1 3853 9 view .LVU2422
 9607 000e FFF7FEFF 		bl	lsm303agr_read_reg
 9608              	.LVL670:
3854:Drivers/lsm303agr/Src/lsm303agr_reg.c ****                            (uint8_t *)&time_latency_a, 1);
3855:Drivers/lsm303agr/Src/lsm303agr_reg.c **** 
3856:Drivers/lsm303agr/Src/lsm303agr_reg.c ****   if (ret == 0)
 9609              		.loc 1 3856 3 is_stmt 1 view .LVU2423
 9610              		.loc 1 3856 6 is_stmt 0 view .LVU2424
 9611 0012 08B1     		cbz	r0, .L556
 9612              	.LVL671:
 9613              	.L553:
3857:Drivers/lsm303agr/Src/lsm303agr_reg.c ****   {
3858:Drivers/lsm303agr/Src/lsm303agr_reg.c ****     time_latency_a.tla = (uint8_t)val;
3859:Drivers/lsm303agr/Src/lsm303agr_reg.c ****     ret = lsm303agr_write_reg(ctx, LSM303AGR_TIME_LATENCY_A,
3860:Drivers/lsm303agr/Src/lsm303agr_reg.c ****                               (uint8_t *)&time_latency_a, 1);
3861:Drivers/lsm303agr/Src/lsm303agr_reg.c ****   }
3862:Drivers/lsm303agr/Src/lsm303agr_reg.c **** 
ARM GAS  C:\Users\SF\AppData\Local\Temp\ccFGOSN0.s 			page 245


3863:Drivers/lsm303agr/Src/lsm303agr_reg.c ****   return ret;
3864:Drivers/lsm303agr/Src/lsm303agr_reg.c **** }
 9614              		.loc 1 3864 1 view .LVU2425
 9615 0014 03B0     		add	sp, sp, #12
 9616              	.LCFI413:
 9617              		.cfi_remember_state
 9618              		.cfi_def_cfa_offset 12
 9619              		@ sp needed
 9620 0016 30BD     		pop	{r4, r5, pc}
 9621              	.LVL672:
 9622              	.L556:
 9623              	.LCFI414:
 9624              		.cfi_restore_state
3858:Drivers/lsm303agr/Src/lsm303agr_reg.c ****     ret = lsm303agr_write_reg(ctx, LSM303AGR_TIME_LATENCY_A,
 9625              		.loc 1 3858 5 is_stmt 1 view .LVU2426
3858:Drivers/lsm303agr/Src/lsm303agr_reg.c ****     ret = lsm303agr_write_reg(ctx, LSM303AGR_TIME_LATENCY_A,
 9626              		.loc 1 3858 24 is_stmt 0 view .LVU2427
 9627 0018 8DF80450 		strb	r5, [sp, #4]
3859:Drivers/lsm303agr/Src/lsm303agr_reg.c ****                               (uint8_t *)&time_latency_a, 1);
 9628              		.loc 1 3859 5 is_stmt 1 view .LVU2428
3859:Drivers/lsm303agr/Src/lsm303agr_reg.c ****                               (uint8_t *)&time_latency_a, 1);
 9629              		.loc 1 3859 11 is_stmt 0 view .LVU2429
 9630 001c 0123     		movs	r3, #1
 9631              	.LVL673:
3859:Drivers/lsm303agr/Src/lsm303agr_reg.c ****                               (uint8_t *)&time_latency_a, 1);
 9632              		.loc 1 3859 11 view .LVU2430
 9633 001e 01AA     		add	r2, sp, #4
 9634 0020 3C21     		movs	r1, #60
 9635 0022 2046     		mov	r0, r4
 9636 0024 FFF7FEFF 		bl	lsm303agr_write_reg
 9637              	.LVL674:
3863:Drivers/lsm303agr/Src/lsm303agr_reg.c **** }
 9638              		.loc 1 3863 3 is_stmt 1 view .LVU2431
3863:Drivers/lsm303agr/Src/lsm303agr_reg.c **** }
 9639              		.loc 1 3863 10 is_stmt 0 view .LVU2432
 9640 0028 F4E7     		b	.L553
 9641              		.cfi_endproc
 9642              	.LFE279:
 9644              		.section	.text.lsm303agr_quiet_dur_get,"ax",%progbits
 9645              		.align	1
 9646              		.global	lsm303agr_quiet_dur_get
 9647              		.syntax unified
 9648              		.thumb
 9649              		.thumb_func
 9651              	lsm303agr_quiet_dur_get:
 9652              	.LVL675:
 9653              	.LFB280:
3865:Drivers/lsm303agr/Src/lsm303agr_reg.c **** 
3866:Drivers/lsm303agr/Src/lsm303agr_reg.c **** /**
3867:Drivers/lsm303agr/Src/lsm303agr_reg.c ****   * @brief  The time (1 LSB = 1/ODR) interval that starts after the first click
3868:Drivers/lsm303agr/Src/lsm303agr_reg.c ****   *         detection where the click-detection procedure is disabled, in cases
3869:Drivers/lsm303agr/Src/lsm303agr_reg.c ****   *         where the device is configured for double-click detection.[get]
3870:Drivers/lsm303agr/Src/lsm303agr_reg.c ****   *
3871:Drivers/lsm303agr/Src/lsm303agr_reg.c ****   * @param  ctx    Read / write interface definitions.(ptr)
3872:Drivers/lsm303agr/Src/lsm303agr_reg.c ****   * @param  val    Get the values of tla in reg TIME_LATENCY_A.(ptr)
3873:Drivers/lsm303agr/Src/lsm303agr_reg.c ****   * @retval        Interface status (MANDATORY: return 0 -> no Error).
3874:Drivers/lsm303agr/Src/lsm303agr_reg.c ****   *
ARM GAS  C:\Users\SF\AppData\Local\Temp\ccFGOSN0.s 			page 246


3875:Drivers/lsm303agr/Src/lsm303agr_reg.c ****   */
3876:Drivers/lsm303agr/Src/lsm303agr_reg.c **** int32_t lsm303agr_quiet_dur_get(stmdev_ctx_t *ctx, uint8_t *val)
3877:Drivers/lsm303agr/Src/lsm303agr_reg.c **** {
 9654              		.loc 1 3877 1 is_stmt 1 view -0
 9655              		.cfi_startproc
 9656              		@ args = 0, pretend = 0, frame = 8
 9657              		@ frame_needed = 0, uses_anonymous_args = 0
 9658              		.loc 1 3877 1 is_stmt 0 view .LVU2434
 9659 0000 10B5     		push	{r4, lr}
 9660              	.LCFI415:
 9661              		.cfi_def_cfa_offset 8
 9662              		.cfi_offset 4, -8
 9663              		.cfi_offset 14, -4
 9664 0002 82B0     		sub	sp, sp, #8
 9665              	.LCFI416:
 9666              		.cfi_def_cfa_offset 16
 9667 0004 0C46     		mov	r4, r1
3878:Drivers/lsm303agr/Src/lsm303agr_reg.c ****   lsm303agr_time_latency_a_t time_latency_a;
 9668              		.loc 1 3878 3 is_stmt 1 view .LVU2435
3879:Drivers/lsm303agr/Src/lsm303agr_reg.c ****   int32_t ret;
 9669              		.loc 1 3879 3 view .LVU2436
3880:Drivers/lsm303agr/Src/lsm303agr_reg.c **** 
3881:Drivers/lsm303agr/Src/lsm303agr_reg.c ****   ret = lsm303agr_read_reg(ctx, LSM303AGR_TIME_LATENCY_A,
 9670              		.loc 1 3881 3 view .LVU2437
 9671              		.loc 1 3881 9 is_stmt 0 view .LVU2438
 9672 0006 0123     		movs	r3, #1
 9673 0008 01AA     		add	r2, sp, #4
 9674 000a 3C21     		movs	r1, #60
 9675              	.LVL676:
 9676              		.loc 1 3881 9 view .LVU2439
 9677 000c FFF7FEFF 		bl	lsm303agr_read_reg
 9678              	.LVL677:
3882:Drivers/lsm303agr/Src/lsm303agr_reg.c ****                            (uint8_t *)&time_latency_a, 1);
3883:Drivers/lsm303agr/Src/lsm303agr_reg.c ****   *val = time_latency_a.tla;
 9679              		.loc 1 3883 3 is_stmt 1 view .LVU2440
 9680              		.loc 1 3883 24 is_stmt 0 view .LVU2441
 9681 0010 9DF80430 		ldrb	r3, [sp, #4]	@ zero_extendqisi2
 9682              		.loc 1 3883 8 view .LVU2442
 9683 0014 2370     		strb	r3, [r4]
3884:Drivers/lsm303agr/Src/lsm303agr_reg.c **** 
3885:Drivers/lsm303agr/Src/lsm303agr_reg.c ****   return ret;
 9684              		.loc 1 3885 3 is_stmt 1 view .LVU2443
3886:Drivers/lsm303agr/Src/lsm303agr_reg.c **** }
 9685              		.loc 1 3886 1 is_stmt 0 view .LVU2444
 9686 0016 02B0     		add	sp, sp, #8
 9687              	.LCFI417:
 9688              		.cfi_def_cfa_offset 8
 9689              		@ sp needed
 9690 0018 10BD     		pop	{r4, pc}
 9691              		.loc 1 3886 1 view .LVU2445
 9692              		.cfi_endproc
 9693              	.LFE280:
 9695              		.section	.text.lsm303agr_double_tap_timeout_set,"ax",%progbits
 9696              		.align	1
 9697              		.global	lsm303agr_double_tap_timeout_set
 9698              		.syntax unified
 9699              		.thumb
ARM GAS  C:\Users\SF\AppData\Local\Temp\ccFGOSN0.s 			page 247


 9700              		.thumb_func
 9702              	lsm303agr_double_tap_timeout_set:
 9703              	.LVL678:
 9704              	.LFB281:
3887:Drivers/lsm303agr/Src/lsm303agr_reg.c **** 
3888:Drivers/lsm303agr/Src/lsm303agr_reg.c **** /**
3889:Drivers/lsm303agr/Src/lsm303agr_reg.c ****   * @brief  The maximum interval of time (1 LSB = 1/ODR) that can elapse after
3890:Drivers/lsm303agr/Src/lsm303agr_reg.c ****   *         the end of the latency interval in which the click-detection
3891:Drivers/lsm303agr/Src/lsm303agr_reg.c ****   *         procedure can start, in cases where the device is configured for
3892:Drivers/lsm303agr/Src/lsm303agr_reg.c ****   *         double-click detection.[set]
3893:Drivers/lsm303agr/Src/lsm303agr_reg.c ****   *
3894:Drivers/lsm303agr/Src/lsm303agr_reg.c ****   * @param  ctx    Read / write interface definitions.(ptr)
3895:Drivers/lsm303agr/Src/lsm303agr_reg.c ****   * @param  val    Change the values of tw in reg TIME_WINDOW_A
3896:Drivers/lsm303agr/Src/lsm303agr_reg.c ****   * @retval        Interface status (MANDATORY: return 0 -> no Error).
3897:Drivers/lsm303agr/Src/lsm303agr_reg.c ****   *
3898:Drivers/lsm303agr/Src/lsm303agr_reg.c ****   */
3899:Drivers/lsm303agr/Src/lsm303agr_reg.c **** int32_t lsm303agr_double_tap_timeout_set(stmdev_ctx_t *ctx,
3900:Drivers/lsm303agr/Src/lsm303agr_reg.c ****                                          uint8_t val)
3901:Drivers/lsm303agr/Src/lsm303agr_reg.c **** {
 9705              		.loc 1 3901 1 is_stmt 1 view -0
 9706              		.cfi_startproc
 9707              		@ args = 0, pretend = 0, frame = 8
 9708              		@ frame_needed = 0, uses_anonymous_args = 0
 9709              		.loc 1 3901 1 is_stmt 0 view .LVU2447
 9710 0000 30B5     		push	{r4, r5, lr}
 9711              	.LCFI418:
 9712              		.cfi_def_cfa_offset 12
 9713              		.cfi_offset 4, -12
 9714              		.cfi_offset 5, -8
 9715              		.cfi_offset 14, -4
 9716 0002 83B0     		sub	sp, sp, #12
 9717              	.LCFI419:
 9718              		.cfi_def_cfa_offset 24
 9719 0004 0446     		mov	r4, r0
 9720 0006 0D46     		mov	r5, r1
3902:Drivers/lsm303agr/Src/lsm303agr_reg.c ****   lsm303agr_time_window_a_t time_window_a;
 9721              		.loc 1 3902 3 is_stmt 1 view .LVU2448
3903:Drivers/lsm303agr/Src/lsm303agr_reg.c ****   int32_t ret;
 9722              		.loc 1 3903 3 view .LVU2449
3904:Drivers/lsm303agr/Src/lsm303agr_reg.c **** 
3905:Drivers/lsm303agr/Src/lsm303agr_reg.c ****   ret = lsm303agr_read_reg(ctx, LSM303AGR_TIME_WINDOW_A,
 9723              		.loc 1 3905 3 view .LVU2450
 9724              		.loc 1 3905 9 is_stmt 0 view .LVU2451
 9725 0008 0123     		movs	r3, #1
 9726 000a 01AA     		add	r2, sp, #4
 9727 000c 3D21     		movs	r1, #61
 9728              	.LVL679:
 9729              		.loc 1 3905 9 view .LVU2452
 9730 000e FFF7FEFF 		bl	lsm303agr_read_reg
 9731              	.LVL680:
3906:Drivers/lsm303agr/Src/lsm303agr_reg.c ****                            (uint8_t *)&time_window_a, 1);
3907:Drivers/lsm303agr/Src/lsm303agr_reg.c **** 
3908:Drivers/lsm303agr/Src/lsm303agr_reg.c ****   if (ret == 0)
 9732              		.loc 1 3908 3 is_stmt 1 view .LVU2453
 9733              		.loc 1 3908 6 is_stmt 0 view .LVU2454
 9734 0012 08B1     		cbz	r0, .L562
 9735              	.LVL681:
ARM GAS  C:\Users\SF\AppData\Local\Temp\ccFGOSN0.s 			page 248


 9736              	.L559:
3909:Drivers/lsm303agr/Src/lsm303agr_reg.c ****   {
3910:Drivers/lsm303agr/Src/lsm303agr_reg.c ****     time_window_a.tw = (uint8_t)val;
3911:Drivers/lsm303agr/Src/lsm303agr_reg.c ****     ret = lsm303agr_write_reg(ctx, LSM303AGR_TIME_WINDOW_A,
3912:Drivers/lsm303agr/Src/lsm303agr_reg.c ****                               (uint8_t *)&time_window_a, 1);
3913:Drivers/lsm303agr/Src/lsm303agr_reg.c ****   }
3914:Drivers/lsm303agr/Src/lsm303agr_reg.c **** 
3915:Drivers/lsm303agr/Src/lsm303agr_reg.c ****   return ret;
3916:Drivers/lsm303agr/Src/lsm303agr_reg.c **** }
 9737              		.loc 1 3916 1 view .LVU2455
 9738 0014 03B0     		add	sp, sp, #12
 9739              	.LCFI420:
 9740              		.cfi_remember_state
 9741              		.cfi_def_cfa_offset 12
 9742              		@ sp needed
 9743 0016 30BD     		pop	{r4, r5, pc}
 9744              	.LVL682:
 9745              	.L562:
 9746              	.LCFI421:
 9747              		.cfi_restore_state
3910:Drivers/lsm303agr/Src/lsm303agr_reg.c ****     ret = lsm303agr_write_reg(ctx, LSM303AGR_TIME_WINDOW_A,
 9748              		.loc 1 3910 5 is_stmt 1 view .LVU2456
3910:Drivers/lsm303agr/Src/lsm303agr_reg.c ****     ret = lsm303agr_write_reg(ctx, LSM303AGR_TIME_WINDOW_A,
 9749              		.loc 1 3910 22 is_stmt 0 view .LVU2457
 9750 0018 8DF80450 		strb	r5, [sp, #4]
3911:Drivers/lsm303agr/Src/lsm303agr_reg.c ****                               (uint8_t *)&time_window_a, 1);
 9751              		.loc 1 3911 5 is_stmt 1 view .LVU2458
3911:Drivers/lsm303agr/Src/lsm303agr_reg.c ****                               (uint8_t *)&time_window_a, 1);
 9752              		.loc 1 3911 11 is_stmt 0 view .LVU2459
 9753 001c 0123     		movs	r3, #1
 9754              	.LVL683:
3911:Drivers/lsm303agr/Src/lsm303agr_reg.c ****                               (uint8_t *)&time_window_a, 1);
 9755              		.loc 1 3911 11 view .LVU2460
 9756 001e 01AA     		add	r2, sp, #4
 9757 0020 3D21     		movs	r1, #61
 9758 0022 2046     		mov	r0, r4
 9759 0024 FFF7FEFF 		bl	lsm303agr_write_reg
 9760              	.LVL684:
3915:Drivers/lsm303agr/Src/lsm303agr_reg.c **** }
 9761              		.loc 1 3915 3 is_stmt 1 view .LVU2461
3915:Drivers/lsm303agr/Src/lsm303agr_reg.c **** }
 9762              		.loc 1 3915 10 is_stmt 0 view .LVU2462
 9763 0028 F4E7     		b	.L559
 9764              		.cfi_endproc
 9765              	.LFE281:
 9767              		.section	.text.lsm303agr_double_tap_timeout_get,"ax",%progbits
 9768              		.align	1
 9769              		.global	lsm303agr_double_tap_timeout_get
 9770              		.syntax unified
 9771              		.thumb
 9772              		.thumb_func
 9774              	lsm303agr_double_tap_timeout_get:
 9775              	.LVL685:
 9776              	.LFB282:
3917:Drivers/lsm303agr/Src/lsm303agr_reg.c **** 
3918:Drivers/lsm303agr/Src/lsm303agr_reg.c **** /**
3919:Drivers/lsm303agr/Src/lsm303agr_reg.c ****   * @brief  The maximum interval of time (1 LSB = 1/ODR) that can elapse after
ARM GAS  C:\Users\SF\AppData\Local\Temp\ccFGOSN0.s 			page 249


3920:Drivers/lsm303agr/Src/lsm303agr_reg.c ****   *         the end of the latency interval in which the click-detection
3921:Drivers/lsm303agr/Src/lsm303agr_reg.c ****   *         procedure can start, in cases where the device is configured for
3922:Drivers/lsm303agr/Src/lsm303agr_reg.c ****   *         double-click detection.[get]
3923:Drivers/lsm303agr/Src/lsm303agr_reg.c ****   *
3924:Drivers/lsm303agr/Src/lsm303agr_reg.c ****   * @param  ctx    Read / write interface definitions.(ptr)
3925:Drivers/lsm303agr/Src/lsm303agr_reg.c ****   * @param  val    Get the values of tw in reg TIME_WINDOW_A.(ptr)
3926:Drivers/lsm303agr/Src/lsm303agr_reg.c ****   * @retval        Interface status (MANDATORY: return 0 -> no Error).
3927:Drivers/lsm303agr/Src/lsm303agr_reg.c ****   *
3928:Drivers/lsm303agr/Src/lsm303agr_reg.c ****   */
3929:Drivers/lsm303agr/Src/lsm303agr_reg.c **** int32_t lsm303agr_double_tap_timeout_get(stmdev_ctx_t *ctx,
3930:Drivers/lsm303agr/Src/lsm303agr_reg.c ****                                          uint8_t *val)
3931:Drivers/lsm303agr/Src/lsm303agr_reg.c **** {
 9777              		.loc 1 3931 1 is_stmt 1 view -0
 9778              		.cfi_startproc
 9779              		@ args = 0, pretend = 0, frame = 8
 9780              		@ frame_needed = 0, uses_anonymous_args = 0
 9781              		.loc 1 3931 1 is_stmt 0 view .LVU2464
 9782 0000 10B5     		push	{r4, lr}
 9783              	.LCFI422:
 9784              		.cfi_def_cfa_offset 8
 9785              		.cfi_offset 4, -8
 9786              		.cfi_offset 14, -4
 9787 0002 82B0     		sub	sp, sp, #8
 9788              	.LCFI423:
 9789              		.cfi_def_cfa_offset 16
 9790 0004 0C46     		mov	r4, r1
3932:Drivers/lsm303agr/Src/lsm303agr_reg.c ****   lsm303agr_time_window_a_t time_window_a;
 9791              		.loc 1 3932 3 is_stmt 1 view .LVU2465
3933:Drivers/lsm303agr/Src/lsm303agr_reg.c ****   int32_t ret;
 9792              		.loc 1 3933 3 view .LVU2466
3934:Drivers/lsm303agr/Src/lsm303agr_reg.c **** 
3935:Drivers/lsm303agr/Src/lsm303agr_reg.c ****   ret = lsm303agr_read_reg(ctx, LSM303AGR_TIME_WINDOW_A,
 9793              		.loc 1 3935 3 view .LVU2467
 9794              		.loc 1 3935 9 is_stmt 0 view .LVU2468
 9795 0006 0123     		movs	r3, #1
 9796 0008 01AA     		add	r2, sp, #4
 9797 000a 3D21     		movs	r1, #61
 9798              	.LVL686:
 9799              		.loc 1 3935 9 view .LVU2469
 9800 000c FFF7FEFF 		bl	lsm303agr_read_reg
 9801              	.LVL687:
3936:Drivers/lsm303agr/Src/lsm303agr_reg.c ****                            (uint8_t *)&time_window_a, 1);
3937:Drivers/lsm303agr/Src/lsm303agr_reg.c ****   *val = time_window_a.tw;
 9802              		.loc 1 3937 3 is_stmt 1 view .LVU2470
 9803              		.loc 1 3937 23 is_stmt 0 view .LVU2471
 9804 0010 9DF80430 		ldrb	r3, [sp, #4]	@ zero_extendqisi2
 9805              		.loc 1 3937 8 view .LVU2472
 9806 0014 2370     		strb	r3, [r4]
3938:Drivers/lsm303agr/Src/lsm303agr_reg.c **** 
3939:Drivers/lsm303agr/Src/lsm303agr_reg.c ****   return ret;
 9807              		.loc 1 3939 3 is_stmt 1 view .LVU2473
3940:Drivers/lsm303agr/Src/lsm303agr_reg.c **** }
 9808              		.loc 1 3940 1 is_stmt 0 view .LVU2474
 9809 0016 02B0     		add	sp, sp, #8
 9810              	.LCFI424:
 9811              		.cfi_def_cfa_offset 8
 9812              		@ sp needed
ARM GAS  C:\Users\SF\AppData\Local\Temp\ccFGOSN0.s 			page 250


 9813 0018 10BD     		pop	{r4, pc}
 9814              		.loc 1 3940 1 view .LVU2475
 9815              		.cfi_endproc
 9816              	.LFE282:
 9818              		.section	.text.lsm303agr_act_threshold_set,"ax",%progbits
 9819              		.align	1
 9820              		.global	lsm303agr_act_threshold_set
 9821              		.syntax unified
 9822              		.thumb
 9823              		.thumb_func
 9825              	lsm303agr_act_threshold_set:
 9826              	.LVL688:
 9827              	.LFB283:
3941:Drivers/lsm303agr/Src/lsm303agr_reg.c **** 
3942:Drivers/lsm303agr/Src/lsm303agr_reg.c **** /**
3943:Drivers/lsm303agr/Src/lsm303agr_reg.c ****   * @}
3944:Drivers/lsm303agr/Src/lsm303agr_reg.c ****   *
3945:Drivers/lsm303agr/Src/lsm303agr_reg.c ****   */
3946:Drivers/lsm303agr/Src/lsm303agr_reg.c **** 
3947:Drivers/lsm303agr/Src/lsm303agr_reg.c **** /**
3948:Drivers/lsm303agr/Src/lsm303agr_reg.c ****   * @addtogroup   activity_inactivity_xl
3949:Drivers/lsm303agr/Src/lsm303agr_reg.c ****   * @brief        This section group all the functions concerning activity
3950:Drivers/lsm303agr/Src/lsm303agr_reg.c ****   *               inactivity functionality foe accelerometer
3951:Drivers/lsm303agr/Src/lsm303agr_reg.c ****   * @{
3952:Drivers/lsm303agr/Src/lsm303agr_reg.c ****   *
3953:Drivers/lsm303agr/Src/lsm303agr_reg.c ****   */
3954:Drivers/lsm303agr/Src/lsm303agr_reg.c **** 
3955:Drivers/lsm303agr/Src/lsm303agr_reg.c **** /**
3956:Drivers/lsm303agr/Src/lsm303agr_reg.c ****   * @brief  Sleep-to-wake, return-to-sleep activation
3957:Drivers/lsm303agr/Src/lsm303agr_reg.c ****   *         threshold in low-power mode.[set]
3958:Drivers/lsm303agr/Src/lsm303agr_reg.c ****   *         1 LSb = 16mg@2g / 32mg@4g / 62mg@8g / 186mg@16g
3959:Drivers/lsm303agr/Src/lsm303agr_reg.c ****   *
3960:Drivers/lsm303agr/Src/lsm303agr_reg.c ****   * @param  ctx    Read / write interface definitions.(ptr)
3961:Drivers/lsm303agr/Src/lsm303agr_reg.c ****   * @param  val    Change the values of acth in reg ACT_THS_A
3962:Drivers/lsm303agr/Src/lsm303agr_reg.c ****   * @retval        Interface status (MANDATORY: return 0 -> no Error).
3963:Drivers/lsm303agr/Src/lsm303agr_reg.c ****   *
3964:Drivers/lsm303agr/Src/lsm303agr_reg.c ****   */
3965:Drivers/lsm303agr/Src/lsm303agr_reg.c **** int32_t lsm303agr_act_threshold_set(stmdev_ctx_t *ctx, uint8_t val)
3966:Drivers/lsm303agr/Src/lsm303agr_reg.c **** {
 9828              		.loc 1 3966 1 is_stmt 1 view -0
 9829              		.cfi_startproc
 9830              		@ args = 0, pretend = 0, frame = 8
 9831              		@ frame_needed = 0, uses_anonymous_args = 0
 9832              		.loc 1 3966 1 is_stmt 0 view .LVU2477
 9833 0000 30B5     		push	{r4, r5, lr}
 9834              	.LCFI425:
 9835              		.cfi_def_cfa_offset 12
 9836              		.cfi_offset 4, -12
 9837              		.cfi_offset 5, -8
 9838              		.cfi_offset 14, -4
 9839 0002 83B0     		sub	sp, sp, #12
 9840              	.LCFI426:
 9841              		.cfi_def_cfa_offset 24
 9842 0004 0446     		mov	r4, r0
 9843 0006 0D46     		mov	r5, r1
3967:Drivers/lsm303agr/Src/lsm303agr_reg.c ****   lsm303agr_act_ths_a_t act_ths_a;
 9844              		.loc 1 3967 3 is_stmt 1 view .LVU2478
ARM GAS  C:\Users\SF\AppData\Local\Temp\ccFGOSN0.s 			page 251


3968:Drivers/lsm303agr/Src/lsm303agr_reg.c ****   int32_t ret;
 9845              		.loc 1 3968 3 view .LVU2479
3969:Drivers/lsm303agr/Src/lsm303agr_reg.c **** 
3970:Drivers/lsm303agr/Src/lsm303agr_reg.c ****   ret = lsm303agr_read_reg(ctx, LSM303AGR_ACT_THS_A,
 9846              		.loc 1 3970 3 view .LVU2480
 9847              		.loc 1 3970 9 is_stmt 0 view .LVU2481
 9848 0008 0123     		movs	r3, #1
 9849 000a 01AA     		add	r2, sp, #4
 9850 000c 3E21     		movs	r1, #62
 9851              	.LVL689:
 9852              		.loc 1 3970 9 view .LVU2482
 9853 000e FFF7FEFF 		bl	lsm303agr_read_reg
 9854              	.LVL690:
3971:Drivers/lsm303agr/Src/lsm303agr_reg.c ****                            (uint8_t *)&act_ths_a, 1);
3972:Drivers/lsm303agr/Src/lsm303agr_reg.c **** 
3973:Drivers/lsm303agr/Src/lsm303agr_reg.c ****   if (ret == 0)
 9855              		.loc 1 3973 3 is_stmt 1 view .LVU2483
 9856              		.loc 1 3973 6 is_stmt 0 view .LVU2484
 9857 0012 08B1     		cbz	r0, .L568
 9858              	.LVL691:
 9859              	.L565:
3974:Drivers/lsm303agr/Src/lsm303agr_reg.c ****   {
3975:Drivers/lsm303agr/Src/lsm303agr_reg.c ****     act_ths_a.acth = (uint8_t)val;
3976:Drivers/lsm303agr/Src/lsm303agr_reg.c ****     ret = lsm303agr_write_reg(ctx, LSM303AGR_ACT_THS_A,
3977:Drivers/lsm303agr/Src/lsm303agr_reg.c ****                               (uint8_t *)&act_ths_a, 1);
3978:Drivers/lsm303agr/Src/lsm303agr_reg.c ****   }
3979:Drivers/lsm303agr/Src/lsm303agr_reg.c **** 
3980:Drivers/lsm303agr/Src/lsm303agr_reg.c ****   return ret;
3981:Drivers/lsm303agr/Src/lsm303agr_reg.c **** }
 9860              		.loc 1 3981 1 view .LVU2485
 9861 0014 03B0     		add	sp, sp, #12
 9862              	.LCFI427:
 9863              		.cfi_remember_state
 9864              		.cfi_def_cfa_offset 12
 9865              		@ sp needed
 9866 0016 30BD     		pop	{r4, r5, pc}
 9867              	.LVL692:
 9868              	.L568:
 9869              	.LCFI428:
 9870              		.cfi_restore_state
3975:Drivers/lsm303agr/Src/lsm303agr_reg.c ****     ret = lsm303agr_write_reg(ctx, LSM303AGR_ACT_THS_A,
 9871              		.loc 1 3975 5 is_stmt 1 view .LVU2486
3975:Drivers/lsm303agr/Src/lsm303agr_reg.c ****     ret = lsm303agr_write_reg(ctx, LSM303AGR_ACT_THS_A,
 9872              		.loc 1 3975 20 is_stmt 0 view .LVU2487
 9873 0018 9DF80430 		ldrb	r3, [sp, #4]	@ zero_extendqisi2
 9874 001c 65F30603 		bfi	r3, r5, #0, #7
 9875 0020 8DF80430 		strb	r3, [sp, #4]
3976:Drivers/lsm303agr/Src/lsm303agr_reg.c ****                               (uint8_t *)&act_ths_a, 1);
 9876              		.loc 1 3976 5 is_stmt 1 view .LVU2488
3976:Drivers/lsm303agr/Src/lsm303agr_reg.c ****                               (uint8_t *)&act_ths_a, 1);
 9877              		.loc 1 3976 11 is_stmt 0 view .LVU2489
 9878 0024 0123     		movs	r3, #1
 9879              	.LVL693:
3976:Drivers/lsm303agr/Src/lsm303agr_reg.c ****                               (uint8_t *)&act_ths_a, 1);
 9880              		.loc 1 3976 11 view .LVU2490
 9881 0026 01AA     		add	r2, sp, #4
 9882 0028 3E21     		movs	r1, #62
ARM GAS  C:\Users\SF\AppData\Local\Temp\ccFGOSN0.s 			page 252


 9883 002a 2046     		mov	r0, r4
 9884 002c FFF7FEFF 		bl	lsm303agr_write_reg
 9885              	.LVL694:
3980:Drivers/lsm303agr/Src/lsm303agr_reg.c **** }
 9886              		.loc 1 3980 3 is_stmt 1 view .LVU2491
3980:Drivers/lsm303agr/Src/lsm303agr_reg.c **** }
 9887              		.loc 1 3980 10 is_stmt 0 view .LVU2492
 9888 0030 F0E7     		b	.L565
 9889              		.cfi_endproc
 9890              	.LFE283:
 9892              		.section	.text.lsm303agr_act_threshold_get,"ax",%progbits
 9893              		.align	1
 9894              		.global	lsm303agr_act_threshold_get
 9895              		.syntax unified
 9896              		.thumb
 9897              		.thumb_func
 9899              	lsm303agr_act_threshold_get:
 9900              	.LVL695:
 9901              	.LFB284:
3982:Drivers/lsm303agr/Src/lsm303agr_reg.c **** 
3983:Drivers/lsm303agr/Src/lsm303agr_reg.c **** /**
3984:Drivers/lsm303agr/Src/lsm303agr_reg.c ****   * @brief  Sleep-to-wake, return-to-sleep activation
3985:Drivers/lsm303agr/Src/lsm303agr_reg.c ****   *          threshold in low-power mode.[get]
3986:Drivers/lsm303agr/Src/lsm303agr_reg.c ****   *          1 LSb = 16mg@2g / 32mg@4g / 62mg@8g / 186mg@16g
3987:Drivers/lsm303agr/Src/lsm303agr_reg.c ****   *
3988:Drivers/lsm303agr/Src/lsm303agr_reg.c ****   * @param  ctx    Read / write interface definitions.(ptr)
3989:Drivers/lsm303agr/Src/lsm303agr_reg.c ****   * @param  val    Get the values of acth in reg ACT_THS_A.(ptr)
3990:Drivers/lsm303agr/Src/lsm303agr_reg.c ****   * @retval        Interface status (MANDATORY: return 0 -> no Error).
3991:Drivers/lsm303agr/Src/lsm303agr_reg.c ****   *
3992:Drivers/lsm303agr/Src/lsm303agr_reg.c ****   */
3993:Drivers/lsm303agr/Src/lsm303agr_reg.c **** int32_t lsm303agr_act_threshold_get(stmdev_ctx_t *ctx, uint8_t *val)
3994:Drivers/lsm303agr/Src/lsm303agr_reg.c **** {
 9902              		.loc 1 3994 1 is_stmt 1 view -0
 9903              		.cfi_startproc
 9904              		@ args = 0, pretend = 0, frame = 8
 9905              		@ frame_needed = 0, uses_anonymous_args = 0
 9906              		.loc 1 3994 1 is_stmt 0 view .LVU2494
 9907 0000 10B5     		push	{r4, lr}
 9908              	.LCFI429:
 9909              		.cfi_def_cfa_offset 8
 9910              		.cfi_offset 4, -8
 9911              		.cfi_offset 14, -4
 9912 0002 82B0     		sub	sp, sp, #8
 9913              	.LCFI430:
 9914              		.cfi_def_cfa_offset 16
 9915 0004 0C46     		mov	r4, r1
3995:Drivers/lsm303agr/Src/lsm303agr_reg.c ****   lsm303agr_act_ths_a_t act_ths_a;
 9916              		.loc 1 3995 3 is_stmt 1 view .LVU2495
3996:Drivers/lsm303agr/Src/lsm303agr_reg.c ****   int32_t ret;
 9917              		.loc 1 3996 3 view .LVU2496
3997:Drivers/lsm303agr/Src/lsm303agr_reg.c **** 
3998:Drivers/lsm303agr/Src/lsm303agr_reg.c ****   ret = lsm303agr_read_reg(ctx, LSM303AGR_ACT_THS_A,
 9918              		.loc 1 3998 3 view .LVU2497
 9919              		.loc 1 3998 9 is_stmt 0 view .LVU2498
 9920 0006 0123     		movs	r3, #1
 9921 0008 01AA     		add	r2, sp, #4
 9922 000a 3E21     		movs	r1, #62
ARM GAS  C:\Users\SF\AppData\Local\Temp\ccFGOSN0.s 			page 253


 9923              	.LVL696:
 9924              		.loc 1 3998 9 view .LVU2499
 9925 000c FFF7FEFF 		bl	lsm303agr_read_reg
 9926              	.LVL697:
3999:Drivers/lsm303agr/Src/lsm303agr_reg.c ****                            (uint8_t *)&act_ths_a, 1);
4000:Drivers/lsm303agr/Src/lsm303agr_reg.c ****   *val = act_ths_a.acth;
 9927              		.loc 1 4000 3 is_stmt 1 view .LVU2500
 9928              		.loc 1 4000 19 is_stmt 0 view .LVU2501
 9929 0010 9DF80430 		ldrb	r3, [sp, #4]	@ zero_extendqisi2
 9930 0014 C3F30603 		ubfx	r3, r3, #0, #7
 9931              		.loc 1 4000 8 view .LVU2502
 9932 0018 2370     		strb	r3, [r4]
4001:Drivers/lsm303agr/Src/lsm303agr_reg.c **** 
4002:Drivers/lsm303agr/Src/lsm303agr_reg.c ****   return ret;
 9933              		.loc 1 4002 3 is_stmt 1 view .LVU2503
4003:Drivers/lsm303agr/Src/lsm303agr_reg.c **** }
 9934              		.loc 1 4003 1 is_stmt 0 view .LVU2504
 9935 001a 02B0     		add	sp, sp, #8
 9936              	.LCFI431:
 9937              		.cfi_def_cfa_offset 8
 9938              		@ sp needed
 9939 001c 10BD     		pop	{r4, pc}
 9940              		.loc 1 4003 1 view .LVU2505
 9941              		.cfi_endproc
 9942              	.LFE284:
 9944              		.section	.text.lsm303agr_act_timeout_set,"ax",%progbits
 9945              		.align	1
 9946              		.global	lsm303agr_act_timeout_set
 9947              		.syntax unified
 9948              		.thumb
 9949              		.thumb_func
 9951              	lsm303agr_act_timeout_set:
 9952              	.LVL698:
 9953              	.LFB285:
4004:Drivers/lsm303agr/Src/lsm303agr_reg.c **** 
4005:Drivers/lsm303agr/Src/lsm303agr_reg.c **** /**
4006:Drivers/lsm303agr/Src/lsm303agr_reg.c ****   * @brief  Sleep-to-wake, return-to-sleep duration = (8*1[LSb]+1)/ODR.[set]
4007:Drivers/lsm303agr/Src/lsm303agr_reg.c ****   *
4008:Drivers/lsm303agr/Src/lsm303agr_reg.c ****   * @param  ctx    Read / write interface definitions.(ptr)
4009:Drivers/lsm303agr/Src/lsm303agr_reg.c ****   * @param  val    Change the values of actd in reg ACT_DUR_A
4010:Drivers/lsm303agr/Src/lsm303agr_reg.c ****   * @retval        Interface status (MANDATORY: return 0 -> no Error).
4011:Drivers/lsm303agr/Src/lsm303agr_reg.c ****   *
4012:Drivers/lsm303agr/Src/lsm303agr_reg.c ****   */
4013:Drivers/lsm303agr/Src/lsm303agr_reg.c **** int32_t lsm303agr_act_timeout_set(stmdev_ctx_t *ctx, uint8_t val)
4014:Drivers/lsm303agr/Src/lsm303agr_reg.c **** {
 9954              		.loc 1 4014 1 is_stmt 1 view -0
 9955              		.cfi_startproc
 9956              		@ args = 0, pretend = 0, frame = 8
 9957              		@ frame_needed = 0, uses_anonymous_args = 0
 9958              		.loc 1 4014 1 is_stmt 0 view .LVU2507
 9959 0000 30B5     		push	{r4, r5, lr}
 9960              	.LCFI432:
 9961              		.cfi_def_cfa_offset 12
 9962              		.cfi_offset 4, -12
 9963              		.cfi_offset 5, -8
 9964              		.cfi_offset 14, -4
 9965 0002 83B0     		sub	sp, sp, #12
ARM GAS  C:\Users\SF\AppData\Local\Temp\ccFGOSN0.s 			page 254


 9966              	.LCFI433:
 9967              		.cfi_def_cfa_offset 24
 9968 0004 0446     		mov	r4, r0
 9969 0006 0D46     		mov	r5, r1
4015:Drivers/lsm303agr/Src/lsm303agr_reg.c ****   lsm303agr_act_dur_a_t act_dur_a;
 9970              		.loc 1 4015 3 is_stmt 1 view .LVU2508
4016:Drivers/lsm303agr/Src/lsm303agr_reg.c ****   int32_t ret;
 9971              		.loc 1 4016 3 view .LVU2509
4017:Drivers/lsm303agr/Src/lsm303agr_reg.c **** 
4018:Drivers/lsm303agr/Src/lsm303agr_reg.c ****   ret = lsm303agr_read_reg(ctx, LSM303AGR_ACT_DUR_A,
 9972              		.loc 1 4018 3 view .LVU2510
 9973              		.loc 1 4018 9 is_stmt 0 view .LVU2511
 9974 0008 0123     		movs	r3, #1
 9975 000a 01AA     		add	r2, sp, #4
 9976 000c 3F21     		movs	r1, #63
 9977              	.LVL699:
 9978              		.loc 1 4018 9 view .LVU2512
 9979 000e FFF7FEFF 		bl	lsm303agr_read_reg
 9980              	.LVL700:
4019:Drivers/lsm303agr/Src/lsm303agr_reg.c ****                            (uint8_t *)&act_dur_a, 1);
4020:Drivers/lsm303agr/Src/lsm303agr_reg.c **** 
4021:Drivers/lsm303agr/Src/lsm303agr_reg.c ****   if (ret == 0)
 9981              		.loc 1 4021 3 is_stmt 1 view .LVU2513
 9982              		.loc 1 4021 6 is_stmt 0 view .LVU2514
 9983 0012 08B1     		cbz	r0, .L574
 9984              	.LVL701:
 9985              	.L571:
4022:Drivers/lsm303agr/Src/lsm303agr_reg.c ****   {
4023:Drivers/lsm303agr/Src/lsm303agr_reg.c ****     act_dur_a.actd = (uint8_t)val;
4024:Drivers/lsm303agr/Src/lsm303agr_reg.c ****     ret = lsm303agr_write_reg(ctx, LSM303AGR_ACT_DUR_A,
4025:Drivers/lsm303agr/Src/lsm303agr_reg.c ****                               (uint8_t *)&act_dur_a, 1);
4026:Drivers/lsm303agr/Src/lsm303agr_reg.c ****   }
4027:Drivers/lsm303agr/Src/lsm303agr_reg.c **** 
4028:Drivers/lsm303agr/Src/lsm303agr_reg.c ****   return ret;
4029:Drivers/lsm303agr/Src/lsm303agr_reg.c **** }
 9986              		.loc 1 4029 1 view .LVU2515
 9987 0014 03B0     		add	sp, sp, #12
 9988              	.LCFI434:
 9989              		.cfi_remember_state
 9990              		.cfi_def_cfa_offset 12
 9991              		@ sp needed
 9992 0016 30BD     		pop	{r4, r5, pc}
 9993              	.LVL702:
 9994              	.L574:
 9995              	.LCFI435:
 9996              		.cfi_restore_state
4023:Drivers/lsm303agr/Src/lsm303agr_reg.c ****     ret = lsm303agr_write_reg(ctx, LSM303AGR_ACT_DUR_A,
 9997              		.loc 1 4023 5 is_stmt 1 view .LVU2516
4023:Drivers/lsm303agr/Src/lsm303agr_reg.c ****     ret = lsm303agr_write_reg(ctx, LSM303AGR_ACT_DUR_A,
 9998              		.loc 1 4023 20 is_stmt 0 view .LVU2517
 9999 0018 8DF80450 		strb	r5, [sp, #4]
4024:Drivers/lsm303agr/Src/lsm303agr_reg.c ****                               (uint8_t *)&act_dur_a, 1);
 10000              		.loc 1 4024 5 is_stmt 1 view .LVU2518
4024:Drivers/lsm303agr/Src/lsm303agr_reg.c ****                               (uint8_t *)&act_dur_a, 1);
 10001              		.loc 1 4024 11 is_stmt 0 view .LVU2519
 10002 001c 0123     		movs	r3, #1
 10003              	.LVL703:
ARM GAS  C:\Users\SF\AppData\Local\Temp\ccFGOSN0.s 			page 255


4024:Drivers/lsm303agr/Src/lsm303agr_reg.c ****                               (uint8_t *)&act_dur_a, 1);
 10004              		.loc 1 4024 11 view .LVU2520
 10005 001e 01AA     		add	r2, sp, #4
 10006 0020 3F21     		movs	r1, #63
 10007 0022 2046     		mov	r0, r4
 10008 0024 FFF7FEFF 		bl	lsm303agr_write_reg
 10009              	.LVL704:
4028:Drivers/lsm303agr/Src/lsm303agr_reg.c **** }
 10010              		.loc 1 4028 3 is_stmt 1 view .LVU2521
4028:Drivers/lsm303agr/Src/lsm303agr_reg.c **** }
 10011              		.loc 1 4028 10 is_stmt 0 view .LVU2522
 10012 0028 F4E7     		b	.L571
 10013              		.cfi_endproc
 10014              	.LFE285:
 10016              		.section	.text.lsm303agr_act_timeout_get,"ax",%progbits
 10017              		.align	1
 10018              		.global	lsm303agr_act_timeout_get
 10019              		.syntax unified
 10020              		.thumb
 10021              		.thumb_func
 10023              	lsm303agr_act_timeout_get:
 10024              	.LVL705:
 10025              	.LFB286:
4030:Drivers/lsm303agr/Src/lsm303agr_reg.c **** 
4031:Drivers/lsm303agr/Src/lsm303agr_reg.c **** /**
4032:Drivers/lsm303agr/Src/lsm303agr_reg.c ****   * @brief  Sleep-to-wake, return-to-sleep duration = (8*1[LSb]+1)/ODR.[get]
4033:Drivers/lsm303agr/Src/lsm303agr_reg.c ****   *
4034:Drivers/lsm303agr/Src/lsm303agr_reg.c ****   * @param  ctx    Read / write interface definitions.(ptr)
4035:Drivers/lsm303agr/Src/lsm303agr_reg.c ****   * @param  val    Get the values of actd in reg ACT_DUR_A.(ptr)
4036:Drivers/lsm303agr/Src/lsm303agr_reg.c ****   * @retval        Interface status (MANDATORY: return 0 -> no Error).
4037:Drivers/lsm303agr/Src/lsm303agr_reg.c ****   *
4038:Drivers/lsm303agr/Src/lsm303agr_reg.c ****   */
4039:Drivers/lsm303agr/Src/lsm303agr_reg.c **** int32_t lsm303agr_act_timeout_get(stmdev_ctx_t *ctx, uint8_t *val)
4040:Drivers/lsm303agr/Src/lsm303agr_reg.c **** {
 10026              		.loc 1 4040 1 is_stmt 1 view -0
 10027              		.cfi_startproc
 10028              		@ args = 0, pretend = 0, frame = 8
 10029              		@ frame_needed = 0, uses_anonymous_args = 0
 10030              		.loc 1 4040 1 is_stmt 0 view .LVU2524
 10031 0000 10B5     		push	{r4, lr}
 10032              	.LCFI436:
 10033              		.cfi_def_cfa_offset 8
 10034              		.cfi_offset 4, -8
 10035              		.cfi_offset 14, -4
 10036 0002 82B0     		sub	sp, sp, #8
 10037              	.LCFI437:
 10038              		.cfi_def_cfa_offset 16
 10039 0004 0C46     		mov	r4, r1
4041:Drivers/lsm303agr/Src/lsm303agr_reg.c ****   lsm303agr_act_dur_a_t act_dur_a;
 10040              		.loc 1 4041 3 is_stmt 1 view .LVU2525
4042:Drivers/lsm303agr/Src/lsm303agr_reg.c ****   int32_t ret;
 10041              		.loc 1 4042 3 view .LVU2526
4043:Drivers/lsm303agr/Src/lsm303agr_reg.c **** 
4044:Drivers/lsm303agr/Src/lsm303agr_reg.c ****   ret = lsm303agr_read_reg(ctx, LSM303AGR_ACT_DUR_A,
 10042              		.loc 1 4044 3 view .LVU2527
 10043              		.loc 1 4044 9 is_stmt 0 view .LVU2528
 10044 0006 0123     		movs	r3, #1
ARM GAS  C:\Users\SF\AppData\Local\Temp\ccFGOSN0.s 			page 256


 10045 0008 01AA     		add	r2, sp, #4
 10046 000a 3F21     		movs	r1, #63
 10047              	.LVL706:
 10048              		.loc 1 4044 9 view .LVU2529
 10049 000c FFF7FEFF 		bl	lsm303agr_read_reg
 10050              	.LVL707:
4045:Drivers/lsm303agr/Src/lsm303agr_reg.c ****                            (uint8_t *)&act_dur_a, 1);
4046:Drivers/lsm303agr/Src/lsm303agr_reg.c ****   *val = act_dur_a.actd;
 10051              		.loc 1 4046 3 is_stmt 1 view .LVU2530
 10052              		.loc 1 4046 19 is_stmt 0 view .LVU2531
 10053 0010 9DF80430 		ldrb	r3, [sp, #4]	@ zero_extendqisi2
 10054              		.loc 1 4046 8 view .LVU2532
 10055 0014 2370     		strb	r3, [r4]
4047:Drivers/lsm303agr/Src/lsm303agr_reg.c **** 
4048:Drivers/lsm303agr/Src/lsm303agr_reg.c ****   return ret;
 10056              		.loc 1 4048 3 is_stmt 1 view .LVU2533
4049:Drivers/lsm303agr/Src/lsm303agr_reg.c **** }
 10057              		.loc 1 4049 1 is_stmt 0 view .LVU2534
 10058 0016 02B0     		add	sp, sp, #8
 10059              	.LCFI438:
 10060              		.cfi_def_cfa_offset 8
 10061              		@ sp needed
 10062 0018 10BD     		pop	{r4, pc}
 10063              		.loc 1 4049 1 view .LVU2535
 10064              		.cfi_endproc
 10065              	.LFE286:
 10067              		.section	.text.lsm303agr_xl_spi_mode_set,"ax",%progbits
 10068              		.align	1
 10069              		.global	lsm303agr_xl_spi_mode_set
 10070              		.syntax unified
 10071              		.thumb
 10072              		.thumb_func
 10074              	lsm303agr_xl_spi_mode_set:
 10075              	.LVL708:
 10076              	.LFB287:
4050:Drivers/lsm303agr/Src/lsm303agr_reg.c **** 
4051:Drivers/lsm303agr/Src/lsm303agr_reg.c **** /**
4052:Drivers/lsm303agr/Src/lsm303agr_reg.c ****   * @}
4053:Drivers/lsm303agr/Src/lsm303agr_reg.c ****   *
4054:Drivers/lsm303agr/Src/lsm303agr_reg.c ****   */
4055:Drivers/lsm303agr/Src/lsm303agr_reg.c **** 
4056:Drivers/lsm303agr/Src/lsm303agr_reg.c **** /**
4057:Drivers/lsm303agr/Src/lsm303agr_reg.c ****   * @addtogroup  serial_interface
4058:Drivers/lsm303agr/Src/lsm303agr_reg.c ****   * @brief       This section group all the functions concerning serial
4059:Drivers/lsm303agr/Src/lsm303agr_reg.c ****   *              interface management
4060:Drivers/lsm303agr/Src/lsm303agr_reg.c ****   * @{
4061:Drivers/lsm303agr/Src/lsm303agr_reg.c ****   *
4062:Drivers/lsm303agr/Src/lsm303agr_reg.c ****   */
4063:Drivers/lsm303agr/Src/lsm303agr_reg.c **** 
4064:Drivers/lsm303agr/Src/lsm303agr_reg.c **** /**
4065:Drivers/lsm303agr/Src/lsm303agr_reg.c ****   * @brief  SPI Serial Interface Mode selection.[set]
4066:Drivers/lsm303agr/Src/lsm303agr_reg.c ****   *
4067:Drivers/lsm303agr/Src/lsm303agr_reg.c ****   * @param  ctx    Read / write interface definitions.(ptr)
4068:Drivers/lsm303agr/Src/lsm303agr_reg.c ****   * @param  val    Change the values of sim in reg CTRL_REG4_A
4069:Drivers/lsm303agr/Src/lsm303agr_reg.c ****   * @retval        Interface status (MANDATORY: return 0 -> no Error).
4070:Drivers/lsm303agr/Src/lsm303agr_reg.c ****   *
4071:Drivers/lsm303agr/Src/lsm303agr_reg.c ****   */
ARM GAS  C:\Users\SF\AppData\Local\Temp\ccFGOSN0.s 			page 257


4072:Drivers/lsm303agr/Src/lsm303agr_reg.c **** int32_t lsm303agr_xl_spi_mode_set(stmdev_ctx_t *ctx,
4073:Drivers/lsm303agr/Src/lsm303agr_reg.c ****                                   lsm303agr_sim_a_t val)
4074:Drivers/lsm303agr/Src/lsm303agr_reg.c **** {
 10077              		.loc 1 4074 1 is_stmt 1 view -0
 10078              		.cfi_startproc
 10079              		@ args = 0, pretend = 0, frame = 8
 10080              		@ frame_needed = 0, uses_anonymous_args = 0
 10081              		.loc 1 4074 1 is_stmt 0 view .LVU2537
 10082 0000 30B5     		push	{r4, r5, lr}
 10083              	.LCFI439:
 10084              		.cfi_def_cfa_offset 12
 10085              		.cfi_offset 4, -12
 10086              		.cfi_offset 5, -8
 10087              		.cfi_offset 14, -4
 10088 0002 83B0     		sub	sp, sp, #12
 10089              	.LCFI440:
 10090              		.cfi_def_cfa_offset 24
 10091 0004 0446     		mov	r4, r0
 10092 0006 0D46     		mov	r5, r1
4075:Drivers/lsm303agr/Src/lsm303agr_reg.c ****   lsm303agr_ctrl_reg4_a_t ctrl_reg4_a;
 10093              		.loc 1 4075 3 is_stmt 1 view .LVU2538
4076:Drivers/lsm303agr/Src/lsm303agr_reg.c ****   int32_t ret;
 10094              		.loc 1 4076 3 view .LVU2539
4077:Drivers/lsm303agr/Src/lsm303agr_reg.c **** 
4078:Drivers/lsm303agr/Src/lsm303agr_reg.c ****   ret = lsm303agr_read_reg(ctx, LSM303AGR_CTRL_REG4_A,
 10095              		.loc 1 4078 3 view .LVU2540
 10096              		.loc 1 4078 9 is_stmt 0 view .LVU2541
 10097 0008 0123     		movs	r3, #1
 10098 000a 01AA     		add	r2, sp, #4
 10099 000c 2321     		movs	r1, #35
 10100              	.LVL709:
 10101              		.loc 1 4078 9 view .LVU2542
 10102 000e FFF7FEFF 		bl	lsm303agr_read_reg
 10103              	.LVL710:
4079:Drivers/lsm303agr/Src/lsm303agr_reg.c ****                            (uint8_t *)&ctrl_reg4_a, 1);
4080:Drivers/lsm303agr/Src/lsm303agr_reg.c **** 
4081:Drivers/lsm303agr/Src/lsm303agr_reg.c ****   if (ret == 0)
 10104              		.loc 1 4081 3 is_stmt 1 view .LVU2543
 10105              		.loc 1 4081 6 is_stmt 0 view .LVU2544
 10106 0012 08B1     		cbz	r0, .L580
 10107              	.LVL711:
 10108              	.L577:
4082:Drivers/lsm303agr/Src/lsm303agr_reg.c ****   {
4083:Drivers/lsm303agr/Src/lsm303agr_reg.c ****     ctrl_reg4_a.spi_enable = (uint8_t)val;
4084:Drivers/lsm303agr/Src/lsm303agr_reg.c ****     ret = lsm303agr_write_reg(ctx, LSM303AGR_CTRL_REG4_A,
4085:Drivers/lsm303agr/Src/lsm303agr_reg.c ****                               (uint8_t *)&ctrl_reg4_a, 1);
4086:Drivers/lsm303agr/Src/lsm303agr_reg.c ****   }
4087:Drivers/lsm303agr/Src/lsm303agr_reg.c **** 
4088:Drivers/lsm303agr/Src/lsm303agr_reg.c ****   return ret;
4089:Drivers/lsm303agr/Src/lsm303agr_reg.c **** }
 10109              		.loc 1 4089 1 view .LVU2545
 10110 0014 03B0     		add	sp, sp, #12
 10111              	.LCFI441:
 10112              		.cfi_remember_state
 10113              		.cfi_def_cfa_offset 12
 10114              		@ sp needed
 10115 0016 30BD     		pop	{r4, r5, pc}
ARM GAS  C:\Users\SF\AppData\Local\Temp\ccFGOSN0.s 			page 258


 10116              	.LVL712:
 10117              	.L580:
 10118              	.LCFI442:
 10119              		.cfi_restore_state
4083:Drivers/lsm303agr/Src/lsm303agr_reg.c ****     ret = lsm303agr_write_reg(ctx, LSM303AGR_CTRL_REG4_A,
 10120              		.loc 1 4083 5 is_stmt 1 view .LVU2546
4083:Drivers/lsm303agr/Src/lsm303agr_reg.c ****     ret = lsm303agr_write_reg(ctx, LSM303AGR_CTRL_REG4_A,
 10121              		.loc 1 4083 28 is_stmt 0 view .LVU2547
 10122 0018 9DF80430 		ldrb	r3, [sp, #4]	@ zero_extendqisi2
 10123 001c 65F30003 		bfi	r3, r5, #0, #1
 10124 0020 8DF80430 		strb	r3, [sp, #4]
4084:Drivers/lsm303agr/Src/lsm303agr_reg.c ****                               (uint8_t *)&ctrl_reg4_a, 1);
 10125              		.loc 1 4084 5 is_stmt 1 view .LVU2548
4084:Drivers/lsm303agr/Src/lsm303agr_reg.c ****                               (uint8_t *)&ctrl_reg4_a, 1);
 10126              		.loc 1 4084 11 is_stmt 0 view .LVU2549
 10127 0024 0123     		movs	r3, #1
 10128              	.LVL713:
4084:Drivers/lsm303agr/Src/lsm303agr_reg.c ****                               (uint8_t *)&ctrl_reg4_a, 1);
 10129              		.loc 1 4084 11 view .LVU2550
 10130 0026 01AA     		add	r2, sp, #4
 10131 0028 2321     		movs	r1, #35
 10132 002a 2046     		mov	r0, r4
 10133 002c FFF7FEFF 		bl	lsm303agr_write_reg
 10134              	.LVL714:
4088:Drivers/lsm303agr/Src/lsm303agr_reg.c **** }
 10135              		.loc 1 4088 3 is_stmt 1 view .LVU2551
4088:Drivers/lsm303agr/Src/lsm303agr_reg.c **** }
 10136              		.loc 1 4088 10 is_stmt 0 view .LVU2552
 10137 0030 F0E7     		b	.L577
 10138              		.cfi_endproc
 10139              	.LFE287:
 10141              		.section	.text.lsm303agr_xl_spi_mode_get,"ax",%progbits
 10142              		.align	1
 10143              		.global	lsm303agr_xl_spi_mode_get
 10144              		.syntax unified
 10145              		.thumb
 10146              		.thumb_func
 10148              	lsm303agr_xl_spi_mode_get:
 10149              	.LVL715:
 10150              	.LFB288:
4090:Drivers/lsm303agr/Src/lsm303agr_reg.c **** 
4091:Drivers/lsm303agr/Src/lsm303agr_reg.c **** /**
4092:Drivers/lsm303agr/Src/lsm303agr_reg.c ****   * @brief  SPI Serial Interface Mode selection.[get]
4093:Drivers/lsm303agr/Src/lsm303agr_reg.c ****   *
4094:Drivers/lsm303agr/Src/lsm303agr_reg.c ****   * @param  ctx    Read / write interface definitions.(ptr)
4095:Drivers/lsm303agr/Src/lsm303agr_reg.c ****   * @param  val    Get the values of sim in reg CTRL_REG4_A.(ptr)
4096:Drivers/lsm303agr/Src/lsm303agr_reg.c ****   * @retval        Interface status (MANDATORY: return 0 -> no Error).
4097:Drivers/lsm303agr/Src/lsm303agr_reg.c ****   *
4098:Drivers/lsm303agr/Src/lsm303agr_reg.c ****   */
4099:Drivers/lsm303agr/Src/lsm303agr_reg.c **** int32_t lsm303agr_xl_spi_mode_get(stmdev_ctx_t *ctx,
4100:Drivers/lsm303agr/Src/lsm303agr_reg.c ****                                   lsm303agr_sim_a_t *val)
4101:Drivers/lsm303agr/Src/lsm303agr_reg.c **** {
 10151              		.loc 1 4101 1 is_stmt 1 view -0
 10152              		.cfi_startproc
 10153              		@ args = 0, pretend = 0, frame = 8
 10154              		@ frame_needed = 0, uses_anonymous_args = 0
 10155              		.loc 1 4101 1 is_stmt 0 view .LVU2554
ARM GAS  C:\Users\SF\AppData\Local\Temp\ccFGOSN0.s 			page 259


 10156 0000 10B5     		push	{r4, lr}
 10157              	.LCFI443:
 10158              		.cfi_def_cfa_offset 8
 10159              		.cfi_offset 4, -8
 10160              		.cfi_offset 14, -4
 10161 0002 82B0     		sub	sp, sp, #8
 10162              	.LCFI444:
 10163              		.cfi_def_cfa_offset 16
 10164 0004 0C46     		mov	r4, r1
4102:Drivers/lsm303agr/Src/lsm303agr_reg.c ****   lsm303agr_ctrl_reg4_a_t ctrl_reg4_a;
 10165              		.loc 1 4102 3 is_stmt 1 view .LVU2555
4103:Drivers/lsm303agr/Src/lsm303agr_reg.c ****   int32_t ret;
 10166              		.loc 1 4103 3 view .LVU2556
4104:Drivers/lsm303agr/Src/lsm303agr_reg.c **** 
4105:Drivers/lsm303agr/Src/lsm303agr_reg.c ****   ret = lsm303agr_read_reg(ctx, LSM303AGR_CTRL_REG4_A,
 10167              		.loc 1 4105 3 view .LVU2557
 10168              		.loc 1 4105 9 is_stmt 0 view .LVU2558
 10169 0006 0123     		movs	r3, #1
 10170 0008 01AA     		add	r2, sp, #4
 10171 000a 2321     		movs	r1, #35
 10172              	.LVL716:
 10173              		.loc 1 4105 9 view .LVU2559
 10174 000c FFF7FEFF 		bl	lsm303agr_read_reg
 10175              	.LVL717:
4106:Drivers/lsm303agr/Src/lsm303agr_reg.c ****                            (uint8_t *)&ctrl_reg4_a, 1);
4107:Drivers/lsm303agr/Src/lsm303agr_reg.c **** 
4108:Drivers/lsm303agr/Src/lsm303agr_reg.c ****   switch (ctrl_reg4_a.spi_enable)
 10176              		.loc 1 4108 3 is_stmt 1 view .LVU2560
 10177              		.loc 1 4108 22 is_stmt 0 view .LVU2561
 10178 0010 9DF80430 		ldrb	r3, [sp, #4]	@ zero_extendqisi2
 10179              		.loc 1 4108 3 view .LVU2562
 10180 0014 13F00103 		ands	r3, r3, #1
 10181 0018 03D0     		beq	.L582
 10182 001a 33B9     		cbnz	r3, .L583
4109:Drivers/lsm303agr/Src/lsm303agr_reg.c ****   {
4110:Drivers/lsm303agr/Src/lsm303agr_reg.c ****     case LSM303AGR_SPI_4_WIRE:
4111:Drivers/lsm303agr/Src/lsm303agr_reg.c ****       *val = LSM303AGR_SPI_4_WIRE;
4112:Drivers/lsm303agr/Src/lsm303agr_reg.c ****       break;
4113:Drivers/lsm303agr/Src/lsm303agr_reg.c **** 
4114:Drivers/lsm303agr/Src/lsm303agr_reg.c ****     case LSM303AGR_SPI_3_WIRE:
4115:Drivers/lsm303agr/Src/lsm303agr_reg.c ****       *val = LSM303AGR_SPI_3_WIRE;
4116:Drivers/lsm303agr/Src/lsm303agr_reg.c ****       break;
4117:Drivers/lsm303agr/Src/lsm303agr_reg.c **** 
4118:Drivers/lsm303agr/Src/lsm303agr_reg.c ****     default:
4119:Drivers/lsm303agr/Src/lsm303agr_reg.c ****       *val = LSM303AGR_SPI_4_WIRE;
 10183              		.loc 1 4119 7 is_stmt 1 view .LVU2563
 10184              		.loc 1 4119 12 is_stmt 0 view .LVU2564
 10185 001c 0023     		movs	r3, #0
 10186 001e 2370     		strb	r3, [r4]
4120:Drivers/lsm303agr/Src/lsm303agr_reg.c ****       break;
 10187              		.loc 1 4120 7 is_stmt 1 view .LVU2565
4121:Drivers/lsm303agr/Src/lsm303agr_reg.c ****   }
4122:Drivers/lsm303agr/Src/lsm303agr_reg.c **** 
4123:Drivers/lsm303agr/Src/lsm303agr_reg.c ****   return ret;
 10188              		.loc 1 4123 3 view .LVU2566
 10189              		.loc 1 4123 10 is_stmt 0 view .LVU2567
 10190 0020 01E0     		b	.L581
ARM GAS  C:\Users\SF\AppData\Local\Temp\ccFGOSN0.s 			page 260


 10191              	.L582:
4111:Drivers/lsm303agr/Src/lsm303agr_reg.c ****       break;
 10192              		.loc 1 4111 7 is_stmt 1 view .LVU2568
4111:Drivers/lsm303agr/Src/lsm303agr_reg.c ****       break;
 10193              		.loc 1 4111 12 is_stmt 0 view .LVU2569
 10194 0022 0023     		movs	r3, #0
 10195 0024 2370     		strb	r3, [r4]
4112:Drivers/lsm303agr/Src/lsm303agr_reg.c **** 
 10196              		.loc 1 4112 7 is_stmt 1 view .LVU2570
 10197              	.L581:
4124:Drivers/lsm303agr/Src/lsm303agr_reg.c **** }
 10198              		.loc 1 4124 1 is_stmt 0 view .LVU2571
 10199 0026 02B0     		add	sp, sp, #8
 10200              	.LCFI445:
 10201              		.cfi_remember_state
 10202              		.cfi_def_cfa_offset 8
 10203              		@ sp needed
 10204 0028 10BD     		pop	{r4, pc}
 10205              	.LVL718:
 10206              	.L583:
 10207              	.LCFI446:
 10208              		.cfi_restore_state
4115:Drivers/lsm303agr/Src/lsm303agr_reg.c ****       break;
 10209              		.loc 1 4115 7 is_stmt 1 view .LVU2572
4115:Drivers/lsm303agr/Src/lsm303agr_reg.c ****       break;
 10210              		.loc 1 4115 12 is_stmt 0 view .LVU2573
 10211 002a 0123     		movs	r3, #1
 10212 002c 2370     		strb	r3, [r4]
4116:Drivers/lsm303agr/Src/lsm303agr_reg.c **** 
 10213              		.loc 1 4116 7 is_stmt 1 view .LVU2574
 10214 002e FAE7     		b	.L581
 10215              		.cfi_endproc
 10216              	.LFE288:
 10218              		.section	.text.lsm303agr_mag_i2c_interface_set,"ax",%progbits
 10219              		.align	1
 10220              		.global	lsm303agr_mag_i2c_interface_set
 10221              		.syntax unified
 10222              		.thumb
 10223              		.thumb_func
 10225              	lsm303agr_mag_i2c_interface_set:
 10226              	.LVL719:
 10227              	.LFB289:
4125:Drivers/lsm303agr/Src/lsm303agr_reg.c **** 
4126:Drivers/lsm303agr/Src/lsm303agr_reg.c **** /**
4127:Drivers/lsm303agr/Src/lsm303agr_reg.c ****   * @brief  Enable/Disable I2C interface.[set]
4128:Drivers/lsm303agr/Src/lsm303agr_reg.c ****   *
4129:Drivers/lsm303agr/Src/lsm303agr_reg.c ****   * @param  ctx    Read / write interface definitions.(ptr)
4130:Drivers/lsm303agr/Src/lsm303agr_reg.c ****   * @param  val    Change the values of i2c_dis in reg CFG_REG_C_M
4131:Drivers/lsm303agr/Src/lsm303agr_reg.c ****   * @retval        Interface status (MANDATORY: return 0 -> no Error).
4132:Drivers/lsm303agr/Src/lsm303agr_reg.c ****   *
4133:Drivers/lsm303agr/Src/lsm303agr_reg.c ****   */
4134:Drivers/lsm303agr/Src/lsm303agr_reg.c **** int32_t lsm303agr_mag_i2c_interface_set(stmdev_ctx_t *ctx,
4135:Drivers/lsm303agr/Src/lsm303agr_reg.c ****                                         lsm303agr_i2c_dis_m_t val)
4136:Drivers/lsm303agr/Src/lsm303agr_reg.c **** {
 10228              		.loc 1 4136 1 view -0
 10229              		.cfi_startproc
 10230              		@ args = 0, pretend = 0, frame = 8
ARM GAS  C:\Users\SF\AppData\Local\Temp\ccFGOSN0.s 			page 261


 10231              		@ frame_needed = 0, uses_anonymous_args = 0
 10232              		.loc 1 4136 1 is_stmt 0 view .LVU2576
 10233 0000 30B5     		push	{r4, r5, lr}
 10234              	.LCFI447:
 10235              		.cfi_def_cfa_offset 12
 10236              		.cfi_offset 4, -12
 10237              		.cfi_offset 5, -8
 10238              		.cfi_offset 14, -4
 10239 0002 83B0     		sub	sp, sp, #12
 10240              	.LCFI448:
 10241              		.cfi_def_cfa_offset 24
 10242 0004 0446     		mov	r4, r0
 10243 0006 0D46     		mov	r5, r1
4137:Drivers/lsm303agr/Src/lsm303agr_reg.c ****   lsm303agr_cfg_reg_c_m_t cfg_reg_c_m;
 10244              		.loc 1 4137 3 is_stmt 1 view .LVU2577
4138:Drivers/lsm303agr/Src/lsm303agr_reg.c ****   int32_t ret;
 10245              		.loc 1 4138 3 view .LVU2578
4139:Drivers/lsm303agr/Src/lsm303agr_reg.c **** 
4140:Drivers/lsm303agr/Src/lsm303agr_reg.c ****   ret = lsm303agr_read_reg(ctx, LSM303AGR_CFG_REG_C_M,
 10246              		.loc 1 4140 3 view .LVU2579
 10247              		.loc 1 4140 9 is_stmt 0 view .LVU2580
 10248 0008 0123     		movs	r3, #1
 10249 000a 01AA     		add	r2, sp, #4
 10250 000c 6221     		movs	r1, #98
 10251              	.LVL720:
 10252              		.loc 1 4140 9 view .LVU2581
 10253 000e FFF7FEFF 		bl	lsm303agr_read_reg
 10254              	.LVL721:
4141:Drivers/lsm303agr/Src/lsm303agr_reg.c ****                            (uint8_t *)&cfg_reg_c_m, 1);
4142:Drivers/lsm303agr/Src/lsm303agr_reg.c **** 
4143:Drivers/lsm303agr/Src/lsm303agr_reg.c ****   if (ret == 0)
 10255              		.loc 1 4143 3 is_stmt 1 view .LVU2582
 10256              		.loc 1 4143 6 is_stmt 0 view .LVU2583
 10257 0012 08B1     		cbz	r0, .L591
 10258              	.LVL722:
 10259              	.L588:
4144:Drivers/lsm303agr/Src/lsm303agr_reg.c ****   {
4145:Drivers/lsm303agr/Src/lsm303agr_reg.c ****     cfg_reg_c_m.i2c_dis = (uint8_t)val;
4146:Drivers/lsm303agr/Src/lsm303agr_reg.c ****     ret = lsm303agr_write_reg(ctx, LSM303AGR_CFG_REG_C_M,
4147:Drivers/lsm303agr/Src/lsm303agr_reg.c ****                               (uint8_t *)&cfg_reg_c_m, 1);
4148:Drivers/lsm303agr/Src/lsm303agr_reg.c ****   }
4149:Drivers/lsm303agr/Src/lsm303agr_reg.c **** 
4150:Drivers/lsm303agr/Src/lsm303agr_reg.c ****   return ret;
4151:Drivers/lsm303agr/Src/lsm303agr_reg.c **** }
 10260              		.loc 1 4151 1 view .LVU2584
 10261 0014 03B0     		add	sp, sp, #12
 10262              	.LCFI449:
 10263              		.cfi_remember_state
 10264              		.cfi_def_cfa_offset 12
 10265              		@ sp needed
 10266 0016 30BD     		pop	{r4, r5, pc}
 10267              	.LVL723:
 10268              	.L591:
 10269              	.LCFI450:
 10270              		.cfi_restore_state
4145:Drivers/lsm303agr/Src/lsm303agr_reg.c ****     ret = lsm303agr_write_reg(ctx, LSM303AGR_CFG_REG_C_M,
 10271              		.loc 1 4145 5 is_stmt 1 view .LVU2585
ARM GAS  C:\Users\SF\AppData\Local\Temp\ccFGOSN0.s 			page 262


4145:Drivers/lsm303agr/Src/lsm303agr_reg.c ****     ret = lsm303agr_write_reg(ctx, LSM303AGR_CFG_REG_C_M,
 10272              		.loc 1 4145 25 is_stmt 0 view .LVU2586
 10273 0018 9DF80430 		ldrb	r3, [sp, #4]	@ zero_extendqisi2
 10274 001c 65F34513 		bfi	r3, r5, #5, #1
 10275 0020 8DF80430 		strb	r3, [sp, #4]
4146:Drivers/lsm303agr/Src/lsm303agr_reg.c ****                               (uint8_t *)&cfg_reg_c_m, 1);
 10276              		.loc 1 4146 5 is_stmt 1 view .LVU2587
4146:Drivers/lsm303agr/Src/lsm303agr_reg.c ****                               (uint8_t *)&cfg_reg_c_m, 1);
 10277              		.loc 1 4146 11 is_stmt 0 view .LVU2588
 10278 0024 0123     		movs	r3, #1
 10279              	.LVL724:
4146:Drivers/lsm303agr/Src/lsm303agr_reg.c ****                               (uint8_t *)&cfg_reg_c_m, 1);
 10280              		.loc 1 4146 11 view .LVU2589
 10281 0026 01AA     		add	r2, sp, #4
 10282 0028 6221     		movs	r1, #98
 10283 002a 2046     		mov	r0, r4
 10284 002c FFF7FEFF 		bl	lsm303agr_write_reg
 10285              	.LVL725:
4150:Drivers/lsm303agr/Src/lsm303agr_reg.c **** }
 10286              		.loc 1 4150 3 is_stmt 1 view .LVU2590
4150:Drivers/lsm303agr/Src/lsm303agr_reg.c **** }
 10287              		.loc 1 4150 10 is_stmt 0 view .LVU2591
 10288 0030 F0E7     		b	.L588
 10289              		.cfi_endproc
 10290              	.LFE289:
 10292              		.section	.text.lsm303agr_mag_i2c_interface_get,"ax",%progbits
 10293              		.align	1
 10294              		.global	lsm303agr_mag_i2c_interface_get
 10295              		.syntax unified
 10296              		.thumb
 10297              		.thumb_func
 10299              	lsm303agr_mag_i2c_interface_get:
 10300              	.LVL726:
 10301              	.LFB290:
4152:Drivers/lsm303agr/Src/lsm303agr_reg.c **** 
4153:Drivers/lsm303agr/Src/lsm303agr_reg.c **** /**
4154:Drivers/lsm303agr/Src/lsm303agr_reg.c ****   * @brief  Enable/Disable I2C interface.[get]
4155:Drivers/lsm303agr/Src/lsm303agr_reg.c ****   *
4156:Drivers/lsm303agr/Src/lsm303agr_reg.c ****   * @param  ctx    Read / write interface definitions.(ptr)
4157:Drivers/lsm303agr/Src/lsm303agr_reg.c ****   * @param  val    Get the values of i2c_dis in reg CFG_REG_C_M.(ptr)
4158:Drivers/lsm303agr/Src/lsm303agr_reg.c ****   * @retval        Interface status (MANDATORY: return 0 -> no Error).
4159:Drivers/lsm303agr/Src/lsm303agr_reg.c ****   *
4160:Drivers/lsm303agr/Src/lsm303agr_reg.c ****   */
4161:Drivers/lsm303agr/Src/lsm303agr_reg.c **** int32_t lsm303agr_mag_i2c_interface_get(stmdev_ctx_t *ctx,
4162:Drivers/lsm303agr/Src/lsm303agr_reg.c ****                                         lsm303agr_i2c_dis_m_t *val)
4163:Drivers/lsm303agr/Src/lsm303agr_reg.c **** {
 10302              		.loc 1 4163 1 is_stmt 1 view -0
 10303              		.cfi_startproc
 10304              		@ args = 0, pretend = 0, frame = 8
 10305              		@ frame_needed = 0, uses_anonymous_args = 0
 10306              		.loc 1 4163 1 is_stmt 0 view .LVU2593
 10307 0000 10B5     		push	{r4, lr}
 10308              	.LCFI451:
 10309              		.cfi_def_cfa_offset 8
 10310              		.cfi_offset 4, -8
 10311              		.cfi_offset 14, -4
 10312 0002 82B0     		sub	sp, sp, #8
ARM GAS  C:\Users\SF\AppData\Local\Temp\ccFGOSN0.s 			page 263


 10313              	.LCFI452:
 10314              		.cfi_def_cfa_offset 16
 10315 0004 0C46     		mov	r4, r1
4164:Drivers/lsm303agr/Src/lsm303agr_reg.c ****   lsm303agr_cfg_reg_c_m_t cfg_reg_c_m;
 10316              		.loc 1 4164 3 is_stmt 1 view .LVU2594
4165:Drivers/lsm303agr/Src/lsm303agr_reg.c ****   int32_t ret;
 10317              		.loc 1 4165 3 view .LVU2595
4166:Drivers/lsm303agr/Src/lsm303agr_reg.c **** 
4167:Drivers/lsm303agr/Src/lsm303agr_reg.c ****   ret = lsm303agr_read_reg(ctx, LSM303AGR_CFG_REG_C_M,
 10318              		.loc 1 4167 3 view .LVU2596
 10319              		.loc 1 4167 9 is_stmt 0 view .LVU2597
 10320 0006 0123     		movs	r3, #1
 10321 0008 01AA     		add	r2, sp, #4
 10322 000a 6221     		movs	r1, #98
 10323              	.LVL727:
 10324              		.loc 1 4167 9 view .LVU2598
 10325 000c FFF7FEFF 		bl	lsm303agr_read_reg
 10326              	.LVL728:
4168:Drivers/lsm303agr/Src/lsm303agr_reg.c ****                            (uint8_t *)&cfg_reg_c_m, 1);
4169:Drivers/lsm303agr/Src/lsm303agr_reg.c **** 
4170:Drivers/lsm303agr/Src/lsm303agr_reg.c ****   switch (cfg_reg_c_m.i2c_dis)
 10327              		.loc 1 4170 3 is_stmt 1 view .LVU2599
 10328              		.loc 1 4170 22 is_stmt 0 view .LVU2600
 10329 0010 9DF80430 		ldrb	r3, [sp, #4]	@ zero_extendqisi2
 10330 0014 C3F34012 		ubfx	r2, r3, #5, #1
 10331              		.loc 1 4170 3 view .LVU2601
 10332 0018 13F0200F 		tst	r3, #32
 10333 001c 03D0     		beq	.L593
 10334 001e 32B9     		cbnz	r2, .L594
4171:Drivers/lsm303agr/Src/lsm303agr_reg.c ****   {
4172:Drivers/lsm303agr/Src/lsm303agr_reg.c ****     case LSM303AGR_I2C_ENABLE:
4173:Drivers/lsm303agr/Src/lsm303agr_reg.c ****       *val = LSM303AGR_I2C_ENABLE;
4174:Drivers/lsm303agr/Src/lsm303agr_reg.c ****       break;
4175:Drivers/lsm303agr/Src/lsm303agr_reg.c **** 
4176:Drivers/lsm303agr/Src/lsm303agr_reg.c ****     case LSM303AGR_I2C_DISABLE:
4177:Drivers/lsm303agr/Src/lsm303agr_reg.c ****       *val = LSM303AGR_I2C_DISABLE;
4178:Drivers/lsm303agr/Src/lsm303agr_reg.c ****       break;
4179:Drivers/lsm303agr/Src/lsm303agr_reg.c **** 
4180:Drivers/lsm303agr/Src/lsm303agr_reg.c ****     default:
4181:Drivers/lsm303agr/Src/lsm303agr_reg.c ****       *val = LSM303AGR_I2C_ENABLE;
 10335              		.loc 1 4181 7 is_stmt 1 view .LVU2602
 10336              		.loc 1 4181 12 is_stmt 0 view .LVU2603
 10337 0020 0023     		movs	r3, #0
 10338 0022 2370     		strb	r3, [r4]
4182:Drivers/lsm303agr/Src/lsm303agr_reg.c ****       break;
 10339              		.loc 1 4182 7 is_stmt 1 view .LVU2604
4183:Drivers/lsm303agr/Src/lsm303agr_reg.c ****   }
4184:Drivers/lsm303agr/Src/lsm303agr_reg.c **** 
4185:Drivers/lsm303agr/Src/lsm303agr_reg.c ****   return ret;
 10340              		.loc 1 4185 3 view .LVU2605
 10341              		.loc 1 4185 10 is_stmt 0 view .LVU2606
 10342 0024 01E0     		b	.L592
 10343              	.L593:
4173:Drivers/lsm303agr/Src/lsm303agr_reg.c ****       break;
 10344              		.loc 1 4173 7 is_stmt 1 view .LVU2607
4173:Drivers/lsm303agr/Src/lsm303agr_reg.c ****       break;
 10345              		.loc 1 4173 12 is_stmt 0 view .LVU2608
ARM GAS  C:\Users\SF\AppData\Local\Temp\ccFGOSN0.s 			page 264


 10346 0026 0023     		movs	r3, #0
 10347 0028 2370     		strb	r3, [r4]
4174:Drivers/lsm303agr/Src/lsm303agr_reg.c **** 
 10348              		.loc 1 4174 7 is_stmt 1 view .LVU2609
 10349              	.L592:
4186:Drivers/lsm303agr/Src/lsm303agr_reg.c **** }
 10350              		.loc 1 4186 1 is_stmt 0 view .LVU2610
 10351 002a 02B0     		add	sp, sp, #8
 10352              	.LCFI453:
 10353              		.cfi_remember_state
 10354              		.cfi_def_cfa_offset 8
 10355              		@ sp needed
 10356 002c 10BD     		pop	{r4, pc}
 10357              	.LVL729:
 10358              	.L594:
 10359              	.LCFI454:
 10360              		.cfi_restore_state
4177:Drivers/lsm303agr/Src/lsm303agr_reg.c ****       break;
 10361              		.loc 1 4177 7 is_stmt 1 view .LVU2611
4177:Drivers/lsm303agr/Src/lsm303agr_reg.c ****       break;
 10362              		.loc 1 4177 12 is_stmt 0 view .LVU2612
 10363 002e 0123     		movs	r3, #1
 10364 0030 2370     		strb	r3, [r4]
4178:Drivers/lsm303agr/Src/lsm303agr_reg.c **** 
 10365              		.loc 1 4178 7 is_stmt 1 view .LVU2613
 10366 0032 FAE7     		b	.L592
 10367              		.cfi_endproc
 10368              	.LFE290:
 10370              		.global	raw_acceleration
 10371              		.global	soft_magnetic_z
 10372              		.global	soft_magnetic_y
 10373              		.global	soft_magnetic_x
 10374              		.section	.bss.raw_acceleration,"aw",%nobits
 10375              		.align	2
 10378              	raw_acceleration:
 10379 0000 00000000 		.space	6
 10379      0000
 10380              		.section	.data.mag_bus,"aw"
 10381              		.align	2
 10382              		.set	.LANCHOR1,. + 0
 10385              	mag_bus:
 10386 0000 00000000 		.word	hi2c1
 10387 0004 3D       		.byte	61
 10388 0005 000000   		.space	3
 10389 0008 00000000 		.word	0
 10390 000c 0000     		.short	0
 10391 000e 0000     		.space	2
 10392              		.section	.data.soft_magnetic_x,"aw"
 10393              		.align	2
 10394              		.set	.LANCHOR2,. + 0
 10397              	soft_magnetic_x:
 10398 0000 0000803F 		.word	1065353216
 10399 0004 00000000 		.word	0
 10400 0008 00000000 		.word	0
 10401              		.section	.data.soft_magnetic_y,"aw"
 10402              		.align	2
 10403              		.set	.LANCHOR3,. + 0
ARM GAS  C:\Users\SF\AppData\Local\Temp\ccFGOSN0.s 			page 265


 10406              	soft_magnetic_y:
 10407 0000 00000000 		.word	0
 10408 0004 0000803F 		.word	1065353216
 10409 0008 00000000 		.word	0
 10410              		.section	.data.soft_magnetic_z,"aw"
 10411              		.align	2
 10412              		.set	.LANCHOR4,. + 0
 10415              	soft_magnetic_z:
 10416 0000 00000000 		.word	0
 10417 0004 00000000 		.word	0
 10418 0008 0000803F 		.word	1065353216
 10419              		.section	.data.xl_bus,"aw"
 10420              		.align	2
 10421              		.set	.LANCHOR0,. + 0
 10424              	xl_bus:
 10425 0000 00000000 		.word	hi2c1
 10426 0004 33       		.byte	51
 10427 0005 000000   		.space	3
 10428 0008 00000000 		.word	0
 10429 000c 0000     		.short	0
 10430 000e 0000     		.space	2
 10431              		.text
 10432              	.Letext0:
 10433              		.file 2 "d:\\stm32cubeide_1.10.1\\stm32cubeide\\plugins\\com.st.stm32cube.ide.mcu.externaltools.gn
 10434              		.file 3 "d:\\stm32cubeide_1.10.1\\stm32cubeide\\plugins\\com.st.stm32cube.ide.mcu.externaltools.gn
 10435              		.file 4 "d:\\stm32cubeide_1.10.1\\stm32cubeide\\plugins\\com.st.stm32cube.ide.mcu.externaltools.gn
 10436              		.file 5 "Drivers/CMSIS/Device/ST/STM32F4xx/Include/stm32f411xe.h"
 10437              		.file 6 "Drivers/STM32F4xx_HAL_Driver/Inc/stm32f4xx_hal_def.h"
 10438              		.file 7 "Drivers/STM32F4xx_HAL_Driver/Inc/stm32f4xx_hal_gpio.h"
 10439              		.file 8 "Drivers/STM32F4xx_HAL_Driver/Inc/stm32f4xx_hal_dma.h"
 10440              		.file 9 "Drivers/STM32F4xx_HAL_Driver/Inc/stm32f4xx_hal_i2c.h"
 10441              		.file 10 "Drivers/lsm303agr/Inc/lsm303agr_reg.h"
 10442              		.file 11 "Drivers/STM32F4xx_HAL_Driver/Inc/stm32f4xx_hal.h"
 10443              		.file 12 "<built-in>"
ARM GAS  C:\Users\SF\AppData\Local\Temp\ccFGOSN0.s 			page 266


DEFINED SYMBOLS
                            *ABS*:0000000000000000 lsm303agr_reg.c
C:\Users\SF\AppData\Local\Temp\ccFGOSN0.s:20     .text.lsm303agr_write:0000000000000000 $t
C:\Users\SF\AppData\Local\Temp\ccFGOSN0.s:26     .text.lsm303agr_write:0000000000000000 lsm303agr_write
C:\Users\SF\AppData\Local\Temp\ccFGOSN0.s:93     .text.lsm303agr_read:0000000000000000 $t
C:\Users\SF\AppData\Local\Temp\ccFGOSN0.s:99     .text.lsm303agr_read:0000000000000000 lsm303agr_read
C:\Users\SF\AppData\Local\Temp\ccFGOSN0.s:165    .text.lsm303agr_unlock_I2C_bus:0000000000000000 $t
C:\Users\SF\AppData\Local\Temp\ccFGOSN0.s:171    .text.lsm303agr_unlock_I2C_bus:0000000000000000 lsm303agr_unlock_I2C_bus
C:\Users\SF\AppData\Local\Temp\ccFGOSN0.s:321    .text.lsm303agr_unlock_I2C_bus:00000000000000c0 $d
C:\Users\SF\AppData\Local\Temp\ccFGOSN0.s:327    .text.lsm303agr_read_reg:0000000000000000 $t
C:\Users\SF\AppData\Local\Temp\ccFGOSN0.s:333    .text.lsm303agr_read_reg:0000000000000000 lsm303agr_read_reg
C:\Users\SF\AppData\Local\Temp\ccFGOSN0.s:363    .text.lsm303agr_write_reg:0000000000000000 $t
C:\Users\SF\AppData\Local\Temp\ccFGOSN0.s:369    .text.lsm303agr_write_reg:0000000000000000 lsm303agr_write_reg
C:\Users\SF\AppData\Local\Temp\ccFGOSN0.s:399    .text.lsm303agr_from_fs_2g_hr_to_mg:0000000000000000 $t
C:\Users\SF\AppData\Local\Temp\ccFGOSN0.s:405    .text.lsm303agr_from_fs_2g_hr_to_mg:0000000000000000 lsm303agr_from_fs_2g_hr_to_mg
C:\Users\SF\AppData\Local\Temp\ccFGOSN0.s:428    .text.lsm303agr_from_fs_2g_hr_to_mg:000000000000001c $d
C:\Users\SF\AppData\Local\Temp\ccFGOSN0.s:434    .text.lsm303agr_from_fs_4g_hr_to_mg:0000000000000000 $t
C:\Users\SF\AppData\Local\Temp\ccFGOSN0.s:440    .text.lsm303agr_from_fs_4g_hr_to_mg:0000000000000000 lsm303agr_from_fs_4g_hr_to_mg
C:\Users\SF\AppData\Local\Temp\ccFGOSN0.s:463    .text.lsm303agr_from_fs_4g_hr_to_mg:000000000000001c $d
C:\Users\SF\AppData\Local\Temp\ccFGOSN0.s:469    .text.lsm303agr_from_fs_8g_hr_to_mg:0000000000000000 $t
C:\Users\SF\AppData\Local\Temp\ccFGOSN0.s:475    .text.lsm303agr_from_fs_8g_hr_to_mg:0000000000000000 lsm303agr_from_fs_8g_hr_to_mg
C:\Users\SF\AppData\Local\Temp\ccFGOSN0.s:498    .text.lsm303agr_from_fs_8g_hr_to_mg:000000000000001c $d
C:\Users\SF\AppData\Local\Temp\ccFGOSN0.s:504    .text.lsm303agr_from_fs_16g_hr_to_mg:0000000000000000 $t
C:\Users\SF\AppData\Local\Temp\ccFGOSN0.s:510    .text.lsm303agr_from_fs_16g_hr_to_mg:0000000000000000 lsm303agr_from_fs_16g_hr_to_mg
C:\Users\SF\AppData\Local\Temp\ccFGOSN0.s:533    .text.lsm303agr_from_fs_16g_hr_to_mg:000000000000001c $d
C:\Users\SF\AppData\Local\Temp\ccFGOSN0.s:539    .text.lsm303agr_from_lsb_hr_to_celsius:0000000000000000 $t
C:\Users\SF\AppData\Local\Temp\ccFGOSN0.s:545    .text.lsm303agr_from_lsb_hr_to_celsius:0000000000000000 lsm303agr_from_lsb_hr_to_celsius
C:\Users\SF\AppData\Local\Temp\ccFGOSN0.s:571    .text.lsm303agr_from_lsb_hr_to_celsius:0000000000000024 $d
C:\Users\SF\AppData\Local\Temp\ccFGOSN0.s:576    .text.lsm303agr_from_fs_2g_nm_to_mg:0000000000000000 $t
C:\Users\SF\AppData\Local\Temp\ccFGOSN0.s:582    .text.lsm303agr_from_fs_2g_nm_to_mg:0000000000000000 lsm303agr_from_fs_2g_nm_to_mg
C:\Users\SF\AppData\Local\Temp\ccFGOSN0.s:605    .text.lsm303agr_from_fs_2g_nm_to_mg:000000000000001c $d
C:\Users\SF\AppData\Local\Temp\ccFGOSN0.s:611    .text.lsm303agr_from_fs_4g_nm_to_mg:0000000000000000 $t
C:\Users\SF\AppData\Local\Temp\ccFGOSN0.s:617    .text.lsm303agr_from_fs_4g_nm_to_mg:0000000000000000 lsm303agr_from_fs_4g_nm_to_mg
C:\Users\SF\AppData\Local\Temp\ccFGOSN0.s:640    .text.lsm303agr_from_fs_4g_nm_to_mg:000000000000001c $d
C:\Users\SF\AppData\Local\Temp\ccFGOSN0.s:646    .text.lsm303agr_from_fs_8g_nm_to_mg:0000000000000000 $t
C:\Users\SF\AppData\Local\Temp\ccFGOSN0.s:652    .text.lsm303agr_from_fs_8g_nm_to_mg:0000000000000000 lsm303agr_from_fs_8g_nm_to_mg
C:\Users\SF\AppData\Local\Temp\ccFGOSN0.s:675    .text.lsm303agr_from_fs_8g_nm_to_mg:000000000000001c $d
C:\Users\SF\AppData\Local\Temp\ccFGOSN0.s:681    .text.lsm303agr_from_fs_16g_nm_to_mg:0000000000000000 $t
C:\Users\SF\AppData\Local\Temp\ccFGOSN0.s:687    .text.lsm303agr_from_fs_16g_nm_to_mg:0000000000000000 lsm303agr_from_fs_16g_nm_to_mg
C:\Users\SF\AppData\Local\Temp\ccFGOSN0.s:710    .text.lsm303agr_from_fs_16g_nm_to_mg:000000000000001c $d
C:\Users\SF\AppData\Local\Temp\ccFGOSN0.s:716    .text.lsm303agr_from_lsb_nm_to_celsius:0000000000000000 $t
C:\Users\SF\AppData\Local\Temp\ccFGOSN0.s:722    .text.lsm303agr_from_lsb_nm_to_celsius:0000000000000000 lsm303agr_from_lsb_nm_to_celsius
C:\Users\SF\AppData\Local\Temp\ccFGOSN0.s:748    .text.lsm303agr_from_lsb_nm_to_celsius:0000000000000024 $d
C:\Users\SF\AppData\Local\Temp\ccFGOSN0.s:753    .text.lsm303agr_from_fs_2g_lp_to_mg:0000000000000000 $t
C:\Users\SF\AppData\Local\Temp\ccFGOSN0.s:759    .text.lsm303agr_from_fs_2g_lp_to_mg:0000000000000000 lsm303agr_from_fs_2g_lp_to_mg
C:\Users\SF\AppData\Local\Temp\ccFGOSN0.s:782    .text.lsm303agr_from_fs_2g_lp_to_mg:000000000000001c $d
C:\Users\SF\AppData\Local\Temp\ccFGOSN0.s:788    .text.lsm303agr_from_fs_4g_lp_to_mg:0000000000000000 $t
C:\Users\SF\AppData\Local\Temp\ccFGOSN0.s:794    .text.lsm303agr_from_fs_4g_lp_to_mg:0000000000000000 lsm303agr_from_fs_4g_lp_to_mg
C:\Users\SF\AppData\Local\Temp\ccFGOSN0.s:817    .text.lsm303agr_from_fs_4g_lp_to_mg:000000000000001c $d
C:\Users\SF\AppData\Local\Temp\ccFGOSN0.s:823    .text.lsm303agr_from_fs_8g_lp_to_mg:0000000000000000 $t
C:\Users\SF\AppData\Local\Temp\ccFGOSN0.s:829    .text.lsm303agr_from_fs_8g_lp_to_mg:0000000000000000 lsm303agr_from_fs_8g_lp_to_mg
C:\Users\SF\AppData\Local\Temp\ccFGOSN0.s:852    .text.lsm303agr_from_fs_8g_lp_to_mg:000000000000001c $d
C:\Users\SF\AppData\Local\Temp\ccFGOSN0.s:858    .text.lsm303agr_from_fs_16g_lp_to_mg:0000000000000000 $t
C:\Users\SF\AppData\Local\Temp\ccFGOSN0.s:864    .text.lsm303agr_from_fs_16g_lp_to_mg:0000000000000000 lsm303agr_from_fs_16g_lp_to_mg
C:\Users\SF\AppData\Local\Temp\ccFGOSN0.s:887    .text.lsm303agr_from_fs_16g_lp_to_mg:000000000000001c $d
C:\Users\SF\AppData\Local\Temp\ccFGOSN0.s:893    .text.lsm303agr_from_lsb_lp_to_celsius:0000000000000000 $t
C:\Users\SF\AppData\Local\Temp\ccFGOSN0.s:899    .text.lsm303agr_from_lsb_lp_to_celsius:0000000000000000 lsm303agr_from_lsb_lp_to_celsius
ARM GAS  C:\Users\SF\AppData\Local\Temp\ccFGOSN0.s 			page 267


C:\Users\SF\AppData\Local\Temp\ccFGOSN0.s:922    .text.lsm303agr_from_lsb_lp_to_celsius:000000000000001c $d
C:\Users\SF\AppData\Local\Temp\ccFGOSN0.s:927    .text.lsm303agr_from_lsb_to_mgauss:0000000000000000 $t
C:\Users\SF\AppData\Local\Temp\ccFGOSN0.s:933    .text.lsm303agr_from_lsb_to_mgauss:0000000000000000 lsm303agr_from_lsb_to_mgauss
C:\Users\SF\AppData\Local\Temp\ccFGOSN0.s:954    .text.lsm303agr_temp_status_reg_get:0000000000000000 $t
C:\Users\SF\AppData\Local\Temp\ccFGOSN0.s:960    .text.lsm303agr_temp_status_reg_get:0000000000000000 lsm303agr_temp_status_reg_get
C:\Users\SF\AppData\Local\Temp\ccFGOSN0.s:990    .text.lsm303agr_temp_data_ready_get:0000000000000000 $t
C:\Users\SF\AppData\Local\Temp\ccFGOSN0.s:996    .text.lsm303agr_temp_data_ready_get:0000000000000000 lsm303agr_temp_data_ready_get
C:\Users\SF\AppData\Local\Temp\ccFGOSN0.s:1042   .text.lsm303agr_temp_data_ovr_get:0000000000000000 $t
C:\Users\SF\AppData\Local\Temp\ccFGOSN0.s:1048   .text.lsm303agr_temp_data_ovr_get:0000000000000000 lsm303agr_temp_data_ovr_get
C:\Users\SF\AppData\Local\Temp\ccFGOSN0.s:1094   .text.lsm303agr_temperature_raw_get:0000000000000000 $t
C:\Users\SF\AppData\Local\Temp\ccFGOSN0.s:1100   .text.lsm303agr_temperature_raw_get:0000000000000000 lsm303agr_temperature_raw_get
C:\Users\SF\AppData\Local\Temp\ccFGOSN0.s:1152   .text.lsm303agr_temperature_meas_set:0000000000000000 $t
C:\Users\SF\AppData\Local\Temp\ccFGOSN0.s:1158   .text.lsm303agr_temperature_meas_set:0000000000000000 lsm303agr_temperature_meas_set
C:\Users\SF\AppData\Local\Temp\ccFGOSN0.s:1226   .text.lsm303agr_temperature_meas_get:0000000000000000 $t
C:\Users\SF\AppData\Local\Temp\ccFGOSN0.s:1232   .text.lsm303agr_temperature_meas_get:0000000000000000 lsm303agr_temperature_meas_get
C:\Users\SF\AppData\Local\Temp\ccFGOSN0.s:1304   .text.lsm303agr_xl_operating_mode_set:0000000000000000 $t
C:\Users\SF\AppData\Local\Temp\ccFGOSN0.s:1310   .text.lsm303agr_xl_operating_mode_set:0000000000000000 lsm303agr_xl_operating_mode_set
C:\Users\SF\AppData\Local\Temp\ccFGOSN0.s:1445   .text.lsm303agr_xl_operating_mode_get:0000000000000000 $t
C:\Users\SF\AppData\Local\Temp\ccFGOSN0.s:1451   .text.lsm303agr_xl_operating_mode_get:0000000000000000 lsm303agr_xl_operating_mode_get
C:\Users\SF\AppData\Local\Temp\ccFGOSN0.s:1545   .text.lsm303agr_xl_data_rate_set:0000000000000000 $t
C:\Users\SF\AppData\Local\Temp\ccFGOSN0.s:1551   .text.lsm303agr_xl_data_rate_set:0000000000000000 lsm303agr_xl_data_rate_set
C:\Users\SF\AppData\Local\Temp\ccFGOSN0.s:1619   .text.lsm303agr_xl_data_rate_get:0000000000000000 $t
C:\Users\SF\AppData\Local\Temp\ccFGOSN0.s:1625   .text.lsm303agr_xl_data_rate_get:0000000000000000 lsm303agr_xl_data_rate_get
C:\Users\SF\AppData\Local\Temp\ccFGOSN0.s:1662   .text.lsm303agr_xl_data_rate_get:000000000000001e $d
C:\Users\SF\AppData\Local\Temp\ccFGOSN0.s:1672   .text.lsm303agr_xl_data_rate_get:0000000000000028 $t
C:\Users\SF\AppData\Local\Temp\ccFGOSN0.s:1766   .text.lsm303agr_xl_high_pass_on_outputs_set:0000000000000000 $t
C:\Users\SF\AppData\Local\Temp\ccFGOSN0.s:1772   .text.lsm303agr_xl_high_pass_on_outputs_set:0000000000000000 lsm303agr_xl_high_pass_on_outputs_set
C:\Users\SF\AppData\Local\Temp\ccFGOSN0.s:1840   .text.lsm303agr_xl_high_pass_on_outputs_get:0000000000000000 $t
C:\Users\SF\AppData\Local\Temp\ccFGOSN0.s:1846   .text.lsm303agr_xl_high_pass_on_outputs_get:0000000000000000 lsm303agr_xl_high_pass_on_outputs_get
C:\Users\SF\AppData\Local\Temp\ccFGOSN0.s:1892   .text.lsm303agr_xl_high_pass_bandwidth_set:0000000000000000 $t
C:\Users\SF\AppData\Local\Temp\ccFGOSN0.s:1898   .text.lsm303agr_xl_high_pass_bandwidth_set:0000000000000000 lsm303agr_xl_high_pass_bandwidth_set
C:\Users\SF\AppData\Local\Temp\ccFGOSN0.s:1966   .text.lsm303agr_xl_high_pass_bandwidth_get:0000000000000000 $t
C:\Users\SF\AppData\Local\Temp\ccFGOSN0.s:1972   .text.lsm303agr_xl_high_pass_bandwidth_get:0000000000000000 lsm303agr_xl_high_pass_bandwidth_get
C:\Users\SF\AppData\Local\Temp\ccFGOSN0.s:2009   .text.lsm303agr_xl_high_pass_bandwidth_get:0000000000000020 $d
C:\Users\SF\AppData\Local\Temp\ccFGOSN0.s:2013   .text.lsm303agr_xl_high_pass_bandwidth_get:0000000000000024 $t
C:\Users\SF\AppData\Local\Temp\ccFGOSN0.s:2065   .text.lsm303agr_xl_high_pass_mode_set:0000000000000000 $t
C:\Users\SF\AppData\Local\Temp\ccFGOSN0.s:2071   .text.lsm303agr_xl_high_pass_mode_set:0000000000000000 lsm303agr_xl_high_pass_mode_set
C:\Users\SF\AppData\Local\Temp\ccFGOSN0.s:2139   .text.lsm303agr_xl_high_pass_mode_get:0000000000000000 $t
C:\Users\SF\AppData\Local\Temp\ccFGOSN0.s:2145   .text.lsm303agr_xl_high_pass_mode_get:0000000000000000 lsm303agr_xl_high_pass_mode_get
C:\Users\SF\AppData\Local\Temp\ccFGOSN0.s:2182   .text.lsm303agr_xl_high_pass_mode_get:000000000000001e $d
C:\Users\SF\AppData\Local\Temp\ccFGOSN0.s:2186   .text.lsm303agr_xl_high_pass_mode_get:0000000000000022 $t
C:\Users\SF\AppData\Local\Temp\ccFGOSN0.s:2238   .text.lsm303agr_xl_full_scale_set:0000000000000000 $t
C:\Users\SF\AppData\Local\Temp\ccFGOSN0.s:2244   .text.lsm303agr_xl_full_scale_set:0000000000000000 lsm303agr_xl_full_scale_set
C:\Users\SF\AppData\Local\Temp\ccFGOSN0.s:2312   .text.lsm303agr_xl_full_scale_get:0000000000000000 $t
C:\Users\SF\AppData\Local\Temp\ccFGOSN0.s:2318   .text.lsm303agr_xl_full_scale_get:0000000000000000 lsm303agr_xl_full_scale_get
C:\Users\SF\AppData\Local\Temp\ccFGOSN0.s:2355   .text.lsm303agr_xl_full_scale_get:0000000000000020 $d
C:\Users\SF\AppData\Local\Temp\ccFGOSN0.s:2359   .text.lsm303agr_xl_full_scale_get:0000000000000024 $t
C:\Users\SF\AppData\Local\Temp\ccFGOSN0.s:2411   .text.lsm303agr_xl_block_data_update_set:0000000000000000 $t
C:\Users\SF\AppData\Local\Temp\ccFGOSN0.s:2417   .text.lsm303agr_xl_block_data_update_set:0000000000000000 lsm303agr_xl_block_data_update_set
C:\Users\SF\AppData\Local\Temp\ccFGOSN0.s:2485   .text.lsm303agr_xl_block_data_update_get:0000000000000000 $t
C:\Users\SF\AppData\Local\Temp\ccFGOSN0.s:2491   .text.lsm303agr_xl_block_data_update_get:0000000000000000 lsm303agr_xl_block_data_update_get
C:\Users\SF\AppData\Local\Temp\ccFGOSN0.s:2537   .text.lsm303agr_xl_filter_reference_set:0000000000000000 $t
C:\Users\SF\AppData\Local\Temp\ccFGOSN0.s:2543   .text.lsm303agr_xl_filter_reference_set:0000000000000000 lsm303agr_xl_filter_reference_set
C:\Users\SF\AppData\Local\Temp\ccFGOSN0.s:2573   .text.lsm303agr_xl_filter_reference_get:0000000000000000 $t
C:\Users\SF\AppData\Local\Temp\ccFGOSN0.s:2579   .text.lsm303agr_xl_filter_reference_get:0000000000000000 lsm303agr_xl_filter_reference_get
C:\Users\SF\AppData\Local\Temp\ccFGOSN0.s:2609   .text.lsm303agr_xl_data_ready_get:0000000000000000 $t
C:\Users\SF\AppData\Local\Temp\ccFGOSN0.s:2615   .text.lsm303agr_xl_data_ready_get:0000000000000000 lsm303agr_xl_data_ready_get
ARM GAS  C:\Users\SF\AppData\Local\Temp\ccFGOSN0.s 			page 268


C:\Users\SF\AppData\Local\Temp\ccFGOSN0.s:2661   .text.lsm303agr_xl_data_ovr_get:0000000000000000 $t
C:\Users\SF\AppData\Local\Temp\ccFGOSN0.s:2667   .text.lsm303agr_xl_data_ovr_get:0000000000000000 lsm303agr_xl_data_ovr_get
C:\Users\SF\AppData\Local\Temp\ccFGOSN0.s:2713   .text.lsm303agr_acceleration_raw_get:0000000000000000 $t
C:\Users\SF\AppData\Local\Temp\ccFGOSN0.s:2719   .text.lsm303agr_acceleration_raw_get:0000000000000000 lsm303agr_acceleration_raw_get
C:\Users\SF\AppData\Local\Temp\ccFGOSN0.s:2795   .text.lsm303agr_mag_user_offset_set:0000000000000000 $t
C:\Users\SF\AppData\Local\Temp\ccFGOSN0.s:2801   .text.lsm303agr_mag_user_offset_set:0000000000000000 lsm303agr_mag_user_offset_set
C:\Users\SF\AppData\Local\Temp\ccFGOSN0.s:2868   .text.lsm303agr_mag_user_offset_get:0000000000000000 $t
C:\Users\SF\AppData\Local\Temp\ccFGOSN0.s:2874   .text.lsm303agr_mag_user_offset_get:0000000000000000 lsm303agr_mag_user_offset_get
C:\Users\SF\AppData\Local\Temp\ccFGOSN0.s:2950   .text.lsm303agr_mag_operating_mode_set:0000000000000000 $t
C:\Users\SF\AppData\Local\Temp\ccFGOSN0.s:2956   .text.lsm303agr_mag_operating_mode_set:0000000000000000 lsm303agr_mag_operating_mode_set
C:\Users\SF\AppData\Local\Temp\ccFGOSN0.s:3024   .text.lsm303agr_mag_operating_mode_get:0000000000000000 $t
C:\Users\SF\AppData\Local\Temp\ccFGOSN0.s:3030   .text.lsm303agr_mag_operating_mode_get:0000000000000000 lsm303agr_mag_operating_mode_get
C:\Users\SF\AppData\Local\Temp\ccFGOSN0.s:3110   .text.lsm303agr_mag_data_rate_set:0000000000000000 $t
C:\Users\SF\AppData\Local\Temp\ccFGOSN0.s:3116   .text.lsm303agr_mag_data_rate_set:0000000000000000 lsm303agr_mag_data_rate_set
C:\Users\SF\AppData\Local\Temp\ccFGOSN0.s:3184   .text.lsm303agr_mag_data_rate_get:0000000000000000 $t
C:\Users\SF\AppData\Local\Temp\ccFGOSN0.s:3190   .text.lsm303agr_mag_data_rate_get:0000000000000000 lsm303agr_mag_data_rate_get
C:\Users\SF\AppData\Local\Temp\ccFGOSN0.s:3227   .text.lsm303agr_mag_data_rate_get:0000000000000020 $d
C:\Users\SF\AppData\Local\Temp\ccFGOSN0.s:3231   .text.lsm303agr_mag_data_rate_get:0000000000000024 $t
C:\Users\SF\AppData\Local\Temp\ccFGOSN0.s:3283   .text.lsm303agr_mag_power_mode_set:0000000000000000 $t
C:\Users\SF\AppData\Local\Temp\ccFGOSN0.s:3289   .text.lsm303agr_mag_power_mode_set:0000000000000000 lsm303agr_mag_power_mode_set
C:\Users\SF\AppData\Local\Temp\ccFGOSN0.s:3357   .text.lsm303agr_mag_power_mode_get:0000000000000000 $t
C:\Users\SF\AppData\Local\Temp\ccFGOSN0.s:3363   .text.lsm303agr_mag_power_mode_get:0000000000000000 lsm303agr_mag_power_mode_get
C:\Users\SF\AppData\Local\Temp\ccFGOSN0.s:3435   .text.lsm303agr_mag_offset_temp_comp_set:0000000000000000 $t
C:\Users\SF\AppData\Local\Temp\ccFGOSN0.s:3441   .text.lsm303agr_mag_offset_temp_comp_set:0000000000000000 lsm303agr_mag_offset_temp_comp_set
C:\Users\SF\AppData\Local\Temp\ccFGOSN0.s:3509   .text.lsm303agr_mag_offset_temp_comp_get:0000000000000000 $t
C:\Users\SF\AppData\Local\Temp\ccFGOSN0.s:3515   .text.lsm303agr_mag_offset_temp_comp_get:0000000000000000 lsm303agr_mag_offset_temp_comp_get
C:\Users\SF\AppData\Local\Temp\ccFGOSN0.s:3561   .text.lsm303agr_mag_low_pass_bandwidth_set:0000000000000000 $t
C:\Users\SF\AppData\Local\Temp\ccFGOSN0.s:3567   .text.lsm303agr_mag_low_pass_bandwidth_set:0000000000000000 lsm303agr_mag_low_pass_bandwidth_set
C:\Users\SF\AppData\Local\Temp\ccFGOSN0.s:3635   .text.lsm303agr_mag_low_pass_bandwidth_get:0000000000000000 $t
C:\Users\SF\AppData\Local\Temp\ccFGOSN0.s:3641   .text.lsm303agr_mag_low_pass_bandwidth_get:0000000000000000 lsm303agr_mag_low_pass_bandwidth_get
C:\Users\SF\AppData\Local\Temp\ccFGOSN0.s:3712   .text.lsm303agr_mag_set_rst_mode_set:0000000000000000 $t
C:\Users\SF\AppData\Local\Temp\ccFGOSN0.s:3718   .text.lsm303agr_mag_set_rst_mode_set:0000000000000000 lsm303agr_mag_set_rst_mode_set
C:\Users\SF\AppData\Local\Temp\ccFGOSN0.s:3786   .text.lsm303agr_mag_set_rst_mode_get:0000000000000000 $t
C:\Users\SF\AppData\Local\Temp\ccFGOSN0.s:3792   .text.lsm303agr_mag_set_rst_mode_get:0000000000000000 lsm303agr_mag_set_rst_mode_get
C:\Users\SF\AppData\Local\Temp\ccFGOSN0.s:3872   .text.lsm303agr_mag_set_rst_sensor_single_set:0000000000000000 $t
C:\Users\SF\AppData\Local\Temp\ccFGOSN0.s:3878   .text.lsm303agr_mag_set_rst_sensor_single_set:0000000000000000 lsm303agr_mag_set_rst_sensor_single_set
C:\Users\SF\AppData\Local\Temp\ccFGOSN0.s:3946   .text.lsm303agr_mag_set_rst_sensor_single_get:0000000000000000 $t
C:\Users\SF\AppData\Local\Temp\ccFGOSN0.s:3952   .text.lsm303agr_mag_set_rst_sensor_single_get:0000000000000000 lsm303agr_mag_set_rst_sensor_single_get
C:\Users\SF\AppData\Local\Temp\ccFGOSN0.s:3998   .text.lsm303agr_mag_block_data_update_set:0000000000000000 $t
C:\Users\SF\AppData\Local\Temp\ccFGOSN0.s:4004   .text.lsm303agr_mag_block_data_update_set:0000000000000000 lsm303agr_mag_block_data_update_set
C:\Users\SF\AppData\Local\Temp\ccFGOSN0.s:4072   .text.lsm303agr_mag_block_data_update_get:0000000000000000 $t
C:\Users\SF\AppData\Local\Temp\ccFGOSN0.s:4078   .text.lsm303agr_mag_block_data_update_get:0000000000000000 lsm303agr_mag_block_data_update_get
C:\Users\SF\AppData\Local\Temp\ccFGOSN0.s:4124   .text.lsm303agr_mag_data_ready_get:0000000000000000 $t
C:\Users\SF\AppData\Local\Temp\ccFGOSN0.s:4130   .text.lsm303agr_mag_data_ready_get:0000000000000000 lsm303agr_mag_data_ready_get
C:\Users\SF\AppData\Local\Temp\ccFGOSN0.s:4176   .text.lsm303agr_mag_data_ovr_get:0000000000000000 $t
C:\Users\SF\AppData\Local\Temp\ccFGOSN0.s:4182   .text.lsm303agr_mag_data_ovr_get:0000000000000000 lsm303agr_mag_data_ovr_get
C:\Users\SF\AppData\Local\Temp\ccFGOSN0.s:4228   .text.lsm303agr_magnetic_raw_get:0000000000000000 $t
C:\Users\SF\AppData\Local\Temp\ccFGOSN0.s:4234   .text.lsm303agr_magnetic_raw_get:0000000000000000 lsm303agr_magnetic_raw_get
C:\Users\SF\AppData\Local\Temp\ccFGOSN0.s:4310   .text.lsm303agr_xl_device_id_get:0000000000000000 $t
C:\Users\SF\AppData\Local\Temp\ccFGOSN0.s:4316   .text.lsm303agr_xl_device_id_get:0000000000000000 lsm303agr_xl_device_id_get
C:\Users\SF\AppData\Local\Temp\ccFGOSN0.s:4346   .text.lsm303agr_xl_self_test_set:0000000000000000 $t
C:\Users\SF\AppData\Local\Temp\ccFGOSN0.s:4352   .text.lsm303agr_xl_self_test_set:0000000000000000 lsm303agr_xl_self_test_set
C:\Users\SF\AppData\Local\Temp\ccFGOSN0.s:4420   .text.lsm303agr_xl_self_test_get:0000000000000000 $t
C:\Users\SF\AppData\Local\Temp\ccFGOSN0.s:4426   .text.lsm303agr_xl_self_test_get:0000000000000000 lsm303agr_xl_self_test_get
C:\Users\SF\AppData\Local\Temp\ccFGOSN0.s:4506   .text.lsm303agr_xl_data_format_set:0000000000000000 $t
C:\Users\SF\AppData\Local\Temp\ccFGOSN0.s:4512   .text.lsm303agr_xl_data_format_set:0000000000000000 lsm303agr_xl_data_format_set
C:\Users\SF\AppData\Local\Temp\ccFGOSN0.s:4580   .text.lsm303agr_xl_data_format_get:0000000000000000 $t
ARM GAS  C:\Users\SF\AppData\Local\Temp\ccFGOSN0.s 			page 269


C:\Users\SF\AppData\Local\Temp\ccFGOSN0.s:4586   .text.lsm303agr_xl_data_format_get:0000000000000000 lsm303agr_xl_data_format_get
C:\Users\SF\AppData\Local\Temp\ccFGOSN0.s:4658   .text.lsm303agr_xl_boot_set:0000000000000000 $t
C:\Users\SF\AppData\Local\Temp\ccFGOSN0.s:4664   .text.lsm303agr_xl_boot_set:0000000000000000 lsm303agr_xl_boot_set
C:\Users\SF\AppData\Local\Temp\ccFGOSN0.s:4732   .text.lsm303agr_xl_boot_get:0000000000000000 $t
C:\Users\SF\AppData\Local\Temp\ccFGOSN0.s:4738   .text.lsm303agr_xl_boot_get:0000000000000000 lsm303agr_xl_boot_get
C:\Users\SF\AppData\Local\Temp\ccFGOSN0.s:4784   .text.lsm303agr_xl_status_get:0000000000000000 $t
C:\Users\SF\AppData\Local\Temp\ccFGOSN0.s:4790   .text.lsm303agr_xl_status_get:0000000000000000 lsm303agr_xl_status_get
C:\Users\SF\AppData\Local\Temp\ccFGOSN0.s:4820   .text.lsm303agr_read_xl:0000000000000000 $t
C:\Users\SF\AppData\Local\Temp\ccFGOSN0.s:4826   .text.lsm303agr_read_xl:0000000000000000 lsm303agr_read_xl
C:\Users\SF\AppData\Local\Temp\ccFGOSN0.s:4887   .text.lsm303agr_calib_xl:0000000000000000 $t
C:\Users\SF\AppData\Local\Temp\ccFGOSN0.s:4893   .text.lsm303agr_calib_xl:0000000000000000 lsm303agr_calib_xl
C:\Users\SF\AppData\Local\Temp\ccFGOSN0.s:5024   .text.lsm303agr_calib_xl:0000000000000088 $d
C:\Users\SF\AppData\Local\Temp\ccFGOSN0.s:5030   .text.lsm303agr_read_calibrated_xl:0000000000000000 $t
C:\Users\SF\AppData\Local\Temp\ccFGOSN0.s:5036   .text.lsm303agr_read_calibrated_xl:0000000000000000 lsm303agr_read_calibrated_xl
C:\Users\SF\AppData\Local\Temp\ccFGOSN0.s:5138   .text.lsm303agr_mag_device_id_get:0000000000000000 $t
C:\Users\SF\AppData\Local\Temp\ccFGOSN0.s:5144   .text.lsm303agr_mag_device_id_get:0000000000000000 lsm303agr_mag_device_id_get
C:\Users\SF\AppData\Local\Temp\ccFGOSN0.s:5174   .text.lsm303agr_mag_reset_set:0000000000000000 $t
C:\Users\SF\AppData\Local\Temp\ccFGOSN0.s:5180   .text.lsm303agr_mag_reset_set:0000000000000000 lsm303agr_mag_reset_set
C:\Users\SF\AppData\Local\Temp\ccFGOSN0.s:5248   .text.lsm303agr_mag_reset_get:0000000000000000 $t
C:\Users\SF\AppData\Local\Temp\ccFGOSN0.s:5254   .text.lsm303agr_mag_reset_get:0000000000000000 lsm303agr_mag_reset_get
C:\Users\SF\AppData\Local\Temp\ccFGOSN0.s:5300   .text.lsm303agr_mag_boot_set:0000000000000000 $t
C:\Users\SF\AppData\Local\Temp\ccFGOSN0.s:5306   .text.lsm303agr_mag_boot_set:0000000000000000 lsm303agr_mag_boot_set
C:\Users\SF\AppData\Local\Temp\ccFGOSN0.s:5374   .text.lsm303agr_init:0000000000000000 $t
C:\Users\SF\AppData\Local\Temp\ccFGOSN0.s:5380   .text.lsm303agr_init:0000000000000000 lsm303agr_init
C:\Users\SF\AppData\Local\Temp\ccFGOSN0.s:5610   .text.lsm303agr_init:000000000000010c $d
C:\Users\SF\AppData\Local\Temp\ccFGOSN0.s:5620   .text.lsm303agr_mag_boot_get:0000000000000000 $t
C:\Users\SF\AppData\Local\Temp\ccFGOSN0.s:5626   .text.lsm303agr_mag_boot_get:0000000000000000 lsm303agr_mag_boot_get
C:\Users\SF\AppData\Local\Temp\ccFGOSN0.s:5672   .text.lsm303agr_mag_self_test_set:0000000000000000 $t
C:\Users\SF\AppData\Local\Temp\ccFGOSN0.s:5678   .text.lsm303agr_mag_self_test_set:0000000000000000 lsm303agr_mag_self_test_set
C:\Users\SF\AppData\Local\Temp\ccFGOSN0.s:5746   .text.lsm303agr_mag_self_test_get:0000000000000000 $t
C:\Users\SF\AppData\Local\Temp\ccFGOSN0.s:5752   .text.lsm303agr_mag_self_test_get:0000000000000000 lsm303agr_mag_self_test_get
C:\Users\SF\AppData\Local\Temp\ccFGOSN0.s:5798   .text.lsm303agr_mag_data_format_set:0000000000000000 $t
C:\Users\SF\AppData\Local\Temp\ccFGOSN0.s:5804   .text.lsm303agr_mag_data_format_set:0000000000000000 lsm303agr_mag_data_format_set
C:\Users\SF\AppData\Local\Temp\ccFGOSN0.s:5872   .text.lsm303agr_mag_data_format_get:0000000000000000 $t
C:\Users\SF\AppData\Local\Temp\ccFGOSN0.s:5878   .text.lsm303agr_mag_data_format_get:0000000000000000 lsm303agr_mag_data_format_get
C:\Users\SF\AppData\Local\Temp\ccFGOSN0.s:5950   .text.lsm303agr_mag_status_get:0000000000000000 $t
C:\Users\SF\AppData\Local\Temp\ccFGOSN0.s:5956   .text.lsm303agr_mag_status_get:0000000000000000 lsm303agr_mag_status_get
C:\Users\SF\AppData\Local\Temp\ccFGOSN0.s:5986   .text.lsm303agr_read_mag:0000000000000000 $t
C:\Users\SF\AppData\Local\Temp\ccFGOSN0.s:5992   .text.lsm303agr_read_mag:0000000000000000 lsm303agr_read_mag
C:\Users\SF\AppData\Local\Temp\ccFGOSN0.s:6139   .text.lsm303agr_read_mag:00000000000000e8 $d
C:\Users\SF\AppData\Local\Temp\ccFGOSN0.s:6146   .text.lsm303agr_xl_int1_gen_conf_set:0000000000000000 $t
C:\Users\SF\AppData\Local\Temp\ccFGOSN0.s:6152   .text.lsm303agr_xl_int1_gen_conf_set:0000000000000000 lsm303agr_xl_int1_gen_conf_set
C:\Users\SF\AppData\Local\Temp\ccFGOSN0.s:6182   .text.lsm303agr_xl_int1_gen_conf_get:0000000000000000 $t
C:\Users\SF\AppData\Local\Temp\ccFGOSN0.s:6188   .text.lsm303agr_xl_int1_gen_conf_get:0000000000000000 lsm303agr_xl_int1_gen_conf_get
C:\Users\SF\AppData\Local\Temp\ccFGOSN0.s:6218   .text.lsm303agr_xl_int1_gen_source_get:0000000000000000 $t
C:\Users\SF\AppData\Local\Temp\ccFGOSN0.s:6224   .text.lsm303agr_xl_int1_gen_source_get:0000000000000000 lsm303agr_xl_int1_gen_source_get
C:\Users\SF\AppData\Local\Temp\ccFGOSN0.s:6254   .text.lsm303agr_xl_int1_gen_threshold_set:0000000000000000 $t
C:\Users\SF\AppData\Local\Temp\ccFGOSN0.s:6260   .text.lsm303agr_xl_int1_gen_threshold_set:0000000000000000 lsm303agr_xl_int1_gen_threshold_set
C:\Users\SF\AppData\Local\Temp\ccFGOSN0.s:6328   .text.lsm303agr_xl_int1_gen_threshold_get:0000000000000000 $t
C:\Users\SF\AppData\Local\Temp\ccFGOSN0.s:6334   .text.lsm303agr_xl_int1_gen_threshold_get:0000000000000000 lsm303agr_xl_int1_gen_threshold_get
C:\Users\SF\AppData\Local\Temp\ccFGOSN0.s:6380   .text.lsm303agr_xl_int1_gen_duration_set:0000000000000000 $t
C:\Users\SF\AppData\Local\Temp\ccFGOSN0.s:6386   .text.lsm303agr_xl_int1_gen_duration_set:0000000000000000 lsm303agr_xl_int1_gen_duration_set
C:\Users\SF\AppData\Local\Temp\ccFGOSN0.s:6454   .text.lsm303agr_xl_int1_gen_duration_get:0000000000000000 $t
C:\Users\SF\AppData\Local\Temp\ccFGOSN0.s:6460   .text.lsm303agr_xl_int1_gen_duration_get:0000000000000000 lsm303agr_xl_int1_gen_duration_get
C:\Users\SF\AppData\Local\Temp\ccFGOSN0.s:6506   .text.lsm303agr_xl_int2_gen_conf_set:0000000000000000 $t
C:\Users\SF\AppData\Local\Temp\ccFGOSN0.s:6512   .text.lsm303agr_xl_int2_gen_conf_set:0000000000000000 lsm303agr_xl_int2_gen_conf_set
C:\Users\SF\AppData\Local\Temp\ccFGOSN0.s:6542   .text.lsm303agr_xl_int2_gen_conf_get:0000000000000000 $t
ARM GAS  C:\Users\SF\AppData\Local\Temp\ccFGOSN0.s 			page 270


C:\Users\SF\AppData\Local\Temp\ccFGOSN0.s:6548   .text.lsm303agr_xl_int2_gen_conf_get:0000000000000000 lsm303agr_xl_int2_gen_conf_get
C:\Users\SF\AppData\Local\Temp\ccFGOSN0.s:6578   .text.lsm303agr_xl_int2_gen_source_get:0000000000000000 $t
C:\Users\SF\AppData\Local\Temp\ccFGOSN0.s:6584   .text.lsm303agr_xl_int2_gen_source_get:0000000000000000 lsm303agr_xl_int2_gen_source_get
C:\Users\SF\AppData\Local\Temp\ccFGOSN0.s:6614   .text.lsm303agr_xl_int2_gen_threshold_set:0000000000000000 $t
C:\Users\SF\AppData\Local\Temp\ccFGOSN0.s:6620   .text.lsm303agr_xl_int2_gen_threshold_set:0000000000000000 lsm303agr_xl_int2_gen_threshold_set
C:\Users\SF\AppData\Local\Temp\ccFGOSN0.s:6688   .text.lsm303agr_xl_int2_gen_threshold_get:0000000000000000 $t
C:\Users\SF\AppData\Local\Temp\ccFGOSN0.s:6694   .text.lsm303agr_xl_int2_gen_threshold_get:0000000000000000 lsm303agr_xl_int2_gen_threshold_get
C:\Users\SF\AppData\Local\Temp\ccFGOSN0.s:6740   .text.lsm303agr_xl_int2_gen_duration_set:0000000000000000 $t
C:\Users\SF\AppData\Local\Temp\ccFGOSN0.s:6746   .text.lsm303agr_xl_int2_gen_duration_set:0000000000000000 lsm303agr_xl_int2_gen_duration_set
C:\Users\SF\AppData\Local\Temp\ccFGOSN0.s:6814   .text.lsm303agr_xl_int2_gen_duration_get:0000000000000000 $t
C:\Users\SF\AppData\Local\Temp\ccFGOSN0.s:6820   .text.lsm303agr_xl_int2_gen_duration_get:0000000000000000 lsm303agr_xl_int2_gen_duration_get
C:\Users\SF\AppData\Local\Temp\ccFGOSN0.s:6866   .text.lsm303agr_xl_high_pass_int_conf_set:0000000000000000 $t
C:\Users\SF\AppData\Local\Temp\ccFGOSN0.s:6872   .text.lsm303agr_xl_high_pass_int_conf_set:0000000000000000 lsm303agr_xl_high_pass_int_conf_set
C:\Users\SF\AppData\Local\Temp\ccFGOSN0.s:6940   .text.lsm303agr_xl_high_pass_int_conf_get:0000000000000000 $t
C:\Users\SF\AppData\Local\Temp\ccFGOSN0.s:6946   .text.lsm303agr_xl_high_pass_int_conf_get:0000000000000000 lsm303agr_xl_high_pass_int_conf_get
C:\Users\SF\AppData\Local\Temp\ccFGOSN0.s:6983   .text.lsm303agr_xl_high_pass_int_conf_get:0000000000000020 $d
C:\Users\SF\AppData\Local\Temp\ccFGOSN0.s:6991   .text.lsm303agr_xl_high_pass_int_conf_get:0000000000000028 $t
C:\Users\SF\AppData\Local\Temp\ccFGOSN0.s:7071   .text.lsm303agr_xl_pin_int1_config_set:0000000000000000 $t
C:\Users\SF\AppData\Local\Temp\ccFGOSN0.s:7077   .text.lsm303agr_xl_pin_int1_config_set:0000000000000000 lsm303agr_xl_pin_int1_config_set
C:\Users\SF\AppData\Local\Temp\ccFGOSN0.s:7107   .text.lsm303agr_xl_pin_int1_config_get:0000000000000000 $t
C:\Users\SF\AppData\Local\Temp\ccFGOSN0.s:7113   .text.lsm303agr_xl_pin_int1_config_get:0000000000000000 lsm303agr_xl_pin_int1_config_get
C:\Users\SF\AppData\Local\Temp\ccFGOSN0.s:7143   .text.lsm303agr_xl_int2_pin_detect_4d_set:0000000000000000 $t
C:\Users\SF\AppData\Local\Temp\ccFGOSN0.s:7149   .text.lsm303agr_xl_int2_pin_detect_4d_set:0000000000000000 lsm303agr_xl_int2_pin_detect_4d_set
C:\Users\SF\AppData\Local\Temp\ccFGOSN0.s:7217   .text.lsm303agr_xl_int2_pin_detect_4d_get:0000000000000000 $t
C:\Users\SF\AppData\Local\Temp\ccFGOSN0.s:7223   .text.lsm303agr_xl_int2_pin_detect_4d_get:0000000000000000 lsm303agr_xl_int2_pin_detect_4d_get
C:\Users\SF\AppData\Local\Temp\ccFGOSN0.s:7269   .text.lsm303agr_xl_int2pin_notification_mode_set:0000000000000000 $t
C:\Users\SF\AppData\Local\Temp\ccFGOSN0.s:7275   .text.lsm303agr_xl_int2pin_notification_mode_set:0000000000000000 lsm303agr_xl_int2pin_notification_mode_set
C:\Users\SF\AppData\Local\Temp\ccFGOSN0.s:7343   .text.lsm303agr_xl_int2pin_notification_mode_get:0000000000000000 $t
C:\Users\SF\AppData\Local\Temp\ccFGOSN0.s:7349   .text.lsm303agr_xl_int2pin_notification_mode_get:0000000000000000 lsm303agr_xl_int2pin_notification_mode_get
C:\Users\SF\AppData\Local\Temp\ccFGOSN0.s:7421   .text.lsm303agr_xl_int1_pin_detect_4d_set:0000000000000000 $t
C:\Users\SF\AppData\Local\Temp\ccFGOSN0.s:7427   .text.lsm303agr_xl_int1_pin_detect_4d_set:0000000000000000 lsm303agr_xl_int1_pin_detect_4d_set
C:\Users\SF\AppData\Local\Temp\ccFGOSN0.s:7495   .text.lsm303agr_xl_int1_pin_detect_4d_get:0000000000000000 $t
C:\Users\SF\AppData\Local\Temp\ccFGOSN0.s:7501   .text.lsm303agr_xl_int1_pin_detect_4d_get:0000000000000000 lsm303agr_xl_int1_pin_detect_4d_get
C:\Users\SF\AppData\Local\Temp\ccFGOSN0.s:7547   .text.lsm303agr_xl_int1pin_notification_mode_set:0000000000000000 $t
C:\Users\SF\AppData\Local\Temp\ccFGOSN0.s:7553   .text.lsm303agr_xl_int1pin_notification_mode_set:0000000000000000 lsm303agr_xl_int1pin_notification_mode_set
C:\Users\SF\AppData\Local\Temp\ccFGOSN0.s:7621   .text.lsm303agr_xl_int1pin_notification_mode_get:0000000000000000 $t
C:\Users\SF\AppData\Local\Temp\ccFGOSN0.s:7627   .text.lsm303agr_xl_int1pin_notification_mode_get:0000000000000000 lsm303agr_xl_int1pin_notification_mode_get
C:\Users\SF\AppData\Local\Temp\ccFGOSN0.s:7699   .text.lsm303agr_xl_pin_int2_config_set:0000000000000000 $t
C:\Users\SF\AppData\Local\Temp\ccFGOSN0.s:7705   .text.lsm303agr_xl_pin_int2_config_set:0000000000000000 lsm303agr_xl_pin_int2_config_set
C:\Users\SF\AppData\Local\Temp\ccFGOSN0.s:7735   .text.lsm303agr_xl_pin_int2_config_get:0000000000000000 $t
C:\Users\SF\AppData\Local\Temp\ccFGOSN0.s:7741   .text.lsm303agr_xl_pin_int2_config_get:0000000000000000 lsm303agr_xl_pin_int2_config_get
C:\Users\SF\AppData\Local\Temp\ccFGOSN0.s:7771   .text.lsm303agr_mag_offset_int_conf_set:0000000000000000 $t
C:\Users\SF\AppData\Local\Temp\ccFGOSN0.s:7777   .text.lsm303agr_mag_offset_int_conf_set:0000000000000000 lsm303agr_mag_offset_int_conf_set
C:\Users\SF\AppData\Local\Temp\ccFGOSN0.s:7845   .text.lsm303agr_mag_offset_int_conf_get:0000000000000000 $t
C:\Users\SF\AppData\Local\Temp\ccFGOSN0.s:7851   .text.lsm303agr_mag_offset_int_conf_get:0000000000000000 lsm303agr_mag_offset_int_conf_get
C:\Users\SF\AppData\Local\Temp\ccFGOSN0.s:7923   .text.lsm303agr_mag_drdy_on_pin_set:0000000000000000 $t
C:\Users\SF\AppData\Local\Temp\ccFGOSN0.s:7929   .text.lsm303agr_mag_drdy_on_pin_set:0000000000000000 lsm303agr_mag_drdy_on_pin_set
C:\Users\SF\AppData\Local\Temp\ccFGOSN0.s:7997   .text.lsm303agr_mag_drdy_on_pin_get:0000000000000000 $t
C:\Users\SF\AppData\Local\Temp\ccFGOSN0.s:8003   .text.lsm303agr_mag_drdy_on_pin_get:0000000000000000 lsm303agr_mag_drdy_on_pin_get
C:\Users\SF\AppData\Local\Temp\ccFGOSN0.s:8049   .text.lsm303agr_mag_int_on_pin_set:0000000000000000 $t
C:\Users\SF\AppData\Local\Temp\ccFGOSN0.s:8055   .text.lsm303agr_mag_int_on_pin_set:0000000000000000 lsm303agr_mag_int_on_pin_set
C:\Users\SF\AppData\Local\Temp\ccFGOSN0.s:8123   .text.lsm303agr_mag_int_on_pin_get:0000000000000000 $t
C:\Users\SF\AppData\Local\Temp\ccFGOSN0.s:8129   .text.lsm303agr_mag_int_on_pin_get:0000000000000000 lsm303agr_mag_int_on_pin_get
C:\Users\SF\AppData\Local\Temp\ccFGOSN0.s:8175   .text.lsm303agr_mag_int_gen_conf_set:0000000000000000 $t
C:\Users\SF\AppData\Local\Temp\ccFGOSN0.s:8181   .text.lsm303agr_mag_int_gen_conf_set:0000000000000000 lsm303agr_mag_int_gen_conf_set
C:\Users\SF\AppData\Local\Temp\ccFGOSN0.s:8211   .text.lsm303agr_mag_int_gen_conf_get:0000000000000000 $t
C:\Users\SF\AppData\Local\Temp\ccFGOSN0.s:8217   .text.lsm303agr_mag_int_gen_conf_get:0000000000000000 lsm303agr_mag_int_gen_conf_get
ARM GAS  C:\Users\SF\AppData\Local\Temp\ccFGOSN0.s 			page 271


C:\Users\SF\AppData\Local\Temp\ccFGOSN0.s:8247   .text.lsm303agr_mag_int_gen_source_get:0000000000000000 $t
C:\Users\SF\AppData\Local\Temp\ccFGOSN0.s:8253   .text.lsm303agr_mag_int_gen_source_get:0000000000000000 lsm303agr_mag_int_gen_source_get
C:\Users\SF\AppData\Local\Temp\ccFGOSN0.s:8283   .text.lsm303agr_mag_int_gen_treshold_set:0000000000000000 $t
C:\Users\SF\AppData\Local\Temp\ccFGOSN0.s:8289   .text.lsm303agr_mag_int_gen_treshold_set:0000000000000000 lsm303agr_mag_int_gen_treshold_set
C:\Users\SF\AppData\Local\Temp\ccFGOSN0.s:8334   .text.lsm303agr_mag_int_gen_treshold_get:0000000000000000 $t
C:\Users\SF\AppData\Local\Temp\ccFGOSN0.s:8340   .text.lsm303agr_mag_int_gen_treshold_get:0000000000000000 lsm303agr_mag_int_gen_treshold_get
C:\Users\SF\AppData\Local\Temp\ccFGOSN0.s:8392   .text.lsm303agr_xl_fifo_set:0000000000000000 $t
C:\Users\SF\AppData\Local\Temp\ccFGOSN0.s:8398   .text.lsm303agr_xl_fifo_set:0000000000000000 lsm303agr_xl_fifo_set
C:\Users\SF\AppData\Local\Temp\ccFGOSN0.s:8466   .text.lsm303agr_xl_fifo_get:0000000000000000 $t
C:\Users\SF\AppData\Local\Temp\ccFGOSN0.s:8472   .text.lsm303agr_xl_fifo_get:0000000000000000 lsm303agr_xl_fifo_get
C:\Users\SF\AppData\Local\Temp\ccFGOSN0.s:8518   .text.lsm303agr_xl_fifo_watermark_set:0000000000000000 $t
C:\Users\SF\AppData\Local\Temp\ccFGOSN0.s:8524   .text.lsm303agr_xl_fifo_watermark_set:0000000000000000 lsm303agr_xl_fifo_watermark_set
C:\Users\SF\AppData\Local\Temp\ccFGOSN0.s:8592   .text.lsm303agr_xl_fifo_watermark_get:0000000000000000 $t
C:\Users\SF\AppData\Local\Temp\ccFGOSN0.s:8598   .text.lsm303agr_xl_fifo_watermark_get:0000000000000000 lsm303agr_xl_fifo_watermark_get
C:\Users\SF\AppData\Local\Temp\ccFGOSN0.s:8644   .text.lsm303agr_xl_fifo_trigger_event_set:0000000000000000 $t
C:\Users\SF\AppData\Local\Temp\ccFGOSN0.s:8650   .text.lsm303agr_xl_fifo_trigger_event_set:0000000000000000 lsm303agr_xl_fifo_trigger_event_set
C:\Users\SF\AppData\Local\Temp\ccFGOSN0.s:8718   .text.lsm303agr_xl_fifo_trigger_event_get:0000000000000000 $t
C:\Users\SF\AppData\Local\Temp\ccFGOSN0.s:8724   .text.lsm303agr_xl_fifo_trigger_event_get:0000000000000000 lsm303agr_xl_fifo_trigger_event_get
C:\Users\SF\AppData\Local\Temp\ccFGOSN0.s:8796   .text.lsm303agr_xl_fifo_mode_set:0000000000000000 $t
C:\Users\SF\AppData\Local\Temp\ccFGOSN0.s:8802   .text.lsm303agr_xl_fifo_mode_set:0000000000000000 lsm303agr_xl_fifo_mode_set
C:\Users\SF\AppData\Local\Temp\ccFGOSN0.s:8870   .text.lsm303agr_xl_fifo_mode_get:0000000000000000 $t
C:\Users\SF\AppData\Local\Temp\ccFGOSN0.s:8876   .text.lsm303agr_xl_fifo_mode_get:0000000000000000 lsm303agr_xl_fifo_mode_get
C:\Users\SF\AppData\Local\Temp\ccFGOSN0.s:8913   .text.lsm303agr_xl_fifo_mode_get:000000000000001e $d
C:\Users\SF\AppData\Local\Temp\ccFGOSN0.s:8917   .text.lsm303agr_xl_fifo_mode_get:0000000000000022 $t
C:\Users\SF\AppData\Local\Temp\ccFGOSN0.s:8969   .text.lsm303agr_xl_fifo_status_get:0000000000000000 $t
C:\Users\SF\AppData\Local\Temp\ccFGOSN0.s:8975   .text.lsm303agr_xl_fifo_status_get:0000000000000000 lsm303agr_xl_fifo_status_get
C:\Users\SF\AppData\Local\Temp\ccFGOSN0.s:9005   .text.lsm303agr_xl_fifo_data_level_get:0000000000000000 $t
C:\Users\SF\AppData\Local\Temp\ccFGOSN0.s:9011   .text.lsm303agr_xl_fifo_data_level_get:0000000000000000 lsm303agr_xl_fifo_data_level_get
C:\Users\SF\AppData\Local\Temp\ccFGOSN0.s:9057   .text.lsm303agr_xl_fifo_empty_flag_get:0000000000000000 $t
C:\Users\SF\AppData\Local\Temp\ccFGOSN0.s:9063   .text.lsm303agr_xl_fifo_empty_flag_get:0000000000000000 lsm303agr_xl_fifo_empty_flag_get
C:\Users\SF\AppData\Local\Temp\ccFGOSN0.s:9109   .text.lsm303agr_xl_fifo_ovr_flag_get:0000000000000000 $t
C:\Users\SF\AppData\Local\Temp\ccFGOSN0.s:9115   .text.lsm303agr_xl_fifo_ovr_flag_get:0000000000000000 lsm303agr_xl_fifo_ovr_flag_get
C:\Users\SF\AppData\Local\Temp\ccFGOSN0.s:9161   .text.lsm303agr_xl_fifo_fth_flag_get:0000000000000000 $t
C:\Users\SF\AppData\Local\Temp\ccFGOSN0.s:9167   .text.lsm303agr_xl_fifo_fth_flag_get:0000000000000000 lsm303agr_xl_fifo_fth_flag_get
C:\Users\SF\AppData\Local\Temp\ccFGOSN0.s:9213   .text.lsm303agr_tap_conf_set:0000000000000000 $t
C:\Users\SF\AppData\Local\Temp\ccFGOSN0.s:9219   .text.lsm303agr_tap_conf_set:0000000000000000 lsm303agr_tap_conf_set
C:\Users\SF\AppData\Local\Temp\ccFGOSN0.s:9249   .text.lsm303agr_tap_conf_get:0000000000000000 $t
C:\Users\SF\AppData\Local\Temp\ccFGOSN0.s:9255   .text.lsm303agr_tap_conf_get:0000000000000000 lsm303agr_tap_conf_get
C:\Users\SF\AppData\Local\Temp\ccFGOSN0.s:9285   .text.lsm303agr_tap_source_get:0000000000000000 $t
C:\Users\SF\AppData\Local\Temp\ccFGOSN0.s:9291   .text.lsm303agr_tap_source_get:0000000000000000 lsm303agr_tap_source_get
C:\Users\SF\AppData\Local\Temp\ccFGOSN0.s:9321   .text.lsm303agr_tap_threshold_set:0000000000000000 $t
C:\Users\SF\AppData\Local\Temp\ccFGOSN0.s:9327   .text.lsm303agr_tap_threshold_set:0000000000000000 lsm303agr_tap_threshold_set
C:\Users\SF\AppData\Local\Temp\ccFGOSN0.s:9395   .text.lsm303agr_tap_threshold_get:0000000000000000 $t
C:\Users\SF\AppData\Local\Temp\ccFGOSN0.s:9401   .text.lsm303agr_tap_threshold_get:0000000000000000 lsm303agr_tap_threshold_get
C:\Users\SF\AppData\Local\Temp\ccFGOSN0.s:9447   .text.lsm303agr_shock_dur_set:0000000000000000 $t
C:\Users\SF\AppData\Local\Temp\ccFGOSN0.s:9453   .text.lsm303agr_shock_dur_set:0000000000000000 lsm303agr_shock_dur_set
C:\Users\SF\AppData\Local\Temp\ccFGOSN0.s:9521   .text.lsm303agr_shock_dur_get:0000000000000000 $t
C:\Users\SF\AppData\Local\Temp\ccFGOSN0.s:9527   .text.lsm303agr_shock_dur_get:0000000000000000 lsm303agr_shock_dur_get
C:\Users\SF\AppData\Local\Temp\ccFGOSN0.s:9573   .text.lsm303agr_quiet_dur_set:0000000000000000 $t
C:\Users\SF\AppData\Local\Temp\ccFGOSN0.s:9579   .text.lsm303agr_quiet_dur_set:0000000000000000 lsm303agr_quiet_dur_set
C:\Users\SF\AppData\Local\Temp\ccFGOSN0.s:9645   .text.lsm303agr_quiet_dur_get:0000000000000000 $t
C:\Users\SF\AppData\Local\Temp\ccFGOSN0.s:9651   .text.lsm303agr_quiet_dur_get:0000000000000000 lsm303agr_quiet_dur_get
C:\Users\SF\AppData\Local\Temp\ccFGOSN0.s:9696   .text.lsm303agr_double_tap_timeout_set:0000000000000000 $t
C:\Users\SF\AppData\Local\Temp\ccFGOSN0.s:9702   .text.lsm303agr_double_tap_timeout_set:0000000000000000 lsm303agr_double_tap_timeout_set
C:\Users\SF\AppData\Local\Temp\ccFGOSN0.s:9768   .text.lsm303agr_double_tap_timeout_get:0000000000000000 $t
C:\Users\SF\AppData\Local\Temp\ccFGOSN0.s:9774   .text.lsm303agr_double_tap_timeout_get:0000000000000000 lsm303agr_double_tap_timeout_get
C:\Users\SF\AppData\Local\Temp\ccFGOSN0.s:9819   .text.lsm303agr_act_threshold_set:0000000000000000 $t
ARM GAS  C:\Users\SF\AppData\Local\Temp\ccFGOSN0.s 			page 272


C:\Users\SF\AppData\Local\Temp\ccFGOSN0.s:9825   .text.lsm303agr_act_threshold_set:0000000000000000 lsm303agr_act_threshold_set
C:\Users\SF\AppData\Local\Temp\ccFGOSN0.s:9893   .text.lsm303agr_act_threshold_get:0000000000000000 $t
C:\Users\SF\AppData\Local\Temp\ccFGOSN0.s:9899   .text.lsm303agr_act_threshold_get:0000000000000000 lsm303agr_act_threshold_get
C:\Users\SF\AppData\Local\Temp\ccFGOSN0.s:9945   .text.lsm303agr_act_timeout_set:0000000000000000 $t
C:\Users\SF\AppData\Local\Temp\ccFGOSN0.s:9951   .text.lsm303agr_act_timeout_set:0000000000000000 lsm303agr_act_timeout_set
C:\Users\SF\AppData\Local\Temp\ccFGOSN0.s:10017  .text.lsm303agr_act_timeout_get:0000000000000000 $t
C:\Users\SF\AppData\Local\Temp\ccFGOSN0.s:10023  .text.lsm303agr_act_timeout_get:0000000000000000 lsm303agr_act_timeout_get
C:\Users\SF\AppData\Local\Temp\ccFGOSN0.s:10068  .text.lsm303agr_xl_spi_mode_set:0000000000000000 $t
C:\Users\SF\AppData\Local\Temp\ccFGOSN0.s:10074  .text.lsm303agr_xl_spi_mode_set:0000000000000000 lsm303agr_xl_spi_mode_set
C:\Users\SF\AppData\Local\Temp\ccFGOSN0.s:10142  .text.lsm303agr_xl_spi_mode_get:0000000000000000 $t
C:\Users\SF\AppData\Local\Temp\ccFGOSN0.s:10148  .text.lsm303agr_xl_spi_mode_get:0000000000000000 lsm303agr_xl_spi_mode_get
C:\Users\SF\AppData\Local\Temp\ccFGOSN0.s:10219  .text.lsm303agr_mag_i2c_interface_set:0000000000000000 $t
C:\Users\SF\AppData\Local\Temp\ccFGOSN0.s:10225  .text.lsm303agr_mag_i2c_interface_set:0000000000000000 lsm303agr_mag_i2c_interface_set
C:\Users\SF\AppData\Local\Temp\ccFGOSN0.s:10293  .text.lsm303agr_mag_i2c_interface_get:0000000000000000 $t
C:\Users\SF\AppData\Local\Temp\ccFGOSN0.s:10299  .text.lsm303agr_mag_i2c_interface_get:0000000000000000 lsm303agr_mag_i2c_interface_get
C:\Users\SF\AppData\Local\Temp\ccFGOSN0.s:10378  .bss.raw_acceleration:0000000000000000 raw_acceleration
C:\Users\SF\AppData\Local\Temp\ccFGOSN0.s:10415  .data.soft_magnetic_z:0000000000000000 soft_magnetic_z
C:\Users\SF\AppData\Local\Temp\ccFGOSN0.s:10406  .data.soft_magnetic_y:0000000000000000 soft_magnetic_y
C:\Users\SF\AppData\Local\Temp\ccFGOSN0.s:10397  .data.soft_magnetic_x:0000000000000000 soft_magnetic_x
C:\Users\SF\AppData\Local\Temp\ccFGOSN0.s:10375  .bss.raw_acceleration:0000000000000000 $d
C:\Users\SF\AppData\Local\Temp\ccFGOSN0.s:10381  .data.mag_bus:0000000000000000 $d
C:\Users\SF\AppData\Local\Temp\ccFGOSN0.s:10385  .data.mag_bus:0000000000000000 mag_bus
C:\Users\SF\AppData\Local\Temp\ccFGOSN0.s:10393  .data.soft_magnetic_x:0000000000000000 $d
C:\Users\SF\AppData\Local\Temp\ccFGOSN0.s:10402  .data.soft_magnetic_y:0000000000000000 $d
C:\Users\SF\AppData\Local\Temp\ccFGOSN0.s:10411  .data.soft_magnetic_z:0000000000000000 $d
C:\Users\SF\AppData\Local\Temp\ccFGOSN0.s:10420  .data.xl_bus:0000000000000000 $d
C:\Users\SF\AppData\Local\Temp\ccFGOSN0.s:10424  .data.xl_bus:0000000000000000 xl_bus

UNDEFINED SYMBOLS
HAL_I2C_Mem_Write
HAL_I2C_Mem_Read
HAL_GPIO_ReadPin
MX_I2C1_Init
HAL_Delay
hi2c1
