ARM GAS  C:\Users\SF\AppData\Local\Temp\ccFGOSN0.s 			page 1


   1              		.cpu cortex-m4
   2              		.arch armv7e-m
   3              		.fpu fpv4-sp-d16
   4              		.eabi_attribute 27, 1
   5              		.eabi_attribute 28, 1
   6              		.eabi_attribute 20, 1
   7              		.eabi_attribute 21, 1
   8              		.eabi_attribute 23, 3
   9              		.eabi_attribute 24, 1
  10              		.eabi_attribute 25, 1
  11              		.eabi_attribute 26, 1
  12              		.eabi_attribute 30, 1
  13              		.eabi_attribute 34, 1
  14              		.eabi_attribute 18, 4
  15              		.file	"lsm303agr_reg.c"
  16              		.text
  17              	.Ltext0:
  18              		.cfi_sections	.debug_frame
  19              		.section	.text.lsm303agr_write,"ax",%progbits
  20              		.align	1
  21              		.global	lsm303agr_write
  22              		.syntax unified
  23              		.thumb
  24              		.thumb_func
  26              	lsm303agr_write:
  27              	.LVL0:
  28              	.LFB130:
  29              		.file 1 "Drivers/lsm303agr/Src/lsm303agr_reg.c"
   1:Drivers/lsm303agr/Src/lsm303agr_reg.c **** /**
   2:Drivers/lsm303agr/Src/lsm303agr_reg.c ****   ******************************************************************************
   3:Drivers/lsm303agr/Src/lsm303agr_reg.c ****   * @file    lsm303agr_reg.c
   4:Drivers/lsm303agr/Src/lsm303agr_reg.c ****   * @author  Sensors Software Solution Team
   5:Drivers/lsm303agr/Src/lsm303agr_reg.c ****   * @brief   LSM303AGR driver file
   6:Drivers/lsm303agr/Src/lsm303agr_reg.c ****   ******************************************************************************
   7:Drivers/lsm303agr/Src/lsm303agr_reg.c ****   * @attention
   8:Drivers/lsm303agr/Src/lsm303agr_reg.c ****   *
   9:Drivers/lsm303agr/Src/lsm303agr_reg.c ****   * <h2><center>&copy; Copyright (c) 2021 STMicroelectronics.
  10:Drivers/lsm303agr/Src/lsm303agr_reg.c ****   * All rights reserved.</center></h2>
  11:Drivers/lsm303agr/Src/lsm303agr_reg.c ****   *
  12:Drivers/lsm303agr/Src/lsm303agr_reg.c ****   * This software component is licensed by ST under BSD 3-Clause license,
  13:Drivers/lsm303agr/Src/lsm303agr_reg.c ****   * the "License"; You may not use this file except in compliance with the
  14:Drivers/lsm303agr/Src/lsm303agr_reg.c ****   * License. You may obtain a copy of the License at:
  15:Drivers/lsm303agr/Src/lsm303agr_reg.c ****   *                        opensource.org/licenses/BSD-3-Clause
  16:Drivers/lsm303agr/Src/lsm303agr_reg.c ****   *
  17:Drivers/lsm303agr/Src/lsm303agr_reg.c ****   ******************************************************************************
  18:Drivers/lsm303agr/Src/lsm303agr_reg.c ****   */
  19:Drivers/lsm303agr/Src/lsm303agr_reg.c **** 
  20:Drivers/lsm303agr/Src/lsm303agr_reg.c **** #include "lsm303agr_reg.h"
  21:Drivers/lsm303agr/Src/lsm303agr_reg.c **** #include "main.h"
  22:Drivers/lsm303agr/Src/lsm303agr_reg.c **** 
  23:Drivers/lsm303agr/Src/lsm303agr_reg.c **** #define SENSOR_BUS 		hi2c1
  24:Drivers/lsm303agr/Src/lsm303agr_reg.c **** 
  25:Drivers/lsm303agr/Src/lsm303agr_reg.c **** /**
  26:Drivers/lsm303agr/Src/lsm303agr_reg.c ****   * @defgroup  LSM303AGR
  27:Drivers/lsm303agr/Src/lsm303agr_reg.c ****   * @brief     This file provides a set of functions needed to drive the
  28:Drivers/lsm303agr/Src/lsm303agr_reg.c ****   *            lsm303agr enhanced inertial module.
  29:Drivers/lsm303agr/Src/lsm303agr_reg.c ****   * @{
ARM GAS  C:\Users\SF\AppData\Local\Temp\ccFGOSN0.s 			page 2


  30:Drivers/lsm303agr/Src/lsm303agr_reg.c ****   *
  31:Drivers/lsm303agr/Src/lsm303agr_reg.c ****   */
  32:Drivers/lsm303agr/Src/lsm303agr_reg.c **** 
  33:Drivers/lsm303agr/Src/lsm303agr_reg.c **** /**
  34:Drivers/lsm303agr/Src/lsm303agr_reg.c ****   * @defgroup  LSM303AGR_Interfaces_Functions
  35:Drivers/lsm303agr/Src/lsm303agr_reg.c ****   * @brief     This section provide a set of functions used to read and
  36:Drivers/lsm303agr/Src/lsm303agr_reg.c ****   *            write a generic register of the device.
  37:Drivers/lsm303agr/Src/lsm303agr_reg.c ****   *            MANDATORY: return 0 -> no Error.
  38:Drivers/lsm303agr/Src/lsm303agr_reg.c ****   * @{
  39:Drivers/lsm303agr/Src/lsm303agr_reg.c ****   *
  40:Drivers/lsm303agr/Src/lsm303agr_reg.c ****   */
  41:Drivers/lsm303agr/Src/lsm303agr_reg.c **** 
  42:Drivers/lsm303agr/Src/lsm303agr_reg.c **** 
  43:Drivers/lsm303agr/Src/lsm303agr_reg.c **** extern I2C_HandleTypeDef hi2c1;
  44:Drivers/lsm303agr/Src/lsm303agr_reg.c **** 
  45:Drivers/lsm303agr/Src/lsm303agr_reg.c **** //static int16_t delta_magnetic[3] = {150, -4, -19};
  46:Drivers/lsm303agr/Src/lsm303agr_reg.c **** //float soft_magnetic_x [3] = {0.991292886650774f,	0.0104962442835640f,	-0.0153604594275310f};
  47:Drivers/lsm303agr/Src/lsm303agr_reg.c **** //float soft_magnetic_y [3] = {0.0104962442835640f,	1.03090334809659f,	-0.0174301777890350f};
  48:Drivers/lsm303agr/Src/lsm303agr_reg.c **** //float soft_magnetic_z [3] = {-0.0153604594275310f,	-0.0174301777890350f,	0.979176110341840f};
  49:Drivers/lsm303agr/Src/lsm303agr_reg.c **** 
  50:Drivers/lsm303agr/Src/lsm303agr_reg.c **** static int16_t delta_magnetic[3] = {0, 0, 	0};
  51:Drivers/lsm303agr/Src/lsm303agr_reg.c **** float soft_magnetic_x [3] = {1.0f,	0.0f,	0.0f};
  52:Drivers/lsm303agr/Src/lsm303agr_reg.c **** float soft_magnetic_y [3] = {0.0f,	1.0f,	0.0f};
  53:Drivers/lsm303agr/Src/lsm303agr_reg.c **** float soft_magnetic_z [3] = {0.0f,	0.0f,	1.0f};
  54:Drivers/lsm303agr/Src/lsm303agr_reg.c **** 
  55:Drivers/lsm303agr/Src/lsm303agr_reg.c **** int16_t raw_acceleration[3] = {0, 0, 0};
  56:Drivers/lsm303agr/Src/lsm303agr_reg.c **** 
  57:Drivers/lsm303agr/Src/lsm303agr_reg.c **** static sensbus_t xl_bus  = {&hi2c1,
  58:Drivers/lsm303agr/Src/lsm303agr_reg.c ****                             LSM303AGR_I2C_ADD_XL,
  59:Drivers/lsm303agr/Src/lsm303agr_reg.c ****                             0,
  60:Drivers/lsm303agr/Src/lsm303agr_reg.c ****                             0
  61:Drivers/lsm303agr/Src/lsm303agr_reg.c ****                            };
  62:Drivers/lsm303agr/Src/lsm303agr_reg.c **** 
  63:Drivers/lsm303agr/Src/lsm303agr_reg.c **** static sensbus_t mag_bus = {&hi2c1,
  64:Drivers/lsm303agr/Src/lsm303agr_reg.c ****                             LSM303AGR_I2C_ADD_MG,
  65:Drivers/lsm303agr/Src/lsm303agr_reg.c ****                             0,
  66:Drivers/lsm303agr/Src/lsm303agr_reg.c ****                             0
  67:Drivers/lsm303agr/Src/lsm303agr_reg.c ****                            };
  68:Drivers/lsm303agr/Src/lsm303agr_reg.c **** 
  69:Drivers/lsm303agr/Src/lsm303agr_reg.c **** 
  70:Drivers/lsm303agr/Src/lsm303agr_reg.c **** void lsm303agr_write(void *handle, uint8_t reg, const uint8_t *bufp,
  71:Drivers/lsm303agr/Src/lsm303agr_reg.c ****         uint16_t len) {
  30              		.loc 1 71 23 view -0
  31              		.cfi_startproc
  32              		@ args = 0, pretend = 0, frame = 0
  33              		@ frame_needed = 0, uses_anonymous_args = 0
  34              		.loc 1 71 23 is_stmt 0 view .LVU1
  35 0000 10B5     		push	{r4, lr}
  36              	.LCFI0:
  37              		.cfi_def_cfa_offset 8
  38              		.cfi_offset 4, -8
  39              		.cfi_offset 14, -4
  40 0002 84B0     		sub	sp, sp, #16
  41              	.LCFI1:
  42              		.cfi_def_cfa_offset 24
  43 0004 8C46     		mov	ip, r1
  72:Drivers/lsm303agr/Src/lsm303agr_reg.c **** 	  sensbus_t *sensbus = (sensbus_t *)handle;
ARM GAS  C:\Users\SF\AppData\Local\Temp\ccFGOSN0.s 			page 3


  44              		.loc 1 72 4 is_stmt 1 view .LVU2
  45              	.LVL1:
  73:Drivers/lsm303agr/Src/lsm303agr_reg.c **** 
  74:Drivers/lsm303agr/Src/lsm303agr_reg.c **** 	  if (sensbus->i2c_address == LSM303AGR_I2C_ADD_XL) {
  46              		.loc 1 74 4 view .LVU3
  47              		.loc 1 74 15 is_stmt 0 view .LVU4
  48 0006 0179     		ldrb	r1, [r0, #4]	@ zero_extendqisi2
  49              	.LVL2:
  50              		.loc 1 74 7 view .LVU5
  51 0008 3329     		cmp	r1, #51
  52 000a 0BD0     		beq	.L4
  53              	.LVL3:
  54              	.L2:
  75:Drivers/lsm303agr/Src/lsm303agr_reg.c **** 	    /* enable auto incremented in multiple read/write commands */
  76:Drivers/lsm303agr/Src/lsm303agr_reg.c **** 	    reg |= 0x80;
  77:Drivers/lsm303agr/Src/lsm303agr_reg.c **** 	  }
  78:Drivers/lsm303agr/Src/lsm303agr_reg.c **** 
  79:Drivers/lsm303agr/Src/lsm303agr_reg.c **** 	  HAL_I2C_Mem_Write(sensbus->hbus, sensbus->i2c_address, reg,
  55              		.loc 1 79 4 is_stmt 1 view .LVU6
  56 000c 42F21074 		movw	r4, #10000
  57 0010 0294     		str	r4, [sp, #8]
  58 0012 0193     		str	r3, [sp, #4]
  59 0014 0092     		str	r2, [sp]
  60 0016 0123     		movs	r3, #1
  61              	.LVL4:
  62              		.loc 1 79 4 is_stmt 0 view .LVU7
  63 0018 6246     		mov	r2, ip
  64              	.LVL5:
  65              		.loc 1 79 4 view .LVU8
  66 001a 0068     		ldr	r0, [r0]
  67              	.LVL6:
  68              		.loc 1 79 4 view .LVU9
  69 001c FFF7FEFF 		bl	HAL_I2C_Mem_Write
  70              	.LVL7:
  80:Drivers/lsm303agr/Src/lsm303agr_reg.c **** 	                    I2C_MEMADD_SIZE_8BIT, (uint8_t*) bufp, len, 10000);
  81:Drivers/lsm303agr/Src/lsm303agr_reg.c **** 	  return 0;
  71              		.loc 1 81 4 is_stmt 1 view .LVU10
  82:Drivers/lsm303agr/Src/lsm303agr_reg.c **** }
  72              		.loc 1 82 1 is_stmt 0 view .LVU11
  73 0020 04B0     		add	sp, sp, #16
  74              	.LCFI2:
  75              		.cfi_remember_state
  76              		.cfi_def_cfa_offset 8
  77              		@ sp needed
  78 0022 10BD     		pop	{r4, pc}
  79              	.LVL8:
  80              	.L4:
  81              	.LCFI3:
  82              		.cfi_restore_state
  76:Drivers/lsm303agr/Src/lsm303agr_reg.c **** 	  }
  83              		.loc 1 76 6 is_stmt 1 view .LVU12
  76:Drivers/lsm303agr/Src/lsm303agr_reg.c **** 	  }
  84              		.loc 1 76 10 is_stmt 0 view .LVU13
  85 0024 4CF0800C 		orr	ip, ip, #128
  86              	.LVL9:
  76:Drivers/lsm303agr/Src/lsm303agr_reg.c **** 	  }
  87              		.loc 1 76 10 view .LVU14
ARM GAS  C:\Users\SF\AppData\Local\Temp\ccFGOSN0.s 			page 4


  88 0028 F0E7     		b	.L2
  89              		.cfi_endproc
  90              	.LFE130:
  92              		.section	.text.lsm303agr_read,"ax",%progbits
  93              		.align	1
  94              		.global	lsm303agr_read
  95              		.syntax unified
  96              		.thumb
  97              		.thumb_func
  99              	lsm303agr_read:
 100              	.LVL10:
 101              	.LFB131:
  83:Drivers/lsm303agr/Src/lsm303agr_reg.c **** 
  84:Drivers/lsm303agr/Src/lsm303agr_reg.c **** void lsm303agr_read(void *handle, uint8_t reg, uint8_t *bufp,
  85:Drivers/lsm303agr/Src/lsm303agr_reg.c ****         uint16_t len) {
 102              		.loc 1 85 23 is_stmt 1 view -0
 103              		.cfi_startproc
 104              		@ args = 0, pretend = 0, frame = 0
 105              		@ frame_needed = 0, uses_anonymous_args = 0
 106              		.loc 1 85 23 is_stmt 0 view .LVU16
 107 0000 10B5     		push	{r4, lr}
 108              	.LCFI4:
 109              		.cfi_def_cfa_offset 8
 110              		.cfi_offset 4, -8
 111              		.cfi_offset 14, -4
 112 0002 84B0     		sub	sp, sp, #16
 113              	.LCFI5:
 114              		.cfi_def_cfa_offset 24
 115 0004 8C46     		mov	ip, r1
  86:Drivers/lsm303agr/Src/lsm303agr_reg.c **** 	  sensbus_t *sensbus = (sensbus_t *)handle;
 116              		.loc 1 86 4 is_stmt 1 view .LVU17
 117              	.LVL11:
  87:Drivers/lsm303agr/Src/lsm303agr_reg.c **** 
  88:Drivers/lsm303agr/Src/lsm303agr_reg.c **** 	  if (sensbus->i2c_address == LSM303AGR_I2C_ADD_XL) {
 118              		.loc 1 88 4 view .LVU18
 119              		.loc 1 88 15 is_stmt 0 view .LVU19
 120 0006 0179     		ldrb	r1, [r0, #4]	@ zero_extendqisi2
 121              	.LVL12:
 122              		.loc 1 88 7 view .LVU20
 123 0008 3329     		cmp	r1, #51
 124 000a 0BD0     		beq	.L8
 125              	.LVL13:
 126              	.L6:
  89:Drivers/lsm303agr/Src/lsm303agr_reg.c **** 	    /* enable auto incremented in multiple read/write commands */
  90:Drivers/lsm303agr/Src/lsm303agr_reg.c **** 	    reg |= 0x80;
  91:Drivers/lsm303agr/Src/lsm303agr_reg.c **** 	  }
  92:Drivers/lsm303agr/Src/lsm303agr_reg.c **** 
  93:Drivers/lsm303agr/Src/lsm303agr_reg.c **** 	  HAL_I2C_Mem_Read(sensbus->hbus, sensbus->i2c_address, reg,
 127              		.loc 1 93 4 is_stmt 1 view .LVU21
 128 000c 42F21074 		movw	r4, #10000
 129 0010 0294     		str	r4, [sp, #8]
 130 0012 0193     		str	r3, [sp, #4]
 131 0014 0092     		str	r2, [sp]
 132 0016 0123     		movs	r3, #1
 133              	.LVL14:
 134              		.loc 1 93 4 is_stmt 0 view .LVU22
 135 0018 6246     		mov	r2, ip
ARM GAS  C:\Users\SF\AppData\Local\Temp\ccFGOSN0.s 			page 5


 136              	.LVL15:
 137              		.loc 1 93 4 view .LVU23
 138 001a 0068     		ldr	r0, [r0]
 139              	.LVL16:
 140              		.loc 1 93 4 view .LVU24
 141 001c FFF7FEFF 		bl	HAL_I2C_Mem_Read
 142              	.LVL17:
  94:Drivers/lsm303agr/Src/lsm303agr_reg.c **** 	                   I2C_MEMADD_SIZE_8BIT, bufp, len, 10000);
  95:Drivers/lsm303agr/Src/lsm303agr_reg.c **** 	  return 0;
 143              		.loc 1 95 4 is_stmt 1 view .LVU25
  96:Drivers/lsm303agr/Src/lsm303agr_reg.c **** }
 144              		.loc 1 96 1 is_stmt 0 view .LVU26
 145 0020 04B0     		add	sp, sp, #16
 146              	.LCFI6:
 147              		.cfi_remember_state
 148              		.cfi_def_cfa_offset 8
 149              		@ sp needed
 150 0022 10BD     		pop	{r4, pc}
 151              	.LVL18:
 152              	.L8:
 153              	.LCFI7:
 154              		.cfi_restore_state
  90:Drivers/lsm303agr/Src/lsm303agr_reg.c **** 	  }
 155              		.loc 1 90 6 is_stmt 1 view .LVU27
  90:Drivers/lsm303agr/Src/lsm303agr_reg.c **** 	  }
 156              		.loc 1 90 10 is_stmt 0 view .LVU28
 157 0024 4CF0800C 		orr	ip, ip, #128
 158              	.LVL19:
  90:Drivers/lsm303agr/Src/lsm303agr_reg.c **** 	  }
 159              		.loc 1 90 10 view .LVU29
 160 0028 F0E7     		b	.L6
 161              		.cfi_endproc
 162              	.LFE131:
 164              		.section	.text.lsm303agr_unlock_I2C_bus,"ax",%progbits
 165              		.align	1
 166              		.global	lsm303agr_unlock_I2C_bus
 167              		.syntax unified
 168              		.thumb
 169              		.thumb_func
 171              	lsm303agr_unlock_I2C_bus:
 172              	.LVL20:
 173              	.LFB132:
  97:Drivers/lsm303agr/Src/lsm303agr_reg.c **** 
  98:Drivers/lsm303agr/Src/lsm303agr_reg.c **** void lsm303agr_unlock_I2C_bus(stmdev_ctx_t *ctx) {
 174              		.loc 1 98 50 is_stmt 1 view -0
 175              		.cfi_startproc
 176              		@ args = 0, pretend = 0, frame = 0
 177              		@ frame_needed = 0, uses_anonymous_args = 0
 178              		.loc 1 98 50 is_stmt 0 view .LVU31
 179 0000 10B5     		push	{r4, lr}
 180              	.LCFI8:
 181              		.cfi_def_cfa_offset 8
 182              		.cfi_offset 4, -8
 183              		.cfi_offset 14, -4
  99:Drivers/lsm303agr/Src/lsm303agr_reg.c **** 	I2C1->CR1 &= ~(I2C_CR1_PE);
 184              		.loc 1 99 2 is_stmt 1 view .LVU32
 185              		.loc 1 99 12 is_stmt 0 view .LVU33
ARM GAS  C:\Users\SF\AppData\Local\Temp\ccFGOSN0.s 			page 6


 186 0002 2F4A     		ldr	r2, .L13
 187 0004 1368     		ldr	r3, [r2]
 188 0006 23F00103 		bic	r3, r3, #1
 189 000a 1360     		str	r3, [r2]
 100:Drivers/lsm303agr/Src/lsm303agr_reg.c **** 	GPIOB->MODER &= ~(1 << 13 | 1 << 19);
 190              		.loc 1 100 2 is_stmt 1 view .LVU34
 191              		.loc 1 100 15 is_stmt 0 view .LVU35
 192 000c 2D4C     		ldr	r4, .L13+4
 193 000e 2368     		ldr	r3, [r4]
 194 0010 23F40223 		bic	r3, r3, #532480
 195 0014 2360     		str	r3, [r4]
 101:Drivers/lsm303agr/Src/lsm303agr_reg.c **** 	GPIOB->MODER |= (1 << 12 | 1 << 18);
 196              		.loc 1 101 2 is_stmt 1 view .LVU36
 197              		.loc 1 101 15 is_stmt 0 view .LVU37
 198 0016 2368     		ldr	r3, [r4]
 199 0018 43F48223 		orr	r3, r3, #266240
 200 001c 2360     		str	r3, [r4]
 102:Drivers/lsm303agr/Src/lsm303agr_reg.c **** 	GPIOB->OTYPER |= (1 << 9)| ( 1 << 6);
 201              		.loc 1 102 2 is_stmt 1 view .LVU38
 202              		.loc 1 102 16 is_stmt 0 view .LVU39
 203 001e 6368     		ldr	r3, [r4, #4]
 204 0020 43F41073 		orr	r3, r3, #576
 205 0024 6360     		str	r3, [r4, #4]
 103:Drivers/lsm303agr/Src/lsm303agr_reg.c **** 
 104:Drivers/lsm303agr/Src/lsm303agr_reg.c **** 	ctx->mdelay(100);
 206              		.loc 1 104 2 is_stmt 1 view .LVU40
 207              		.loc 1 104 5 is_stmt 0 view .LVU41
 208 0026 C368     		ldr	r3, [r0, #12]
 209              		.loc 1 104 2 view .LVU42
 210 0028 6420     		movs	r0, #100
 211              	.LVL21:
 212              		.loc 1 104 2 view .LVU43
 213 002a 9847     		blx	r3
 214              	.LVL22:
 105:Drivers/lsm303agr/Src/lsm303agr_reg.c **** 
 106:Drivers/lsm303agr/Src/lsm303agr_reg.c ****     GPIOB->ODR |= (1 << 6) | (1 << 9);
 215              		.loc 1 106 5 is_stmt 1 view .LVU44
 216              		.loc 1 106 16 is_stmt 0 view .LVU45
 217 002c 6369     		ldr	r3, [r4, #20]
 218 002e 43F41073 		orr	r3, r3, #576
 219 0032 6361     		str	r3, [r4, #20]
 107:Drivers/lsm303agr/Src/lsm303agr_reg.c ****     if (HAL_GPIO_ReadPin(GPIOB, GPIO_PIN_6) == GPIO_PIN_RESET || HAL_GPIO_ReadPin(GPIOB, GPIO_PIN_6
 220              		.loc 1 107 5 is_stmt 1 view .LVU46
 221              		.loc 1 107 9 is_stmt 0 view .LVU47
 222 0034 4021     		movs	r1, #64
 223 0036 2046     		mov	r0, r4
 224 0038 FFF7FEFF 		bl	HAL_GPIO_ReadPin
 225              	.LVL23:
 226              		.loc 1 107 8 view .LVU48
 227 003c 0028     		cmp	r0, #0
 228 003e 3AD1     		bne	.L12
 229              	.L10:
 108:Drivers/lsm303agr/Src/lsm303agr_reg.c ****     }
 230              		.loc 1 108 5 is_stmt 1 view .LVU49
 109:Drivers/lsm303agr/Src/lsm303agr_reg.c **** 
 110:Drivers/lsm303agr/Src/lsm303agr_reg.c **** 	  GPIOB->ODR &= ~(1 << 9);
 231              		.loc 1 110 4 view .LVU50
ARM GAS  C:\Users\SF\AppData\Local\Temp\ccFGOSN0.s 			page 7


 232              		.loc 1 110 15 is_stmt 0 view .LVU51
 233 0040 204C     		ldr	r4, .L13+4
 234 0042 6369     		ldr	r3, [r4, #20]
 235 0044 23F40073 		bic	r3, r3, #512
 236 0048 6361     		str	r3, [r4, #20]
 111:Drivers/lsm303agr/Src/lsm303agr_reg.c ****     if(HAL_GPIO_ReadPin(GPIOB, GPIO_PIN_9) == GPIO_PIN_SET)
 237              		.loc 1 111 5 is_stmt 1 view .LVU52
 238              		.loc 1 111 8 is_stmt 0 view .LVU53
 239 004a 4FF40071 		mov	r1, #512
 240 004e 2046     		mov	r0, r4
 241 0050 FFF7FEFF 		bl	HAL_GPIO_ReadPin
 242              	.LVL24:
 112:Drivers/lsm303agr/Src/lsm303agr_reg.c ****     {
 113:Drivers/lsm303agr/Src/lsm303agr_reg.c ****     }
 243              		.loc 1 113 5 is_stmt 1 view .LVU54
 114:Drivers/lsm303agr/Src/lsm303agr_reg.c **** 
 115:Drivers/lsm303agr/Src/lsm303agr_reg.c ****     GPIOB->ODR &= ~(1 << 6);
 244              		.loc 1 115 5 view .LVU55
 245              		.loc 1 115 16 is_stmt 0 view .LVU56
 246 0054 6369     		ldr	r3, [r4, #20]
 247 0056 23F04003 		bic	r3, r3, #64
 248 005a 6361     		str	r3, [r4, #20]
 116:Drivers/lsm303agr/Src/lsm303agr_reg.c **** 
 117:Drivers/lsm303agr/Src/lsm303agr_reg.c ****     if(HAL_GPIO_ReadPin(GPIOB, GPIO_PIN_6) == GPIO_PIN_SET)
 249              		.loc 1 117 5 is_stmt 1 view .LVU57
 250              		.loc 1 117 8 is_stmt 0 view .LVU58
 251 005c 4021     		movs	r1, #64
 252 005e 2046     		mov	r0, r4
 253 0060 FFF7FEFF 		bl	HAL_GPIO_ReadPin
 254              	.LVL25:
 118:Drivers/lsm303agr/Src/lsm303agr_reg.c ****     {
 119:Drivers/lsm303agr/Src/lsm303agr_reg.c ****     }
 255              		.loc 1 119 5 is_stmt 1 view .LVU59
 120:Drivers/lsm303agr/Src/lsm303agr_reg.c **** 
 121:Drivers/lsm303agr/Src/lsm303agr_reg.c ****     GPIOB->ODR |= (1 << 6);
 256              		.loc 1 121 5 view .LVU60
 257              		.loc 1 121 16 is_stmt 0 view .LVU61
 258 0064 6369     		ldr	r3, [r4, #20]
 259 0066 43F04003 		orr	r3, r3, #64
 260 006a 6361     		str	r3, [r4, #20]
 122:Drivers/lsm303agr/Src/lsm303agr_reg.c ****     if (HAL_GPIO_ReadPin(GPIOB, GPIO_PIN_6) == GPIO_PIN_RESET) {
 261              		.loc 1 122 5 is_stmt 1 view .LVU62
 262              		.loc 1 122 9 is_stmt 0 view .LVU63
 263 006c 4021     		movs	r1, #64
 264 006e 2046     		mov	r0, r4
 265 0070 FFF7FEFF 		bl	HAL_GPIO_ReadPin
 266              	.LVL26:
 123:Drivers/lsm303agr/Src/lsm303agr_reg.c ****     }
 267              		.loc 1 123 5 is_stmt 1 view .LVU64
 124:Drivers/lsm303agr/Src/lsm303agr_reg.c **** 
 125:Drivers/lsm303agr/Src/lsm303agr_reg.c **** 	GPIOB->ODR |= (1 << 9);
 268              		.loc 1 125 2 view .LVU65
 269              		.loc 1 125 13 is_stmt 0 view .LVU66
 270 0074 6369     		ldr	r3, [r4, #20]
 271 0076 43F40073 		orr	r3, r3, #512
 272 007a 6361     		str	r3, [r4, #20]
 126:Drivers/lsm303agr/Src/lsm303agr_reg.c ****     if(HAL_GPIO_ReadPin(GPIOB, GPIO_PIN_9) == GPIO_PIN_RESET)
ARM GAS  C:\Users\SF\AppData\Local\Temp\ccFGOSN0.s 			page 8


 273              		.loc 1 126 5 is_stmt 1 view .LVU67
 274              		.loc 1 126 8 is_stmt 0 view .LVU68
 275 007c 4FF40071 		mov	r1, #512
 276 0080 2046     		mov	r0, r4
 277 0082 FFF7FEFF 		bl	HAL_GPIO_ReadPin
 278              	.LVL27:
 127:Drivers/lsm303agr/Src/lsm303agr_reg.c ****     {
 128:Drivers/lsm303agr/Src/lsm303agr_reg.c ****     }
 279              		.loc 1 128 5 is_stmt 1 view .LVU69
 129:Drivers/lsm303agr/Src/lsm303agr_reg.c **** 
 130:Drivers/lsm303agr/Src/lsm303agr_reg.c **** 	GPIOB->MODER &= ~(1 << 12 | 1 << 18);
 280              		.loc 1 130 2 view .LVU70
 281              		.loc 1 130 15 is_stmt 0 view .LVU71
 282 0086 2368     		ldr	r3, [r4]
 283 0088 23F48223 		bic	r3, r3, #266240
 284 008c 2360     		str	r3, [r4]
 131:Drivers/lsm303agr/Src/lsm303agr_reg.c **** 	GPIOB->MODER |= (1 << 13 | 1 << 19);
 285              		.loc 1 131 2 is_stmt 1 view .LVU72
 286              		.loc 1 131 15 is_stmt 0 view .LVU73
 287 008e 2368     		ldr	r3, [r4]
 288 0090 43F40223 		orr	r3, r3, #532480
 289 0094 2360     		str	r3, [r4]
 132:Drivers/lsm303agr/Src/lsm303agr_reg.c **** 
 133:Drivers/lsm303agr/Src/lsm303agr_reg.c ****     I2C1->CR1 |= I2C_CR1_SWRST;
 290              		.loc 1 133 5 is_stmt 1 view .LVU74
 291              		.loc 1 133 15 is_stmt 0 view .LVU75
 292 0096 0A4B     		ldr	r3, .L13
 293 0098 1A68     		ldr	r2, [r3]
 294 009a 42F40042 		orr	r2, r2, #32768
 295 009e 1A60     		str	r2, [r3]
 134:Drivers/lsm303agr/Src/lsm303agr_reg.c **** 	I2C1->CR1 &= ~(I2C_CR1_SWRST);
 296              		.loc 1 134 2 is_stmt 1 view .LVU76
 297              		.loc 1 134 12 is_stmt 0 view .LVU77
 298 00a0 1A68     		ldr	r2, [r3]
 299 00a2 22F40042 		bic	r2, r2, #32768
 300 00a6 1A60     		str	r2, [r3]
 135:Drivers/lsm303agr/Src/lsm303agr_reg.c **** 	I2C1->CR1 |= I2C_CR1_PE;
 301              		.loc 1 135 2 is_stmt 1 view .LVU78
 302              		.loc 1 135 12 is_stmt 0 view .LVU79
 303 00a8 1A68     		ldr	r2, [r3]
 304 00aa 42F00102 		orr	r2, r2, #1
 305 00ae 1A60     		str	r2, [r3]
 136:Drivers/lsm303agr/Src/lsm303agr_reg.c **** 
 137:Drivers/lsm303agr/Src/lsm303agr_reg.c **** 	MX_I2C1_Init();
 306              		.loc 1 137 2 is_stmt 1 view .LVU80
 307 00b0 FFF7FEFF 		bl	MX_I2C1_Init
 308              	.LVL28:
 138:Drivers/lsm303agr/Src/lsm303agr_reg.c **** }
 309              		.loc 1 138 1 is_stmt 0 view .LVU81
 310 00b4 10BD     		pop	{r4, pc}
 311              	.L12:
 107:Drivers/lsm303agr/Src/lsm303agr_reg.c ****     }
 312              		.loc 1 107 66 discriminator 1 view .LVU82
 313 00b6 4021     		movs	r1, #64
 314 00b8 2046     		mov	r0, r4
 315 00ba FFF7FEFF 		bl	HAL_GPIO_ReadPin
 316              	.LVL29:
ARM GAS  C:\Users\SF\AppData\Local\Temp\ccFGOSN0.s 			page 9


 317 00be BFE7     		b	.L10
 318              	.L14:
 319              		.align	2
 320              	.L13:
 321 00c0 00540040 		.word	1073763328
 322 00c4 00040240 		.word	1073873920
 323              		.cfi_endproc
 324              	.LFE132:
 326              		.section	.text.lsm303agr_read_reg,"ax",%progbits
 327              		.align	1
 328              		.global	lsm303agr_read_reg
 329              		.syntax unified
 330              		.thumb
 331              		.thumb_func
 333              	lsm303agr_read_reg:
 334              	.LVL30:
 335              	.LFB138:
 139:Drivers/lsm303agr/Src/lsm303agr_reg.c **** 
 140:Drivers/lsm303agr/Src/lsm303agr_reg.c **** void lsm303agr_init(stmdev_ctx_t *ctx_xl, stmdev_ctx_t *ctx_mag) {
 141:Drivers/lsm303agr/Src/lsm303agr_reg.c **** 	  ctx_xl->write_reg = lsm303agr_write;
 142:Drivers/lsm303agr/Src/lsm303agr_reg.c **** 	  ctx_xl->read_reg = lsm303agr_read;
 143:Drivers/lsm303agr/Src/lsm303agr_reg.c **** 	  ctx_xl->handle = (void *)&xl_bus;
 144:Drivers/lsm303agr/Src/lsm303agr_reg.c **** 	  ctx_xl->mdelay = HAL_Delay;
 145:Drivers/lsm303agr/Src/lsm303agr_reg.c **** 	  ctx_xl->munlock = lsm303agr_unlock_I2C_bus;
 146:Drivers/lsm303agr/Src/lsm303agr_reg.c **** 
 147:Drivers/lsm303agr/Src/lsm303agr_reg.c **** 	  ctx_mag->write_reg = lsm303agr_write;
 148:Drivers/lsm303agr/Src/lsm303agr_reg.c **** 	  ctx_mag->read_reg = lsm303agr_read;
 149:Drivers/lsm303agr/Src/lsm303agr_reg.c **** 	  ctx_mag->handle = (void *)&mag_bus;
 150:Drivers/lsm303agr/Src/lsm303agr_reg.c **** 	  ctx_mag->mdelay = HAL_Delay;
 151:Drivers/lsm303agr/Src/lsm303agr_reg.c **** 	  ctx_mag->munlock = lsm303agr_unlock_I2C_bus;
 152:Drivers/lsm303agr/Src/lsm303agr_reg.c **** 
 153:Drivers/lsm303agr/Src/lsm303agr_reg.c **** 	  ctx_xl->mdelay(100);
 154:Drivers/lsm303agr/Src/lsm303agr_reg.c **** 
 155:Drivers/lsm303agr/Src/lsm303agr_reg.c **** 	  int16_t whoamI = 0;
 156:Drivers/lsm303agr/Src/lsm303agr_reg.c **** 	  lsm303agr_xl_device_id_get(ctx_xl, &whoamI);
 157:Drivers/lsm303agr/Src/lsm303agr_reg.c **** 
 158:Drivers/lsm303agr/Src/lsm303agr_reg.c **** 	  while ( whoamI != LSM303AGR_ID_XL ) {
 159:Drivers/lsm303agr/Src/lsm303agr_reg.c **** 		  ctx_xl->munlock(ctx_xl);
 160:Drivers/lsm303agr/Src/lsm303agr_reg.c **** 
 161:Drivers/lsm303agr/Src/lsm303agr_reg.c **** 		  lsm303agr_xl_device_id_get(ctx_xl, &whoamI);
 162:Drivers/lsm303agr/Src/lsm303agr_reg.c **** 
 163:Drivers/lsm303agr/Src/lsm303agr_reg.c **** 		  lsm303agr_xl_boot_set(ctx_xl, 1);
 164:Drivers/lsm303agr/Src/lsm303agr_reg.c **** 		  lsm303agr_mag_boot_set(ctx_mag, 1);
 165:Drivers/lsm303agr/Src/lsm303agr_reg.c **** 
 166:Drivers/lsm303agr/Src/lsm303agr_reg.c **** 		  ctx_xl->mdelay(100);
 167:Drivers/lsm303agr/Src/lsm303agr_reg.c **** 
 168:Drivers/lsm303agr/Src/lsm303agr_reg.c **** 	  }
 169:Drivers/lsm303agr/Src/lsm303agr_reg.c **** 	  /*manage here device not found */
 170:Drivers/lsm303agr/Src/lsm303agr_reg.c **** 
 171:Drivers/lsm303agr/Src/lsm303agr_reg.c **** 	  whoamI = 0;
 172:Drivers/lsm303agr/Src/lsm303agr_reg.c **** 	  lsm303agr_mag_device_id_get(ctx_mag, &whoamI);
 173:Drivers/lsm303agr/Src/lsm303agr_reg.c **** 
 174:Drivers/lsm303agr/Src/lsm303agr_reg.c **** 	  while ( whoamI != LSM303AGR_ID_MG ) {
 175:Drivers/lsm303agr/Src/lsm303agr_reg.c **** 		  ctx_mag->munlock(ctx_mag);
 176:Drivers/lsm303agr/Src/lsm303agr_reg.c **** 
 177:Drivers/lsm303agr/Src/lsm303agr_reg.c **** 		  lsm303agr_xl_device_id_get(ctx_mag, &whoamI);
 178:Drivers/lsm303agr/Src/lsm303agr_reg.c **** 
ARM GAS  C:\Users\SF\AppData\Local\Temp\ccFGOSN0.s 			page 10


 179:Drivers/lsm303agr/Src/lsm303agr_reg.c **** 		  lsm303agr_xl_boot_set(ctx_mag, 1);
 180:Drivers/lsm303agr/Src/lsm303agr_reg.c **** 		  lsm303agr_mag_boot_set(ctx_mag, 1);
 181:Drivers/lsm303agr/Src/lsm303agr_reg.c **** 
 182:Drivers/lsm303agr/Src/lsm303agr_reg.c **** 		  ctx_mag->mdelay(100);
 183:Drivers/lsm303agr/Src/lsm303agr_reg.c **** 	  }
 184:Drivers/lsm303agr/Src/lsm303agr_reg.c **** 
 185:Drivers/lsm303agr/Src/lsm303agr_reg.c **** 	  /* Restore default configuration for magnetometer */
 186:Drivers/lsm303agr/Src/lsm303agr_reg.c **** 	  lsm303agr_mag_reset_set(ctx_mag, PROPERTY_ENABLE);
 187:Drivers/lsm303agr/Src/lsm303agr_reg.c **** 	  lsm303agr_xl_block_data_update_set(ctx_xl, PROPERTY_ENABLE);
 188:Drivers/lsm303agr/Src/lsm303agr_reg.c **** 	  lsm303agr_mag_block_data_update_set(ctx_mag, PROPERTY_ENABLE);
 189:Drivers/lsm303agr/Src/lsm303agr_reg.c **** 	  /* Set Output Data Rate */
 190:Drivers/lsm303agr/Src/lsm303agr_reg.c **** 	  lsm303agr_xl_data_rate_set(ctx_xl, LSM303AGR_XL_ODR_1Hz);
 191:Drivers/lsm303agr/Src/lsm303agr_reg.c **** 	  lsm303agr_mag_data_rate_set(ctx_mag, LSM303AGR_MG_ODR_10Hz);
 192:Drivers/lsm303agr/Src/lsm303agr_reg.c **** 	  /* Set accelerometer full scale */
 193:Drivers/lsm303agr/Src/lsm303agr_reg.c **** 	  lsm303agr_xl_full_scale_set(ctx_xl, LSM303AGR_2g);
 194:Drivers/lsm303agr/Src/lsm303agr_reg.c **** 	  /* Set / Reset magnetic sensor mode */
 195:Drivers/lsm303agr/Src/lsm303agr_reg.c **** 	  lsm303agr_mag_set_rst_mode_set(ctx_mag,
 196:Drivers/lsm303agr/Src/lsm303agr_reg.c **** 	                                 LSM303AGR_SENS_OFF_CANC_EVERY_ODR);
 197:Drivers/lsm303agr/Src/lsm303agr_reg.c **** 	  /* Enable temperature compensation on mag sensor */
 198:Drivers/lsm303agr/Src/lsm303agr_reg.c **** 	  lsm303agr_mag_offset_temp_comp_set(ctx_mag, PROPERTY_ENABLE);
 199:Drivers/lsm303agr/Src/lsm303agr_reg.c **** 	  /* Enable temperature sensor */
 200:Drivers/lsm303agr/Src/lsm303agr_reg.c **** 	  lsm303agr_temperature_meas_set(ctx_xl, LSM303AGR_TEMP_ENABLE);
 201:Drivers/lsm303agr/Src/lsm303agr_reg.c **** 	  /* Set device in continuous mode */
 202:Drivers/lsm303agr/Src/lsm303agr_reg.c **** 	  lsm303agr_xl_operating_mode_set(ctx_xl, LSM303AGR_HR_12bit);
 203:Drivers/lsm303agr/Src/lsm303agr_reg.c **** 	  /* Set magnetometer in continuous mode */
 204:Drivers/lsm303agr/Src/lsm303agr_reg.c **** 	  lsm303agr_mag_operating_mode_set(ctx_mag,
 205:Drivers/lsm303agr/Src/lsm303agr_reg.c **** 	                                   LSM303AGR_CONTINUOUS_MODE);
 206:Drivers/lsm303agr/Src/lsm303agr_reg.c **** }
 207:Drivers/lsm303agr/Src/lsm303agr_reg.c **** 
 208:Drivers/lsm303agr/Src/lsm303agr_reg.c **** void lsm303agr_calib_xl(stmdev_ctx_t *ctx_xl, int16_t *data_raw_acceleration, float *delta ) {
 209:Drivers/lsm303agr/Src/lsm303agr_reg.c **** 
 210:Drivers/lsm303agr/Src/lsm303agr_reg.c ****     float sumX = 0;
 211:Drivers/lsm303agr/Src/lsm303agr_reg.c ****     float sumY = 0;
 212:Drivers/lsm303agr/Src/lsm303agr_reg.c ****     float sumZ = 0;
 213:Drivers/lsm303agr/Src/lsm303agr_reg.c ****     int16_t samples = 100;
 214:Drivers/lsm303agr/Src/lsm303agr_reg.c **** 
 215:Drivers/lsm303agr/Src/lsm303agr_reg.c ****     for (uint8_t i = 0; i < samples; ++i)
 216:Drivers/lsm303agr/Src/lsm303agr_reg.c ****     {
 217:Drivers/lsm303agr/Src/lsm303agr_reg.c ****      lsm303agr_read_xl(ctx_xl, data_raw_acceleration);
 218:Drivers/lsm303agr/Src/lsm303agr_reg.c **** 
 219:Drivers/lsm303agr/Src/lsm303agr_reg.c ****       sumX += data_raw_acceleration[0];
 220:Drivers/lsm303agr/Src/lsm303agr_reg.c ****       sumY += data_raw_acceleration[1];
 221:Drivers/lsm303agr/Src/lsm303agr_reg.c ****       sumZ += 16384 - data_raw_acceleration[2];
 222:Drivers/lsm303agr/Src/lsm303agr_reg.c **** 
 223:Drivers/lsm303agr/Src/lsm303agr_reg.c ****       ctx_xl->mdelay(10);
 224:Drivers/lsm303agr/Src/lsm303agr_reg.c ****      }
 225:Drivers/lsm303agr/Src/lsm303agr_reg.c **** 
 226:Drivers/lsm303agr/Src/lsm303agr_reg.c ****     delta[0] = sumX / samples;
 227:Drivers/lsm303agr/Src/lsm303agr_reg.c ****     delta[1] = sumY / samples;
 228:Drivers/lsm303agr/Src/lsm303agr_reg.c ****     delta[2] = sumZ / samples;
 229:Drivers/lsm303agr/Src/lsm303agr_reg.c **** }
 230:Drivers/lsm303agr/Src/lsm303agr_reg.c **** 
 231:Drivers/lsm303agr/Src/lsm303agr_reg.c **** void lsm303agr_read_mag(stmdev_ctx_t *ctx_mg, int16_t *raw_magnetic) {
 232:Drivers/lsm303agr/Src/lsm303agr_reg.c ****  	lsm303agr_reg_t reg;
 233:Drivers/lsm303agr/Src/lsm303agr_reg.c **** 
 234:Drivers/lsm303agr/Src/lsm303agr_reg.c ****     lsm303agr_mag_status_get(ctx_mg, &reg.status_reg_m);
 235:Drivers/lsm303agr/Src/lsm303agr_reg.c **** 
ARM GAS  C:\Users\SF\AppData\Local\Temp\ccFGOSN0.s 			page 11


 236:Drivers/lsm303agr/Src/lsm303agr_reg.c ****     if (reg.status_reg_m.zyxda) {
 237:Drivers/lsm303agr/Src/lsm303agr_reg.c ****       /* Read magnetic field data */
 238:Drivers/lsm303agr/Src/lsm303agr_reg.c ****       memset(raw_magnetic, 0x00, 3 * sizeof(int16_t));
 239:Drivers/lsm303agr/Src/lsm303agr_reg.c ****       lsm303agr_magnetic_raw_get(ctx_mg, raw_magnetic);
 240:Drivers/lsm303agr/Src/lsm303agr_reg.c ****       raw_magnetic[0] = (raw_magnetic[0] * soft_magnetic_x[0] + raw_magnetic[1]*soft_magnetic_x[1] 
 241:Drivers/lsm303agr/Src/lsm303agr_reg.c ****       raw_magnetic[1] = (raw_magnetic[0] * soft_magnetic_y[0] + raw_magnetic[1]*soft_magnetic_y[1] 
 242:Drivers/lsm303agr/Src/lsm303agr_reg.c ****       raw_magnetic[2] = (raw_magnetic[0] * soft_magnetic_z[0] + raw_magnetic[1]*soft_magnetic_z[1] 
 243:Drivers/lsm303agr/Src/lsm303agr_reg.c ****     }
 244:Drivers/lsm303agr/Src/lsm303agr_reg.c **** 
 245:Drivers/lsm303agr/Src/lsm303agr_reg.c **** }
 246:Drivers/lsm303agr/Src/lsm303agr_reg.c **** 
 247:Drivers/lsm303agr/Src/lsm303agr_reg.c **** 
 248:Drivers/lsm303agr/Src/lsm303agr_reg.c **** void lsm303agr_read_xl(stmdev_ctx_t *ctx_xl, int16_t *raw_acceleration) {
 249:Drivers/lsm303agr/Src/lsm303agr_reg.c ****  	lsm303agr_reg_t reg;
 250:Drivers/lsm303agr/Src/lsm303agr_reg.c ****     lsm303agr_xl_status_get(ctx_xl, &reg.status_reg_a);
 251:Drivers/lsm303agr/Src/lsm303agr_reg.c **** 
 252:Drivers/lsm303agr/Src/lsm303agr_reg.c ****     if (reg.status_reg_a.zyxda) {
 253:Drivers/lsm303agr/Src/lsm303agr_reg.c ****       /* Read accelerometer data */
 254:Drivers/lsm303agr/Src/lsm303agr_reg.c ****       memset(raw_acceleration, 0x00, 3 * sizeof(int16_t));
 255:Drivers/lsm303agr/Src/lsm303agr_reg.c ****       lsm303agr_acceleration_raw_get(ctx_xl, raw_acceleration);
 256:Drivers/lsm303agr/Src/lsm303agr_reg.c ****     }
 257:Drivers/lsm303agr/Src/lsm303agr_reg.c **** 
 258:Drivers/lsm303agr/Src/lsm303agr_reg.c **** }
 259:Drivers/lsm303agr/Src/lsm303agr_reg.c **** 
 260:Drivers/lsm303agr/Src/lsm303agr_reg.c **** void lsm303agr_read_calibrated_xl(stmdev_ctx_t *ctx_xl, int16_t *raw_acceleration, float *delta) {
 261:Drivers/lsm303agr/Src/lsm303agr_reg.c ****  	lsm303agr_reg_t reg;
 262:Drivers/lsm303agr/Src/lsm303agr_reg.c ****     lsm303agr_xl_status_get(ctx_xl, &reg.status_reg_a);
 263:Drivers/lsm303agr/Src/lsm303agr_reg.c **** 
 264:Drivers/lsm303agr/Src/lsm303agr_reg.c ****     if (reg.status_reg_a.zyxda) {
 265:Drivers/lsm303agr/Src/lsm303agr_reg.c ****       /* Read accelerometer data */
 266:Drivers/lsm303agr/Src/lsm303agr_reg.c ****       memset(raw_acceleration, 0x00, 3 * sizeof(int16_t));
 267:Drivers/lsm303agr/Src/lsm303agr_reg.c ****       lsm303agr_acceleration_raw_get(ctx_xl, raw_acceleration);
 268:Drivers/lsm303agr/Src/lsm303agr_reg.c ****       raw_acceleration[0] = raw_acceleration[0] - delta[0];
 269:Drivers/lsm303agr/Src/lsm303agr_reg.c ****       raw_acceleration[1] = raw_acceleration[1] - delta[1];
 270:Drivers/lsm303agr/Src/lsm303agr_reg.c ****       raw_acceleration[2] = raw_acceleration[2] + delta[2];
 271:Drivers/lsm303agr/Src/lsm303agr_reg.c ****     }
 272:Drivers/lsm303agr/Src/lsm303agr_reg.c **** 
 273:Drivers/lsm303agr/Src/lsm303agr_reg.c **** }
 274:Drivers/lsm303agr/Src/lsm303agr_reg.c **** 
 275:Drivers/lsm303agr/Src/lsm303agr_reg.c **** //void LSM303agr_read_mag_and_xl(stmdev_ctx_t *ctx_xl, stmdev_ctx_t *ctx_mg, int16_t *raw_accelerat
 276:Drivers/lsm303agr/Src/lsm303agr_reg.c **** // 	lsm303agr_reg_t reg;
 277:Drivers/lsm303agr/Src/lsm303agr_reg.c **** //    lsm303agr_xl_status_get(ctx_xl, &reg.status_reg_a);
 278:Drivers/lsm303agr/Src/lsm303agr_reg.c **** //
 279:Drivers/lsm303agr/Src/lsm303agr_reg.c **** //    if (reg.status_reg_a.zyxda) {
 280:Drivers/lsm303agr/Src/lsm303agr_reg.c **** //      /* Read accelerometer data */
 281:Drivers/lsm303agr/Src/lsm303agr_reg.c **** //      memset(raw_acceleration, 0x00, 3 * sizeof(int16_t));
 282:Drivers/lsm303agr/Src/lsm303agr_reg.c **** //      lsm303agr_acceleration_raw_get(ctx_xl,
 283:Drivers/lsm303agr/Src/lsm303agr_reg.c **** //                                     data_raw_acceleration);
 284:Drivers/lsm303agr/Src/lsm303agr_reg.c **** //      raw_acceleration[0] = lsm303agr_from_fs_2g_hr_to_mg(
 285:Drivers/lsm303agr/Src/lsm303agr_reg.c **** //    		  raw_acceleration[0] );
 286:Drivers/lsm303agr/Src/lsm303agr_reg.c **** //      raw_acceleration[1] = lsm303agr_from_fs_2g_hr_to_mg(
 287:Drivers/lsm303agr/Src/lsm303agr_reg.c **** //    		  raw_acceleration[1] );
 288:Drivers/lsm303agr/Src/lsm303agr_reg.c **** //      raw_acceleration[2] = lsm303agr_from_fs_2g_hr_to_mg(
 289:Drivers/lsm303agr/Src/lsm303agr_reg.c **** //    		  raw_acceleration[2] );
 290:Drivers/lsm303agr/Src/lsm303agr_reg.c **** //    }
 291:Drivers/lsm303agr/Src/lsm303agr_reg.c **** //
 292:Drivers/lsm303agr/Src/lsm303agr_reg.c **** //
ARM GAS  C:\Users\SF\AppData\Local\Temp\ccFGOSN0.s 			page 12


 293:Drivers/lsm303agr/Src/lsm303agr_reg.c **** //    lsm303agr_mag_status_get(ctx_mg, &reg.status_reg_m);
 294:Drivers/lsm303agr/Src/lsm303agr_reg.c **** //
 295:Drivers/lsm303agr/Src/lsm303agr_reg.c **** //    if (reg.status_reg_m.zyxda) {
 296:Drivers/lsm303agr/Src/lsm303agr_reg.c **** //      /* Read magnetic field data */
 297:Drivers/lsm303agr/Src/lsm303agr_reg.c **** //      memset(raw_magnetic, 0x00, 3 * sizeof(int16_t));
 298:Drivers/lsm303agr/Src/lsm303agr_reg.c **** //      lsm303agr_magnetic_raw_get(ctx_mg, data_raw_magnetic);
 299:Drivers/lsm303agr/Src/lsm303agr_reg.c **** //      raw_magnetic[0] = lsm303agr_from_lsb_to_mgauss(
 300:Drivers/lsm303agr/Src/lsm303agr_reg.c **** //    		  raw_magnetic[0]);
 301:Drivers/lsm303agr/Src/lsm303agr_reg.c **** //      raw_magnetic[1] = lsm303agr_from_lsb_to_mgauss(
 302:Drivers/lsm303agr/Src/lsm303agr_reg.c **** //    		  raw_magnetic[1]);
 303:Drivers/lsm303agr/Src/lsm303agr_reg.c **** //      raw_magnetic[2] = lsm303agr_from_lsb_to_mgauss(
 304:Drivers/lsm303agr/Src/lsm303agr_reg.c **** //    		  raw_magnetic[2]);
 305:Drivers/lsm303agr/Src/lsm303agr_reg.c **** //    }
 306:Drivers/lsm303agr/Src/lsm303agr_reg.c **** //
 307:Drivers/lsm303agr/Src/lsm303agr_reg.c **** //
 308:Drivers/lsm303agr/Src/lsm303agr_reg.c **** //    lsm303agr_temp_data_ready_get(ctx_xl, &reg.byte);
 309:Drivers/lsm303agr/Src/lsm303agr_reg.c **** //    uint16_t temperature_degC;
 310:Drivers/lsm303agr/Src/lsm303agr_reg.c **** //
 311:Drivers/lsm303agr/Src/lsm303agr_reg.c **** //    if (reg.byte) {
 312:Drivers/lsm303agr/Src/lsm303agr_reg.c **** //      /* Read temperature data */
 313:Drivers/lsm303agr/Src/lsm303agr_reg.c **** //      memset(&raw_temperature, 0x00, sizeof(int16_t));
 314:Drivers/lsm303agr/Src/lsm303agr_reg.c **** //      lsm303agr_temperature_raw_get(ctx_xl,
 315:Drivers/lsm303agr/Src/lsm303agr_reg.c **** //                                    &raw_temperature);
 316:Drivers/lsm303agr/Src/lsm303agr_reg.c **** //      temperature_degC = lsm303agr_from_lsb_hr_to_celsius(
 317:Drivers/lsm303agr/Src/lsm303agr_reg.c **** //    		  raw_temperature );
 318:Drivers/lsm303agr/Src/lsm303agr_reg.c **** //    }
 319:Drivers/lsm303agr/Src/lsm303agr_reg.c **** //
 320:Drivers/lsm303agr/Src/lsm303agr_reg.c **** //};
 321:Drivers/lsm303agr/Src/lsm303agr_reg.c **** 
 322:Drivers/lsm303agr/Src/lsm303agr_reg.c **** //void lsm303agr_read_calibrated_xl(stmdev_ctx_t *ctx_xl, int16_t *raw_acceleration) {
 323:Drivers/lsm303agr/Src/lsm303agr_reg.c **** // 	lsm303agr_reg_t reg;
 324:Drivers/lsm303agr/Src/lsm303agr_reg.c **** //    lsm303agr_xl_status_get(ctx_xl, &reg.status_reg_a);
 325:Drivers/lsm303agr/Src/lsm303agr_reg.c **** //
 326:Drivers/lsm303agr/Src/lsm303agr_reg.c **** //    if (reg.status_reg_a.zyxda) {
 327:Drivers/lsm303agr/Src/lsm303agr_reg.c **** //      /* Read accelerometer data */
 328:Drivers/lsm303agr/Src/lsm303agr_reg.c **** //      memset(raw_acceleration, 0x00, 3 * sizeof(int16_t));
 329:Drivers/lsm303agr/Src/lsm303agr_reg.c **** //      lsm303agr_acceleration_raw_get(ctx_xl, raw_acceleration);
 330:Drivers/lsm303agr/Src/lsm303agr_reg.c **** //
 331:Drivers/lsm303agr/Src/lsm303agr_reg.c **** //      raw_acceleration[0] = raw_acceleration[0] - raw_acceleration[0];
 332:Drivers/lsm303agr/Src/lsm303agr_reg.c **** //      raw_acceleration[1] = raw_acceleration[1] - raw_acceleration[1];
 333:Drivers/lsm303agr/Src/lsm303agr_reg.c **** //      raw_acceleration[2] = raw_acceleration[2] + raw_acceleration[2];
 334:Drivers/lsm303agr/Src/lsm303agr_reg.c **** //    }
 335:Drivers/lsm303agr/Src/lsm303agr_reg.c **** //
 336:Drivers/lsm303agr/Src/lsm303agr_reg.c **** //}
 337:Drivers/lsm303agr/Src/lsm303agr_reg.c **** 
 338:Drivers/lsm303agr/Src/lsm303agr_reg.c **** 
 339:Drivers/lsm303agr/Src/lsm303agr_reg.c **** /**
 340:Drivers/lsm303agr/Src/lsm303agr_reg.c ****   * @brief  Read generic device register
 341:Drivers/lsm303agr/Src/lsm303agr_reg.c ****   *
 342:Drivers/lsm303agr/Src/lsm303agr_reg.c ****   * @param  ctx   read / write interface definitions(ptr)
 343:Drivers/lsm303agr/Src/lsm303agr_reg.c ****   * @param  reg   register to read
 344:Drivers/lsm303agr/Src/lsm303agr_reg.c ****   * @param  data  pointer to buffer that store the data read(ptr)
 345:Drivers/lsm303agr/Src/lsm303agr_reg.c ****   * @param  len   number of consecutive register to read
 346:Drivers/lsm303agr/Src/lsm303agr_reg.c ****   * @retval          interface status (MANDATORY: return 0 -> no Error)
 347:Drivers/lsm303agr/Src/lsm303agr_reg.c ****   *
 348:Drivers/lsm303agr/Src/lsm303agr_reg.c ****   */
 349:Drivers/lsm303agr/Src/lsm303agr_reg.c **** int32_t lsm303agr_read_reg(stmdev_ctx_t *ctx, uint8_t reg,
ARM GAS  C:\Users\SF\AppData\Local\Temp\ccFGOSN0.s 			page 13


 350:Drivers/lsm303agr/Src/lsm303agr_reg.c ****                            uint8_t *data,
 351:Drivers/lsm303agr/Src/lsm303agr_reg.c ****                            uint16_t len)
 352:Drivers/lsm303agr/Src/lsm303agr_reg.c **** {
 336              		.loc 1 352 1 is_stmt 1 view -0
 337              		.cfi_startproc
 338              		@ args = 0, pretend = 0, frame = 0
 339              		@ frame_needed = 0, uses_anonymous_args = 0
 340              		.loc 1 352 1 is_stmt 0 view .LVU84
 341 0000 10B5     		push	{r4, lr}
 342              	.LCFI9:
 343              		.cfi_def_cfa_offset 8
 344              		.cfi_offset 4, -8
 345              		.cfi_offset 14, -4
 353:Drivers/lsm303agr/Src/lsm303agr_reg.c ****   int32_t ret;
 346              		.loc 1 353 3 is_stmt 1 view .LVU85
 354:Drivers/lsm303agr/Src/lsm303agr_reg.c **** 
 355:Drivers/lsm303agr/Src/lsm303agr_reg.c ****   ret = ctx->read_reg(ctx->handle, reg, data, len);
 347              		.loc 1 355 3 view .LVU86
 348              		.loc 1 355 12 is_stmt 0 view .LVU87
 349 0002 8468     		ldr	r4, [r0, #8]
 350              		.loc 1 355 9 view .LVU88
 351 0004 0069     		ldr	r0, [r0, #16]
 352              	.LVL31:
 353              		.loc 1 355 9 view .LVU89
 354 0006 A047     		blx	r4
 355              	.LVL32:
 356:Drivers/lsm303agr/Src/lsm303agr_reg.c **** 
 357:Drivers/lsm303agr/Src/lsm303agr_reg.c ****   return ret;
 356              		.loc 1 357 3 is_stmt 1 view .LVU90
 358:Drivers/lsm303agr/Src/lsm303agr_reg.c **** }
 357              		.loc 1 358 1 is_stmt 0 view .LVU91
 358 0008 10BD     		pop	{r4, pc}
 359              		.cfi_endproc
 360              	.LFE138:
 362              		.section	.text.lsm303agr_write_reg,"ax",%progbits
 363              		.align	1
 364              		.global	lsm303agr_write_reg
 365              		.syntax unified
 366              		.thumb
 367              		.thumb_func
 369              	lsm303agr_write_reg:
 370              	.LVL33:
 371              	.LFB139:
 359:Drivers/lsm303agr/Src/lsm303agr_reg.c **** 
 360:Drivers/lsm303agr/Src/lsm303agr_reg.c **** /**
 361:Drivers/lsm303agr/Src/lsm303agr_reg.c ****   * @brief  Write generic device register
 362:Drivers/lsm303agr/Src/lsm303agr_reg.c ****   *
 363:Drivers/lsm303agr/Src/lsm303agr_reg.c ****   * @param  ctx   read / write interface definitions(ptr)
 364:Drivers/lsm303agr/Src/lsm303agr_reg.c ****   * @param  reg   register to write
 365:Drivers/lsm303agr/Src/lsm303agr_reg.c ****   * @param  data  pointer to data to write in register reg(ptr)
 366:Drivers/lsm303agr/Src/lsm303agr_reg.c ****   * @param  len   number of consecutive register to write
 367:Drivers/lsm303agr/Src/lsm303agr_reg.c ****   * @retval          interface status (MANDATORY: return 0 -> no Error)
 368:Drivers/lsm303agr/Src/lsm303agr_reg.c ****   *
 369:Drivers/lsm303agr/Src/lsm303agr_reg.c ****   */
 370:Drivers/lsm303agr/Src/lsm303agr_reg.c **** int32_t lsm303agr_write_reg(stmdev_ctx_t *ctx, uint8_t reg,
 371:Drivers/lsm303agr/Src/lsm303agr_reg.c ****                             uint8_t *data,
 372:Drivers/lsm303agr/Src/lsm303agr_reg.c ****                             uint16_t len)
ARM GAS  C:\Users\SF\AppData\Local\Temp\ccFGOSN0.s 			page 14


 373:Drivers/lsm303agr/Src/lsm303agr_reg.c **** {
 372              		.loc 1 373 1 is_stmt 1 view -0
 373              		.cfi_startproc
 374              		@ args = 0, pretend = 0, frame = 0
 375              		@ frame_needed = 0, uses_anonymous_args = 0
 376              		.loc 1 373 1 is_stmt 0 view .LVU93
 377 0000 10B5     		push	{r4, lr}
 378              	.LCFI10:
 379              		.cfi_def_cfa_offset 8
 380              		.cfi_offset 4, -8
 381              		.cfi_offset 14, -4
 374:Drivers/lsm303agr/Src/lsm303agr_reg.c ****   int32_t ret;
 382              		.loc 1 374 3 is_stmt 1 view .LVU94
 375:Drivers/lsm303agr/Src/lsm303agr_reg.c **** 
 376:Drivers/lsm303agr/Src/lsm303agr_reg.c ****   ret = ctx->write_reg(ctx->handle, reg, data, len);
 383              		.loc 1 376 3 view .LVU95
 384              		.loc 1 376 12 is_stmt 0 view .LVU96
 385 0002 4468     		ldr	r4, [r0, #4]
 386              		.loc 1 376 9 view .LVU97
 387 0004 0069     		ldr	r0, [r0, #16]
 388              	.LVL34:
 389              		.loc 1 376 9 view .LVU98
 390 0006 A047     		blx	r4
 391              	.LVL35:
 377:Drivers/lsm303agr/Src/lsm303agr_reg.c **** 
 378:Drivers/lsm303agr/Src/lsm303agr_reg.c ****   return ret;
 392              		.loc 1 378 3 is_stmt 1 view .LVU99
 379:Drivers/lsm303agr/Src/lsm303agr_reg.c **** }
 393              		.loc 1 379 1 is_stmt 0 view .LVU100
 394 0008 10BD     		pop	{r4, pc}
 395              		.cfi_endproc
 396              	.LFE139:
 398              		.section	.text.lsm303agr_from_fs_2g_hr_to_mg,"ax",%progbits
 399              		.align	1
 400              		.global	lsm303agr_from_fs_2g_hr_to_mg
 401              		.syntax unified
 402              		.thumb
 403              		.thumb_func
 405              	lsm303agr_from_fs_2g_hr_to_mg:
 406              	.LVL36:
 407              	.LFB140:
 380:Drivers/lsm303agr/Src/lsm303agr_reg.c **** 
 381:Drivers/lsm303agr/Src/lsm303agr_reg.c **** /**
 382:Drivers/lsm303agr/Src/lsm303agr_reg.c ****   * @}
 383:Drivers/lsm303agr/Src/lsm303agr_reg.c ****   *
 384:Drivers/lsm303agr/Src/lsm303agr_reg.c ****   */
 385:Drivers/lsm303agr/Src/lsm303agr_reg.c **** 
 386:Drivers/lsm303agr/Src/lsm303agr_reg.c **** /**
 387:Drivers/lsm303agr/Src/lsm303agr_reg.c ****   * @defgroup    LSM303AGR_Sensitivity
 388:Drivers/lsm303agr/Src/lsm303agr_reg.c ****   * @brief       These functions convert raw-data into engineering units.
 389:Drivers/lsm303agr/Src/lsm303agr_reg.c ****   * @{
 390:Drivers/lsm303agr/Src/lsm303agr_reg.c ****   *
 391:Drivers/lsm303agr/Src/lsm303agr_reg.c ****   */
 392:Drivers/lsm303agr/Src/lsm303agr_reg.c **** 
 393:Drivers/lsm303agr/Src/lsm303agr_reg.c **** float_t lsm303agr_from_fs_2g_hr_to_mg(int16_t lsb)
 394:Drivers/lsm303agr/Src/lsm303agr_reg.c **** {
 408              		.loc 1 394 1 is_stmt 1 view -0
ARM GAS  C:\Users\SF\AppData\Local\Temp\ccFGOSN0.s 			page 15


 409              		.cfi_startproc
 410              		@ args = 0, pretend = 0, frame = 0
 411              		@ frame_needed = 0, uses_anonymous_args = 0
 412              		@ link register save eliminated.
 413              		.loc 1 394 1 is_stmt 0 view .LVU102
 414 0000 07EE900A 		vmov	s15, r0	@ int
 395:Drivers/lsm303agr/Src/lsm303agr_reg.c ****   return ((float_t)lsb / 16.0f) * 0.98f;
 415              		.loc 1 395 3 is_stmt 1 view .LVU103
 416              		.loc 1 395 11 is_stmt 0 view .LVU104
 417 0004 F8EEE77A 		vcvt.f32.s32	s15, s15
 418              		.loc 1 395 24 view .LVU105
 419 0008 9FED040A 		vldr.32	s0, .L20
 420 000c 67EE807A 		vmul.f32	s15, s15, s0
 396:Drivers/lsm303agr/Src/lsm303agr_reg.c **** }
 421              		.loc 1 396 1 view .LVU106
 422 0010 9FED030A 		vldr.32	s0, .L20+4
 423 0014 27EE800A 		vmul.f32	s0, s15, s0
 424 0018 7047     		bx	lr
 425              	.L21:
 426 001a 00BF     		.align	2
 427              	.L20:
 428 001c 0000803D 		.word	1031798784
 429 0020 48E17A3F 		.word	1065017672
 430              		.cfi_endproc
 431              	.LFE140:
 433              		.section	.text.lsm303agr_from_fs_4g_hr_to_mg,"ax",%progbits
 434              		.align	1
 435              		.global	lsm303agr_from_fs_4g_hr_to_mg
 436              		.syntax unified
 437              		.thumb
 438              		.thumb_func
 440              	lsm303agr_from_fs_4g_hr_to_mg:
 441              	.LVL37:
 442              	.LFB141:
 397:Drivers/lsm303agr/Src/lsm303agr_reg.c **** 
 398:Drivers/lsm303agr/Src/lsm303agr_reg.c **** float_t lsm303agr_from_fs_4g_hr_to_mg(int16_t lsb)
 399:Drivers/lsm303agr/Src/lsm303agr_reg.c **** {
 443              		.loc 1 399 1 is_stmt 1 view -0
 444              		.cfi_startproc
 445              		@ args = 0, pretend = 0, frame = 0
 446              		@ frame_needed = 0, uses_anonymous_args = 0
 447              		@ link register save eliminated.
 448              		.loc 1 399 1 is_stmt 0 view .LVU108
 449 0000 07EE900A 		vmov	s15, r0	@ int
 400:Drivers/lsm303agr/Src/lsm303agr_reg.c ****   return ((float_t)lsb / 16.0f) * 1.95f;
 450              		.loc 1 400 3 is_stmt 1 view .LVU109
 451              		.loc 1 400 11 is_stmt 0 view .LVU110
 452 0004 F8EEE77A 		vcvt.f32.s32	s15, s15
 453              		.loc 1 400 24 view .LVU111
 454 0008 9FED040A 		vldr.32	s0, .L23
 455 000c 67EE807A 		vmul.f32	s15, s15, s0
 401:Drivers/lsm303agr/Src/lsm303agr_reg.c **** }
 456              		.loc 1 401 1 view .LVU112
 457 0010 9FED030A 		vldr.32	s0, .L23+4
 458 0014 27EE800A 		vmul.f32	s0, s15, s0
 459 0018 7047     		bx	lr
 460              	.L24:
ARM GAS  C:\Users\SF\AppData\Local\Temp\ccFGOSN0.s 			page 16


 461 001a 00BF     		.align	2
 462              	.L23:
 463 001c 0000803D 		.word	1031798784
 464 0020 9A99F93F 		.word	1073322394
 465              		.cfi_endproc
 466              	.LFE141:
 468              		.section	.text.lsm303agr_from_fs_8g_hr_to_mg,"ax",%progbits
 469              		.align	1
 470              		.global	lsm303agr_from_fs_8g_hr_to_mg
 471              		.syntax unified
 472              		.thumb
 473              		.thumb_func
 475              	lsm303agr_from_fs_8g_hr_to_mg:
 476              	.LVL38:
 477              	.LFB142:
 402:Drivers/lsm303agr/Src/lsm303agr_reg.c **** 
 403:Drivers/lsm303agr/Src/lsm303agr_reg.c **** float_t lsm303agr_from_fs_8g_hr_to_mg(int16_t lsb)
 404:Drivers/lsm303agr/Src/lsm303agr_reg.c **** {
 478              		.loc 1 404 1 is_stmt 1 view -0
 479              		.cfi_startproc
 480              		@ args = 0, pretend = 0, frame = 0
 481              		@ frame_needed = 0, uses_anonymous_args = 0
 482              		@ link register save eliminated.
 483              		.loc 1 404 1 is_stmt 0 view .LVU114
 484 0000 07EE900A 		vmov	s15, r0	@ int
 405:Drivers/lsm303agr/Src/lsm303agr_reg.c ****   return ((float_t)lsb / 16.0f) * 3.9f;
 485              		.loc 1 405 3 is_stmt 1 view .LVU115
 486              		.loc 1 405 11 is_stmt 0 view .LVU116
 487 0004 F8EEE77A 		vcvt.f32.s32	s15, s15
 488              		.loc 1 405 24 view .LVU117
 489 0008 9FED040A 		vldr.32	s0, .L26
 490 000c 67EE807A 		vmul.f32	s15, s15, s0
 406:Drivers/lsm303agr/Src/lsm303agr_reg.c **** }
 491              		.loc 1 406 1 view .LVU118
 492 0010 9FED030A 		vldr.32	s0, .L26+4
 493 0014 27EE800A 		vmul.f32	s0, s15, s0
 494 0018 7047     		bx	lr
 495              	.L27:
 496 001a 00BF     		.align	2
 497              	.L26:
 498 001c 0000803D 		.word	1031798784
 499 0020 9A997940 		.word	1081711002
 500              		.cfi_endproc
 501              	.LFE142:
 503              		.section	.text.lsm303agr_from_fs_16g_hr_to_mg,"ax",%progbits
 504              		.align	1
 505              		.global	lsm303agr_from_fs_16g_hr_to_mg
 506              		.syntax unified
 507              		.thumb
 508              		.thumb_func
 510              	lsm303agr_from_fs_16g_hr_to_mg:
 511              	.LVL39:
 512              	.LFB143:
 407:Drivers/lsm303agr/Src/lsm303agr_reg.c **** 
 408:Drivers/lsm303agr/Src/lsm303agr_reg.c **** float_t lsm303agr_from_fs_16g_hr_to_mg(int16_t lsb)
 409:Drivers/lsm303agr/Src/lsm303agr_reg.c **** {
 513              		.loc 1 409 1 is_stmt 1 view -0
ARM GAS  C:\Users\SF\AppData\Local\Temp\ccFGOSN0.s 			page 17


 514              		.cfi_startproc
 515              		@ args = 0, pretend = 0, frame = 0
 516              		@ frame_needed = 0, uses_anonymous_args = 0
 517              		@ link register save eliminated.
 518              		.loc 1 409 1 is_stmt 0 view .LVU120
 519 0000 07EE900A 		vmov	s15, r0	@ int
 410:Drivers/lsm303agr/Src/lsm303agr_reg.c ****   return ((float_t)lsb / 16.0f) * 11.72f;
 520              		.loc 1 410 3 is_stmt 1 view .LVU121
 521              		.loc 1 410 11 is_stmt 0 view .LVU122
 522 0004 F8EEE77A 		vcvt.f32.s32	s15, s15
 523              		.loc 1 410 24 view .LVU123
 524 0008 9FED040A 		vldr.32	s0, .L29
 525 000c 67EE807A 		vmul.f32	s15, s15, s0
 411:Drivers/lsm303agr/Src/lsm303agr_reg.c **** }
 526              		.loc 1 411 1 view .LVU124
 527 0010 9FED030A 		vldr.32	s0, .L29+4
 528 0014 27EE800A 		vmul.f32	s0, s15, s0
 529 0018 7047     		bx	lr
 530              	.L30:
 531 001a 00BF     		.align	2
 532              	.L29:
 533 001c 0000803D 		.word	1031798784
 534 0020 1F853B41 		.word	1094419743
 535              		.cfi_endproc
 536              	.LFE143:
 538              		.section	.text.lsm303agr_from_lsb_hr_to_celsius,"ax",%progbits
 539              		.align	1
 540              		.global	lsm303agr_from_lsb_hr_to_celsius
 541              		.syntax unified
 542              		.thumb
 543              		.thumb_func
 545              	lsm303agr_from_lsb_hr_to_celsius:
 546              	.LVL40:
 547              	.LFB144:
 412:Drivers/lsm303agr/Src/lsm303agr_reg.c **** 
 413:Drivers/lsm303agr/Src/lsm303agr_reg.c **** float_t lsm303agr_from_lsb_hr_to_celsius(int16_t lsb)
 414:Drivers/lsm303agr/Src/lsm303agr_reg.c **** {
 548              		.loc 1 414 1 is_stmt 1 view -0
 549              		.cfi_startproc
 550              		@ args = 0, pretend = 0, frame = 0
 551              		@ frame_needed = 0, uses_anonymous_args = 0
 552              		@ link register save eliminated.
 553              		.loc 1 414 1 is_stmt 0 view .LVU126
 554 0000 07EE900A 		vmov	s15, r0	@ int
 415:Drivers/lsm303agr/Src/lsm303agr_reg.c ****   return (((float_t)lsb / 64.0f) / 4.0f) + 25.0f;
 555              		.loc 1 415 3 is_stmt 1 view .LVU127
 556              		.loc 1 415 12 is_stmt 0 view .LVU128
 557 0004 F8EEE77A 		vcvt.f32.s32	s15, s15
 558              		.loc 1 415 25 view .LVU129
 559 0008 9FED060A 		vldr.32	s0, .L32
 560 000c 67EE807A 		vmul.f32	s15, s15, s0
 561              		.loc 1 415 34 view .LVU130
 562 0010 B5EE000A 		vmov.f32	s0, #2.5e-1
 563 0014 67EE807A 		vmul.f32	s15, s15, s0
 416:Drivers/lsm303agr/Src/lsm303agr_reg.c **** }
 564              		.loc 1 416 1 view .LVU131
 565 0018 B3EE090A 		vmov.f32	s0, #2.5e+1
ARM GAS  C:\Users\SF\AppData\Local\Temp\ccFGOSN0.s 			page 18


 566 001c 37EE800A 		vadd.f32	s0, s15, s0
 567 0020 7047     		bx	lr
 568              	.L33:
 569 0022 00BF     		.align	2
 570              	.L32:
 571 0024 0000803C 		.word	1015021568
 572              		.cfi_endproc
 573              	.LFE144:
 575              		.section	.text.lsm303agr_from_fs_2g_nm_to_mg,"ax",%progbits
 576              		.align	1
 577              		.global	lsm303agr_from_fs_2g_nm_to_mg
 578              		.syntax unified
 579              		.thumb
 580              		.thumb_func
 582              	lsm303agr_from_fs_2g_nm_to_mg:
 583              	.LVL41:
 584              	.LFB145:
 417:Drivers/lsm303agr/Src/lsm303agr_reg.c **** 
 418:Drivers/lsm303agr/Src/lsm303agr_reg.c **** float_t lsm303agr_from_fs_2g_nm_to_mg(int16_t lsb)
 419:Drivers/lsm303agr/Src/lsm303agr_reg.c **** {
 585              		.loc 1 419 1 is_stmt 1 view -0
 586              		.cfi_startproc
 587              		@ args = 0, pretend = 0, frame = 0
 588              		@ frame_needed = 0, uses_anonymous_args = 0
 589              		@ link register save eliminated.
 590              		.loc 1 419 1 is_stmt 0 view .LVU133
 591 0000 07EE900A 		vmov	s15, r0	@ int
 420:Drivers/lsm303agr/Src/lsm303agr_reg.c ****   return ((float_t)lsb / 64.0f) * 3.9f;
 592              		.loc 1 420 3 is_stmt 1 view .LVU134
 593              		.loc 1 420 11 is_stmt 0 view .LVU135
 594 0004 F8EEE77A 		vcvt.f32.s32	s15, s15
 595              		.loc 1 420 24 view .LVU136
 596 0008 9FED040A 		vldr.32	s0, .L35
 597 000c 67EE807A 		vmul.f32	s15, s15, s0
 421:Drivers/lsm303agr/Src/lsm303agr_reg.c **** }
 598              		.loc 1 421 1 view .LVU137
 599 0010 9FED030A 		vldr.32	s0, .L35+4
 600 0014 27EE800A 		vmul.f32	s0, s15, s0
 601 0018 7047     		bx	lr
 602              	.L36:
 603 001a 00BF     		.align	2
 604              	.L35:
 605 001c 0000803C 		.word	1015021568
 606 0020 9A997940 		.word	1081711002
 607              		.cfi_endproc
 608              	.LFE145:
 610              		.section	.text.lsm303agr_from_fs_4g_nm_to_mg,"ax",%progbits
 611              		.align	1
 612              		.global	lsm303agr_from_fs_4g_nm_to_mg
 613              		.syntax unified
 614              		.thumb
 615              		.thumb_func
 617              	lsm303agr_from_fs_4g_nm_to_mg:
 618              	.LVL42:
 619              	.LFB146:
 422:Drivers/lsm303agr/Src/lsm303agr_reg.c **** 
 423:Drivers/lsm303agr/Src/lsm303agr_reg.c **** float_t lsm303agr_from_fs_4g_nm_to_mg(int16_t lsb)
ARM GAS  C:\Users\SF\AppData\Local\Temp\ccFGOSN0.s 			page 19


 424:Drivers/lsm303agr/Src/lsm303agr_reg.c **** {
 620              		.loc 1 424 1 is_stmt 1 view -0
 621              		.cfi_startproc
 622              		@ args = 0, pretend = 0, frame = 0
 623              		@ frame_needed = 0, uses_anonymous_args = 0
 624              		@ link register save eliminated.
 625              		.loc 1 424 1 is_stmt 0 view .LVU139
 626 0000 07EE900A 		vmov	s15, r0	@ int
 425:Drivers/lsm303agr/Src/lsm303agr_reg.c ****   return ((float_t)lsb / 64.0f) * 7.82f;
 627              		.loc 1 425 3 is_stmt 1 view .LVU140
 628              		.loc 1 425 11 is_stmt 0 view .LVU141
 629 0004 F8EEE77A 		vcvt.f32.s32	s15, s15
 630              		.loc 1 425 24 view .LVU142
 631 0008 9FED040A 		vldr.32	s0, .L38
 632 000c 67EE807A 		vmul.f32	s15, s15, s0
 426:Drivers/lsm303agr/Src/lsm303agr_reg.c **** }
 633              		.loc 1 426 1 view .LVU143
 634 0010 9FED030A 		vldr.32	s0, .L38+4
 635 0014 27EE800A 		vmul.f32	s0, s15, s0
 636 0018 7047     		bx	lr
 637              	.L39:
 638 001a 00BF     		.align	2
 639              	.L38:
 640 001c 0000803C 		.word	1015021568
 641 0020 713DFA40 		.word	1090141553
 642              		.cfi_endproc
 643              	.LFE146:
 645              		.section	.text.lsm303agr_from_fs_8g_nm_to_mg,"ax",%progbits
 646              		.align	1
 647              		.global	lsm303agr_from_fs_8g_nm_to_mg
 648              		.syntax unified
 649              		.thumb
 650              		.thumb_func
 652              	lsm303agr_from_fs_8g_nm_to_mg:
 653              	.LVL43:
 654              	.LFB147:
 427:Drivers/lsm303agr/Src/lsm303agr_reg.c **** 
 428:Drivers/lsm303agr/Src/lsm303agr_reg.c **** float_t lsm303agr_from_fs_8g_nm_to_mg(int16_t lsb)
 429:Drivers/lsm303agr/Src/lsm303agr_reg.c **** {
 655              		.loc 1 429 1 is_stmt 1 view -0
 656              		.cfi_startproc
 657              		@ args = 0, pretend = 0, frame = 0
 658              		@ frame_needed = 0, uses_anonymous_args = 0
 659              		@ link register save eliminated.
 660              		.loc 1 429 1 is_stmt 0 view .LVU145
 661 0000 07EE900A 		vmov	s15, r0	@ int
 430:Drivers/lsm303agr/Src/lsm303agr_reg.c ****   return ((float_t)lsb / 64.0f) * 15.63f;
 662              		.loc 1 430 3 is_stmt 1 view .LVU146
 663              		.loc 1 430 11 is_stmt 0 view .LVU147
 664 0004 F8EEE77A 		vcvt.f32.s32	s15, s15
 665              		.loc 1 430 24 view .LVU148
 666 0008 9FED040A 		vldr.32	s0, .L41
 667 000c 67EE807A 		vmul.f32	s15, s15, s0
 431:Drivers/lsm303agr/Src/lsm303agr_reg.c **** }
 668              		.loc 1 431 1 view .LVU149
 669 0010 9FED030A 		vldr.32	s0, .L41+4
 670 0014 27EE800A 		vmul.f32	s0, s15, s0
ARM GAS  C:\Users\SF\AppData\Local\Temp\ccFGOSN0.s 			page 20


 671 0018 7047     		bx	lr
 672              	.L42:
 673 001a 00BF     		.align	2
 674              	.L41:
 675 001c 0000803C 		.word	1015021568
 676 0020 7B147A41 		.word	1098519675
 677              		.cfi_endproc
 678              	.LFE147:
 680              		.section	.text.lsm303agr_from_fs_16g_nm_to_mg,"ax",%progbits
 681              		.align	1
 682              		.global	lsm303agr_from_fs_16g_nm_to_mg
 683              		.syntax unified
 684              		.thumb
 685              		.thumb_func
 687              	lsm303agr_from_fs_16g_nm_to_mg:
 688              	.LVL44:
 689              	.LFB148:
 432:Drivers/lsm303agr/Src/lsm303agr_reg.c **** 
 433:Drivers/lsm303agr/Src/lsm303agr_reg.c **** float_t lsm303agr_from_fs_16g_nm_to_mg(int16_t lsb)
 434:Drivers/lsm303agr/Src/lsm303agr_reg.c **** {
 690              		.loc 1 434 1 is_stmt 1 view -0
 691              		.cfi_startproc
 692              		@ args = 0, pretend = 0, frame = 0
 693              		@ frame_needed = 0, uses_anonymous_args = 0
 694              		@ link register save eliminated.
 695              		.loc 1 434 1 is_stmt 0 view .LVU151
 696 0000 07EE900A 		vmov	s15, r0	@ int
 435:Drivers/lsm303agr/Src/lsm303agr_reg.c ****   return ((float_t)lsb / 64.0f) * 46.9f;
 697              		.loc 1 435 3 is_stmt 1 view .LVU152
 698              		.loc 1 435 11 is_stmt 0 view .LVU153
 699 0004 F8EEE77A 		vcvt.f32.s32	s15, s15
 700              		.loc 1 435 24 view .LVU154
 701 0008 9FED040A 		vldr.32	s0, .L44
 702 000c 67EE807A 		vmul.f32	s15, s15, s0
 436:Drivers/lsm303agr/Src/lsm303agr_reg.c **** }
 703              		.loc 1 436 1 view .LVU155
 704 0010 9FED030A 		vldr.32	s0, .L44+4
 705 0014 27EE800A 		vmul.f32	s0, s15, s0
 706 0018 7047     		bx	lr
 707              	.L45:
 708 001a 00BF     		.align	2
 709              	.L44:
 710 001c 0000803C 		.word	1015021568
 711 0020 9A993B42 		.word	1111202202
 712              		.cfi_endproc
 713              	.LFE148:
 715              		.section	.text.lsm303agr_from_lsb_nm_to_celsius,"ax",%progbits
 716              		.align	1
 717              		.global	lsm303agr_from_lsb_nm_to_celsius
 718              		.syntax unified
 719              		.thumb
 720              		.thumb_func
 722              	lsm303agr_from_lsb_nm_to_celsius:
 723              	.LVL45:
 724              	.LFB149:
 437:Drivers/lsm303agr/Src/lsm303agr_reg.c **** 
 438:Drivers/lsm303agr/Src/lsm303agr_reg.c **** float_t lsm303agr_from_lsb_nm_to_celsius(int16_t lsb)
ARM GAS  C:\Users\SF\AppData\Local\Temp\ccFGOSN0.s 			page 21


 439:Drivers/lsm303agr/Src/lsm303agr_reg.c **** {
 725              		.loc 1 439 1 is_stmt 1 view -0
 726              		.cfi_startproc
 727              		@ args = 0, pretend = 0, frame = 0
 728              		@ frame_needed = 0, uses_anonymous_args = 0
 729              		@ link register save eliminated.
 730              		.loc 1 439 1 is_stmt 0 view .LVU157
 731 0000 07EE900A 		vmov	s15, r0	@ int
 440:Drivers/lsm303agr/Src/lsm303agr_reg.c ****   return (((float_t)lsb / 64.0f) / 4.0f) + 25.0f;
 732              		.loc 1 440 3 is_stmt 1 view .LVU158
 733              		.loc 1 440 12 is_stmt 0 view .LVU159
 734 0004 F8EEE77A 		vcvt.f32.s32	s15, s15
 735              		.loc 1 440 25 view .LVU160
 736 0008 9FED060A 		vldr.32	s0, .L47
 737 000c 67EE807A 		vmul.f32	s15, s15, s0
 738              		.loc 1 440 34 view .LVU161
 739 0010 B5EE000A 		vmov.f32	s0, #2.5e-1
 740 0014 67EE807A 		vmul.f32	s15, s15, s0
 441:Drivers/lsm303agr/Src/lsm303agr_reg.c **** }
 741              		.loc 1 441 1 view .LVU162
 742 0018 B3EE090A 		vmov.f32	s0, #2.5e+1
 743 001c 37EE800A 		vadd.f32	s0, s15, s0
 744 0020 7047     		bx	lr
 745              	.L48:
 746 0022 00BF     		.align	2
 747              	.L47:
 748 0024 0000803C 		.word	1015021568
 749              		.cfi_endproc
 750              	.LFE149:
 752              		.section	.text.lsm303agr_from_fs_2g_lp_to_mg,"ax",%progbits
 753              		.align	1
 754              		.global	lsm303agr_from_fs_2g_lp_to_mg
 755              		.syntax unified
 756              		.thumb
 757              		.thumb_func
 759              	lsm303agr_from_fs_2g_lp_to_mg:
 760              	.LVL46:
 761              	.LFB150:
 442:Drivers/lsm303agr/Src/lsm303agr_reg.c **** 
 443:Drivers/lsm303agr/Src/lsm303agr_reg.c **** float_t lsm303agr_from_fs_2g_lp_to_mg(int16_t lsb)
 444:Drivers/lsm303agr/Src/lsm303agr_reg.c **** {
 762              		.loc 1 444 1 is_stmt 1 view -0
 763              		.cfi_startproc
 764              		@ args = 0, pretend = 0, frame = 0
 765              		@ frame_needed = 0, uses_anonymous_args = 0
 766              		@ link register save eliminated.
 767              		.loc 1 444 1 is_stmt 0 view .LVU164
 768 0000 07EE900A 		vmov	s15, r0	@ int
 445:Drivers/lsm303agr/Src/lsm303agr_reg.c ****   return ((float_t)lsb / 256.0f) * 15.63f;
 769              		.loc 1 445 3 is_stmt 1 view .LVU165
 770              		.loc 1 445 11 is_stmt 0 view .LVU166
 771 0004 F8EEE77A 		vcvt.f32.s32	s15, s15
 772              		.loc 1 445 24 view .LVU167
 773 0008 9FED040A 		vldr.32	s0, .L50
 774 000c 67EE807A 		vmul.f32	s15, s15, s0
 446:Drivers/lsm303agr/Src/lsm303agr_reg.c **** }
 775              		.loc 1 446 1 view .LVU168
ARM GAS  C:\Users\SF\AppData\Local\Temp\ccFGOSN0.s 			page 22


 776 0010 9FED030A 		vldr.32	s0, .L50+4
 777 0014 27EE800A 		vmul.f32	s0, s15, s0
 778 0018 7047     		bx	lr
 779              	.L51:
 780 001a 00BF     		.align	2
 781              	.L50:
 782 001c 0000803B 		.word	998244352
 783 0020 7B147A41 		.word	1098519675
 784              		.cfi_endproc
 785              	.LFE150:
 787              		.section	.text.lsm303agr_from_fs_4g_lp_to_mg,"ax",%progbits
 788              		.align	1
 789              		.global	lsm303agr_from_fs_4g_lp_to_mg
 790              		.syntax unified
 791              		.thumb
 792              		.thumb_func
 794              	lsm303agr_from_fs_4g_lp_to_mg:
 795              	.LVL47:
 796              	.LFB151:
 447:Drivers/lsm303agr/Src/lsm303agr_reg.c **** 
 448:Drivers/lsm303agr/Src/lsm303agr_reg.c **** float_t lsm303agr_from_fs_4g_lp_to_mg(int16_t lsb)
 449:Drivers/lsm303agr/Src/lsm303agr_reg.c **** {
 797              		.loc 1 449 1 is_stmt 1 view -0
 798              		.cfi_startproc
 799              		@ args = 0, pretend = 0, frame = 0
 800              		@ frame_needed = 0, uses_anonymous_args = 0
 801              		@ link register save eliminated.
 802              		.loc 1 449 1 is_stmt 0 view .LVU170
 803 0000 07EE900A 		vmov	s15, r0	@ int
 450:Drivers/lsm303agr/Src/lsm303agr_reg.c ****   return ((float_t)lsb / 256.0f) * 31.26f;
 804              		.loc 1 450 3 is_stmt 1 view .LVU171
 805              		.loc 1 450 11 is_stmt 0 view .LVU172
 806 0004 F8EEE77A 		vcvt.f32.s32	s15, s15
 807              		.loc 1 450 24 view .LVU173
 808 0008 9FED040A 		vldr.32	s0, .L53
 809 000c 67EE807A 		vmul.f32	s15, s15, s0
 451:Drivers/lsm303agr/Src/lsm303agr_reg.c **** }
 810              		.loc 1 451 1 view .LVU174
 811 0010 9FED030A 		vldr.32	s0, .L53+4
 812 0014 27EE800A 		vmul.f32	s0, s15, s0
 813 0018 7047     		bx	lr
 814              	.L54:
 815 001a 00BF     		.align	2
 816              	.L53:
 817 001c 0000803B 		.word	998244352
 818 0020 7B14FA41 		.word	1106908283
 819              		.cfi_endproc
 820              	.LFE151:
 822              		.section	.text.lsm303agr_from_fs_8g_lp_to_mg,"ax",%progbits
 823              		.align	1
 824              		.global	lsm303agr_from_fs_8g_lp_to_mg
 825              		.syntax unified
 826              		.thumb
 827              		.thumb_func
 829              	lsm303agr_from_fs_8g_lp_to_mg:
 830              	.LVL48:
 831              	.LFB152:
ARM GAS  C:\Users\SF\AppData\Local\Temp\ccFGOSN0.s 			page 23


 452:Drivers/lsm303agr/Src/lsm303agr_reg.c **** 
 453:Drivers/lsm303agr/Src/lsm303agr_reg.c **** float_t lsm303agr_from_fs_8g_lp_to_mg(int16_t lsb)
 454:Drivers/lsm303agr/Src/lsm303agr_reg.c **** {
 832              		.loc 1 454 1 is_stmt 1 view -0
 833              		.cfi_startproc
 834              		@ args = 0, pretend = 0, frame = 0
 835              		@ frame_needed = 0, uses_anonymous_args = 0
 836              		@ link register save eliminated.
 837              		.loc 1 454 1 is_stmt 0 view .LVU176
 838 0000 07EE900A 		vmov	s15, r0	@ int
 455:Drivers/lsm303agr/Src/lsm303agr_reg.c ****   return ((float_t)lsb / 256.0f) * 62.52f;
 839              		.loc 1 455 3 is_stmt 1 view .LVU177
 840              		.loc 1 455 11 is_stmt 0 view .LVU178
 841 0004 F8EEE77A 		vcvt.f32.s32	s15, s15
 842              		.loc 1 455 24 view .LVU179
 843 0008 9FED040A 		vldr.32	s0, .L56
 844 000c 67EE807A 		vmul.f32	s15, s15, s0
 456:Drivers/lsm303agr/Src/lsm303agr_reg.c **** }
 845              		.loc 1 456 1 view .LVU180
 846 0010 9FED030A 		vldr.32	s0, .L56+4
 847 0014 27EE800A 		vmul.f32	s0, s15, s0
 848 0018 7047     		bx	lr
 849              	.L57:
 850 001a 00BF     		.align	2
 851              	.L56:
 852 001c 0000803B 		.word	998244352
 853 0020 7B147A42 		.word	1115296891
 854              		.cfi_endproc
 855              	.LFE152:
 857              		.section	.text.lsm303agr_from_fs_16g_lp_to_mg,"ax",%progbits
 858              		.align	1
 859              		.global	lsm303agr_from_fs_16g_lp_to_mg
 860              		.syntax unified
 861              		.thumb
 862              		.thumb_func
 864              	lsm303agr_from_fs_16g_lp_to_mg:
 865              	.LVL49:
 866              	.LFB153:
 457:Drivers/lsm303agr/Src/lsm303agr_reg.c **** 
 458:Drivers/lsm303agr/Src/lsm303agr_reg.c **** float_t lsm303agr_from_fs_16g_lp_to_mg(int16_t lsb)
 459:Drivers/lsm303agr/Src/lsm303agr_reg.c **** {
 867              		.loc 1 459 1 is_stmt 1 view -0
 868              		.cfi_startproc
 869              		@ args = 0, pretend = 0, frame = 0
 870              		@ frame_needed = 0, uses_anonymous_args = 0
 871              		@ link register save eliminated.
 872              		.loc 1 459 1 is_stmt 0 view .LVU182
 873 0000 07EE900A 		vmov	s15, r0	@ int
 460:Drivers/lsm303agr/Src/lsm303agr_reg.c ****   return ((float_t)lsb / 256.0f) * 187.58f;
 874              		.loc 1 460 3 is_stmt 1 view .LVU183
 875              		.loc 1 460 11 is_stmt 0 view .LVU184
 876 0004 F8EEE77A 		vcvt.f32.s32	s15, s15
 877              		.loc 1 460 24 view .LVU185
 878 0008 9FED040A 		vldr.32	s0, .L59
 879 000c 67EE807A 		vmul.f32	s15, s15, s0
 461:Drivers/lsm303agr/Src/lsm303agr_reg.c **** }
 880              		.loc 1 461 1 view .LVU186
ARM GAS  C:\Users\SF\AppData\Local\Temp\ccFGOSN0.s 			page 24


 881 0010 9FED030A 		vldr.32	s0, .L59+4
 882 0014 27EE800A 		vmul.f32	s0, s15, s0
 883 0018 7047     		bx	lr
 884              	.L60:
 885 001a 00BF     		.align	2
 886              	.L59:
 887 001c 0000803B 		.word	998244352
 888 0020 7B943B43 		.word	1127978107
 889              		.cfi_endproc
 890              	.LFE153:
 892              		.section	.text.lsm303agr_from_lsb_lp_to_celsius,"ax",%progbits
 893              		.align	1
 894              		.global	lsm303agr_from_lsb_lp_to_celsius
 895              		.syntax unified
 896              		.thumb
 897              		.thumb_func
 899              	lsm303agr_from_lsb_lp_to_celsius:
 900              	.LVL50:
 901              	.LFB154:
 462:Drivers/lsm303agr/Src/lsm303agr_reg.c **** 
 463:Drivers/lsm303agr/Src/lsm303agr_reg.c **** float_t lsm303agr_from_lsb_lp_to_celsius(int16_t lsb)
 464:Drivers/lsm303agr/Src/lsm303agr_reg.c **** {
 902              		.loc 1 464 1 is_stmt 1 view -0
 903              		.cfi_startproc
 904              		@ args = 0, pretend = 0, frame = 0
 905              		@ frame_needed = 0, uses_anonymous_args = 0
 906              		@ link register save eliminated.
 907              		.loc 1 464 1 is_stmt 0 view .LVU188
 908 0000 07EE900A 		vmov	s15, r0	@ int
 465:Drivers/lsm303agr/Src/lsm303agr_reg.c ****   return (((float_t)lsb / 256.0f) * 1.0f) + 25.0f;
 909              		.loc 1 465 3 is_stmt 1 view .LVU189
 910              		.loc 1 465 12 is_stmt 0 view .LVU190
 911 0004 F8EEE77A 		vcvt.f32.s32	s15, s15
 912              		.loc 1 465 35 view .LVU191
 913 0008 9FED040A 		vldr.32	s0, .L62
 914 000c 67EE807A 		vmul.f32	s15, s15, s0
 466:Drivers/lsm303agr/Src/lsm303agr_reg.c **** }
 915              		.loc 1 466 1 view .LVU192
 916 0010 B3EE090A 		vmov.f32	s0, #2.5e+1
 917 0014 37EE800A 		vadd.f32	s0, s15, s0
 918 0018 7047     		bx	lr
 919              	.L63:
 920 001a 00BF     		.align	2
 921              	.L62:
 922 001c 0000803B 		.word	998244352
 923              		.cfi_endproc
 924              	.LFE154:
 926              		.section	.text.lsm303agr_from_lsb_to_mgauss,"ax",%progbits
 927              		.align	1
 928              		.global	lsm303agr_from_lsb_to_mgauss
 929              		.syntax unified
 930              		.thumb
 931              		.thumb_func
 933              	lsm303agr_from_lsb_to_mgauss:
 934              	.LVL51:
 935              	.LFB155:
 467:Drivers/lsm303agr/Src/lsm303agr_reg.c **** 
ARM GAS  C:\Users\SF\AppData\Local\Temp\ccFGOSN0.s 			page 25


 468:Drivers/lsm303agr/Src/lsm303agr_reg.c **** float_t lsm303agr_from_lsb_to_mgauss(int16_t lsb)
 469:Drivers/lsm303agr/Src/lsm303agr_reg.c **** {
 936              		.loc 1 469 1 is_stmt 1 view -0
 937              		.cfi_startproc
 938              		@ args = 0, pretend = 0, frame = 0
 939              		@ frame_needed = 0, uses_anonymous_args = 0
 940              		@ link register save eliminated.
 941              		.loc 1 469 1 is_stmt 0 view .LVU194
 942 0000 07EE900A 		vmov	s15, r0	@ int
 470:Drivers/lsm303agr/Src/lsm303agr_reg.c ****   return (float_t)lsb * 1.5f;
 943              		.loc 1 470 3 is_stmt 1 view .LVU195
 944              		.loc 1 470 10 is_stmt 0 view .LVU196
 945 0004 F8EEE77A 		vcvt.f32.s32	s15, s15
 471:Drivers/lsm303agr/Src/lsm303agr_reg.c **** }
 946              		.loc 1 471 1 view .LVU197
 947 0008 B7EE080A 		vmov.f32	s0, #1.5e+0
 948 000c 27EE800A 		vmul.f32	s0, s15, s0
 949 0010 7047     		bx	lr
 950              		.cfi_endproc
 951              	.LFE155:
 953              		.section	.text.lsm303agr_temp_status_reg_get,"ax",%progbits
 954              		.align	1
 955              		.global	lsm303agr_temp_status_reg_get
 956              		.syntax unified
 957              		.thumb
 958              		.thumb_func
 960              	lsm303agr_temp_status_reg_get:
 961              	.LVL52:
 962              	.LFB156:
 472:Drivers/lsm303agr/Src/lsm303agr_reg.c **** 
 473:Drivers/lsm303agr/Src/lsm303agr_reg.c **** /**
 474:Drivers/lsm303agr/Src/lsm303agr_reg.c ****   * @}
 475:Drivers/lsm303agr/Src/lsm303agr_reg.c ****   *
 476:Drivers/lsm303agr/Src/lsm303agr_reg.c ****   */
 477:Drivers/lsm303agr/Src/lsm303agr_reg.c **** 
 478:Drivers/lsm303agr/Src/lsm303agr_reg.c **** /**
 479:Drivers/lsm303agr/Src/lsm303agr_reg.c ****   * @defgroup   LSM303AGR_Data_generation
 480:Drivers/lsm303agr/Src/lsm303agr_reg.c ****   * @brief      This section group all the functions concerning data generation
 481:Drivers/lsm303agr/Src/lsm303agr_reg.c ****   * @{
 482:Drivers/lsm303agr/Src/lsm303agr_reg.c ****   *
 483:Drivers/lsm303agr/Src/lsm303agr_reg.c ****   */
 484:Drivers/lsm303agr/Src/lsm303agr_reg.c **** 
 485:Drivers/lsm303agr/Src/lsm303agr_reg.c **** /**
 486:Drivers/lsm303agr/Src/lsm303agr_reg.c ****   * @brief  Temperature status register.[get]
 487:Drivers/lsm303agr/Src/lsm303agr_reg.c ****   *
 488:Drivers/lsm303agr/Src/lsm303agr_reg.c ****   * @param  ctx    Read / write interface definitions.(ptr)
 489:Drivers/lsm303agr/Src/lsm303agr_reg.c ****   * @param  buff   Buffer that stores the data read.(ptr)
 490:Drivers/lsm303agr/Src/lsm303agr_reg.c ****   * @retval        Interface status (MANDATORY: return 0 -> no Error).
 491:Drivers/lsm303agr/Src/lsm303agr_reg.c ****   *
 492:Drivers/lsm303agr/Src/lsm303agr_reg.c ****   */
 493:Drivers/lsm303agr/Src/lsm303agr_reg.c **** int32_t lsm303agr_temp_status_reg_get(stmdev_ctx_t *ctx,
 494:Drivers/lsm303agr/Src/lsm303agr_reg.c ****                                       uint8_t *buff)
 495:Drivers/lsm303agr/Src/lsm303agr_reg.c **** {
 963              		.loc 1 495 1 is_stmt 1 view -0
 964              		.cfi_startproc
 965              		@ args = 0, pretend = 0, frame = 0
 966              		@ frame_needed = 0, uses_anonymous_args = 0
ARM GAS  C:\Users\SF\AppData\Local\Temp\ccFGOSN0.s 			page 26


 967              		.loc 1 495 1 is_stmt 0 view .LVU199
 968 0000 08B5     		push	{r3, lr}
 969              	.LCFI11:
 970              		.cfi_def_cfa_offset 8
 971              		.cfi_offset 3, -8
 972              		.cfi_offset 14, -4
 973 0002 0A46     		mov	r2, r1
 496:Drivers/lsm303agr/Src/lsm303agr_reg.c ****   int32_t ret;
 974              		.loc 1 496 3 is_stmt 1 view .LVU200
 497:Drivers/lsm303agr/Src/lsm303agr_reg.c **** 
 498:Drivers/lsm303agr/Src/lsm303agr_reg.c ****   ret = lsm303agr_read_reg(ctx, LSM303AGR_STATUS_REG_AUX_A, buff, 1);
 975              		.loc 1 498 3 view .LVU201
 976              		.loc 1 498 9 is_stmt 0 view .LVU202
 977 0004 0123     		movs	r3, #1
 978 0006 0721     		movs	r1, #7
 979              	.LVL53:
 980              		.loc 1 498 9 view .LVU203
 981 0008 FFF7FEFF 		bl	lsm303agr_read_reg
 982              	.LVL54:
 499:Drivers/lsm303agr/Src/lsm303agr_reg.c **** 
 500:Drivers/lsm303agr/Src/lsm303agr_reg.c ****   return ret;
 983              		.loc 1 500 3 is_stmt 1 view .LVU204
 501:Drivers/lsm303agr/Src/lsm303agr_reg.c **** }
 984              		.loc 1 501 1 is_stmt 0 view .LVU205
 985 000c 08BD     		pop	{r3, pc}
 986              		.cfi_endproc
 987              	.LFE156:
 989              		.section	.text.lsm303agr_temp_data_ready_get,"ax",%progbits
 990              		.align	1
 991              		.global	lsm303agr_temp_data_ready_get
 992              		.syntax unified
 993              		.thumb
 994              		.thumb_func
 996              	lsm303agr_temp_data_ready_get:
 997              	.LVL55:
 998              	.LFB157:
 502:Drivers/lsm303agr/Src/lsm303agr_reg.c **** 
 503:Drivers/lsm303agr/Src/lsm303agr_reg.c **** /**
 504:Drivers/lsm303agr/Src/lsm303agr_reg.c ****   * @brief  Temperature data available.[get]
 505:Drivers/lsm303agr/Src/lsm303agr_reg.c ****   *
 506:Drivers/lsm303agr/Src/lsm303agr_reg.c ****   * @param  ctx    Read / write interface definitions.(ptr)
 507:Drivers/lsm303agr/Src/lsm303agr_reg.c ****   * @param  val    Get the values of tda in reg STATUS_REG_AUX_A.(ptr)
 508:Drivers/lsm303agr/Src/lsm303agr_reg.c ****   * @retval        Interface status (MANDATORY: return 0 -> no Error).
 509:Drivers/lsm303agr/Src/lsm303agr_reg.c ****   *
 510:Drivers/lsm303agr/Src/lsm303agr_reg.c ****   */
 511:Drivers/lsm303agr/Src/lsm303agr_reg.c **** int32_t lsm303agr_temp_data_ready_get(stmdev_ctx_t *ctx, uint8_t *val)
 512:Drivers/lsm303agr/Src/lsm303agr_reg.c **** {
 999              		.loc 1 512 1 is_stmt 1 view -0
 1000              		.cfi_startproc
 1001              		@ args = 0, pretend = 0, frame = 8
 1002              		@ frame_needed = 0, uses_anonymous_args = 0
 1003              		.loc 1 512 1 is_stmt 0 view .LVU207
 1004 0000 10B5     		push	{r4, lr}
 1005              	.LCFI12:
 1006              		.cfi_def_cfa_offset 8
 1007              		.cfi_offset 4, -8
 1008              		.cfi_offset 14, -4
ARM GAS  C:\Users\SF\AppData\Local\Temp\ccFGOSN0.s 			page 27


 1009 0002 82B0     		sub	sp, sp, #8
 1010              	.LCFI13:
 1011              		.cfi_def_cfa_offset 16
 1012 0004 0C46     		mov	r4, r1
 513:Drivers/lsm303agr/Src/lsm303agr_reg.c ****   lsm303agr_status_reg_aux_a_t status_reg_aux_a;
 1013              		.loc 1 513 3 is_stmt 1 view .LVU208
 514:Drivers/lsm303agr/Src/lsm303agr_reg.c ****   int32_t ret;
 1014              		.loc 1 514 3 view .LVU209
 515:Drivers/lsm303agr/Src/lsm303agr_reg.c **** 
 516:Drivers/lsm303agr/Src/lsm303agr_reg.c ****   ret = lsm303agr_read_reg(ctx, LSM303AGR_STATUS_REG_AUX_A,
 1015              		.loc 1 516 3 view .LVU210
 1016              		.loc 1 516 9 is_stmt 0 view .LVU211
 1017 0006 0123     		movs	r3, #1
 1018 0008 01AA     		add	r2, sp, #4
 1019 000a 0721     		movs	r1, #7
 1020              	.LVL56:
 1021              		.loc 1 516 9 view .LVU212
 1022 000c FFF7FEFF 		bl	lsm303agr_read_reg
 1023              	.LVL57:
 517:Drivers/lsm303agr/Src/lsm303agr_reg.c ****                            (uint8_t *)&status_reg_aux_a, 1);
 518:Drivers/lsm303agr/Src/lsm303agr_reg.c ****   *val = status_reg_aux_a.tda;
 1024              		.loc 1 518 3 is_stmt 1 view .LVU213
 1025              		.loc 1 518 26 is_stmt 0 view .LVU214
 1026 0010 9DF80430 		ldrb	r3, [sp, #4]	@ zero_extendqisi2
 1027 0014 C3F38003 		ubfx	r3, r3, #2, #1
 1028              		.loc 1 518 8 view .LVU215
 1029 0018 2370     		strb	r3, [r4]
 519:Drivers/lsm303agr/Src/lsm303agr_reg.c **** 
 520:Drivers/lsm303agr/Src/lsm303agr_reg.c ****   return ret;
 1030              		.loc 1 520 3 is_stmt 1 view .LVU216
 521:Drivers/lsm303agr/Src/lsm303agr_reg.c **** }
 1031              		.loc 1 521 1 is_stmt 0 view .LVU217
 1032 001a 02B0     		add	sp, sp, #8
 1033              	.LCFI14:
 1034              		.cfi_def_cfa_offset 8
 1035              		@ sp needed
 1036 001c 10BD     		pop	{r4, pc}
 1037              		.loc 1 521 1 view .LVU218
 1038              		.cfi_endproc
 1039              	.LFE157:
 1041              		.section	.text.lsm303agr_temp_data_ovr_get,"ax",%progbits
 1042              		.align	1
 1043              		.global	lsm303agr_temp_data_ovr_get
 1044              		.syntax unified
 1045              		.thumb
 1046              		.thumb_func
 1048              	lsm303agr_temp_data_ovr_get:
 1049              	.LVL58:
 1050              	.LFB158:
 522:Drivers/lsm303agr/Src/lsm303agr_reg.c **** 
 523:Drivers/lsm303agr/Src/lsm303agr_reg.c **** /**
 524:Drivers/lsm303agr/Src/lsm303agr_reg.c ****   * @brief  Temperature data overrun.[get]
 525:Drivers/lsm303agr/Src/lsm303agr_reg.c ****   *
 526:Drivers/lsm303agr/Src/lsm303agr_reg.c ****   * @param  ctx    Read / write interface definitions.(ptr)
 527:Drivers/lsm303agr/Src/lsm303agr_reg.c ****   * @param  val    Get the values of tor in reg STATUS_REG_AUX_A.(ptr)
 528:Drivers/lsm303agr/Src/lsm303agr_reg.c ****   * @retval        Interface status (MANDATORY: return 0 -> no Error).
 529:Drivers/lsm303agr/Src/lsm303agr_reg.c ****   *
ARM GAS  C:\Users\SF\AppData\Local\Temp\ccFGOSN0.s 			page 28


 530:Drivers/lsm303agr/Src/lsm303agr_reg.c ****   */
 531:Drivers/lsm303agr/Src/lsm303agr_reg.c **** int32_t lsm303agr_temp_data_ovr_get(stmdev_ctx_t *ctx, uint8_t *val)
 532:Drivers/lsm303agr/Src/lsm303agr_reg.c **** {
 1051              		.loc 1 532 1 is_stmt 1 view -0
 1052              		.cfi_startproc
 1053              		@ args = 0, pretend = 0, frame = 8
 1054              		@ frame_needed = 0, uses_anonymous_args = 0
 1055              		.loc 1 532 1 is_stmt 0 view .LVU220
 1056 0000 10B5     		push	{r4, lr}
 1057              	.LCFI15:
 1058              		.cfi_def_cfa_offset 8
 1059              		.cfi_offset 4, -8
 1060              		.cfi_offset 14, -4
 1061 0002 82B0     		sub	sp, sp, #8
 1062              	.LCFI16:
 1063              		.cfi_def_cfa_offset 16
 1064 0004 0C46     		mov	r4, r1
 533:Drivers/lsm303agr/Src/lsm303agr_reg.c ****   lsm303agr_status_reg_aux_a_t status_reg_aux_a;
 1065              		.loc 1 533 3 is_stmt 1 view .LVU221
 534:Drivers/lsm303agr/Src/lsm303agr_reg.c ****   int32_t ret;
 1066              		.loc 1 534 3 view .LVU222
 535:Drivers/lsm303agr/Src/lsm303agr_reg.c **** 
 536:Drivers/lsm303agr/Src/lsm303agr_reg.c ****   ret = lsm303agr_read_reg(ctx, LSM303AGR_STATUS_REG_AUX_A,
 1067              		.loc 1 536 3 view .LVU223
 1068              		.loc 1 536 9 is_stmt 0 view .LVU224
 1069 0006 0123     		movs	r3, #1
 1070 0008 01AA     		add	r2, sp, #4
 1071 000a 0721     		movs	r1, #7
 1072              	.LVL59:
 1073              		.loc 1 536 9 view .LVU225
 1074 000c FFF7FEFF 		bl	lsm303agr_read_reg
 1075              	.LVL60:
 537:Drivers/lsm303agr/Src/lsm303agr_reg.c ****                            (uint8_t *)&status_reg_aux_a, 1);
 538:Drivers/lsm303agr/Src/lsm303agr_reg.c ****   *val = status_reg_aux_a.tor;
 1076              		.loc 1 538 3 is_stmt 1 view .LVU226
 1077              		.loc 1 538 26 is_stmt 0 view .LVU227
 1078 0010 9DF80430 		ldrb	r3, [sp, #4]	@ zero_extendqisi2
 1079 0014 C3F38013 		ubfx	r3, r3, #6, #1
 1080              		.loc 1 538 8 view .LVU228
 1081 0018 2370     		strb	r3, [r4]
 539:Drivers/lsm303agr/Src/lsm303agr_reg.c **** 
 540:Drivers/lsm303agr/Src/lsm303agr_reg.c ****   return ret;
 1082              		.loc 1 540 3 is_stmt 1 view .LVU229
 541:Drivers/lsm303agr/Src/lsm303agr_reg.c **** }
 1083              		.loc 1 541 1 is_stmt 0 view .LVU230
 1084 001a 02B0     		add	sp, sp, #8
 1085              	.LCFI17:
 1086              		.cfi_def_cfa_offset 8
 1087              		@ sp needed
 1088 001c 10BD     		pop	{r4, pc}
 1089              		.loc 1 541 1 view .LVU231
 1090              		.cfi_endproc
 1091              	.LFE158:
 1093              		.section	.text.lsm303agr_temperature_raw_get,"ax",%progbits
 1094              		.align	1
 1095              		.global	lsm303agr_temperature_raw_get
 1096              		.syntax unified
ARM GAS  C:\Users\SF\AppData\Local\Temp\ccFGOSN0.s 			page 29


 1097              		.thumb
 1098              		.thumb_func
 1100              	lsm303agr_temperature_raw_get:
 1101              	.LVL61:
 1102              	.LFB159:
 542:Drivers/lsm303agr/Src/lsm303agr_reg.c **** 
 543:Drivers/lsm303agr/Src/lsm303agr_reg.c **** /**
 544:Drivers/lsm303agr/Src/lsm303agr_reg.c ****   * @brief  Temperature output value.[get]
 545:Drivers/lsm303agr/Src/lsm303agr_reg.c ****   *
 546:Drivers/lsm303agr/Src/lsm303agr_reg.c ****   * @param  ctx    Read / write interface definitions.(ptr)
 547:Drivers/lsm303agr/Src/lsm303agr_reg.c ****   * @param  buff   Buffer that stores the data read.(ptr)
 548:Drivers/lsm303agr/Src/lsm303agr_reg.c ****   * @retval        Interface status (MANDATORY: return 0 -> no Error).
 549:Drivers/lsm303agr/Src/lsm303agr_reg.c ****   *
 550:Drivers/lsm303agr/Src/lsm303agr_reg.c ****   */
 551:Drivers/lsm303agr/Src/lsm303agr_reg.c **** int32_t lsm303agr_temperature_raw_get(stmdev_ctx_t *ctx, int16_t *val)
 552:Drivers/lsm303agr/Src/lsm303agr_reg.c **** {
 1103              		.loc 1 552 1 is_stmt 1 view -0
 1104              		.cfi_startproc
 1105              		@ args = 0, pretend = 0, frame = 8
 1106              		@ frame_needed = 0, uses_anonymous_args = 0
 1107              		.loc 1 552 1 is_stmt 0 view .LVU233
 1108 0000 10B5     		push	{r4, lr}
 1109              	.LCFI18:
 1110              		.cfi_def_cfa_offset 8
 1111              		.cfi_offset 4, -8
 1112              		.cfi_offset 14, -4
 1113 0002 82B0     		sub	sp, sp, #8
 1114              	.LCFI19:
 1115              		.cfi_def_cfa_offset 16
 1116 0004 0C46     		mov	r4, r1
 553:Drivers/lsm303agr/Src/lsm303agr_reg.c ****   uint8_t buff[2];
 1117              		.loc 1 553 3 is_stmt 1 view .LVU234
 554:Drivers/lsm303agr/Src/lsm303agr_reg.c ****   int32_t ret;
 1118              		.loc 1 554 3 view .LVU235
 555:Drivers/lsm303agr/Src/lsm303agr_reg.c **** 
 556:Drivers/lsm303agr/Src/lsm303agr_reg.c ****   ret = lsm303agr_read_reg(ctx, LSM303AGR_OUT_TEMP_L_A, buff, 2);
 1119              		.loc 1 556 3 view .LVU236
 1120              		.loc 1 556 9 is_stmt 0 view .LVU237
 1121 0006 0223     		movs	r3, #2
 1122 0008 01AA     		add	r2, sp, #4
 1123 000a 0C21     		movs	r1, #12
 1124              	.LVL62:
 1125              		.loc 1 556 9 view .LVU238
 1126 000c FFF7FEFF 		bl	lsm303agr_read_reg
 1127              	.LVL63:
 557:Drivers/lsm303agr/Src/lsm303agr_reg.c ****   val[0] = (int16_t)buff[1];
 1128              		.loc 1 557 3 is_stmt 1 view .LVU239
 1129              		.loc 1 557 12 is_stmt 0 view .LVU240
 1130 0010 9DF80520 		ldrb	r2, [sp, #5]	@ zero_extendqisi2
 1131              		.loc 1 557 10 view .LVU241
 1132 0014 2280     		strh	r2, [r4]	@ movhi
 558:Drivers/lsm303agr/Src/lsm303agr_reg.c ****   val[0] = (val[0] * 256) + (int16_t)buff[0];
 1133              		.loc 1 558 3 is_stmt 1 view .LVU242
 1134              		.loc 1 558 42 is_stmt 0 view .LVU243
 1135 0016 9DF80430 		ldrb	r3, [sp, #4]	@ zero_extendqisi2
 1136              		.loc 1 558 27 view .LVU244
 1137 001a 03EB0223 		add	r3, r3, r2, lsl #8
ARM GAS  C:\Users\SF\AppData\Local\Temp\ccFGOSN0.s 			page 30


 1138              		.loc 1 558 10 view .LVU245
 1139 001e 2380     		strh	r3, [r4]	@ movhi
 559:Drivers/lsm303agr/Src/lsm303agr_reg.c **** 
 560:Drivers/lsm303agr/Src/lsm303agr_reg.c ****   return ret;
 1140              		.loc 1 560 3 is_stmt 1 view .LVU246
 561:Drivers/lsm303agr/Src/lsm303agr_reg.c **** }
 1141              		.loc 1 561 1 is_stmt 0 view .LVU247
 1142 0020 02B0     		add	sp, sp, #8
 1143              	.LCFI20:
 1144              		.cfi_def_cfa_offset 8
 1145              		@ sp needed
 1146 0022 10BD     		pop	{r4, pc}
 1147              		.loc 1 561 1 view .LVU248
 1148              		.cfi_endproc
 1149              	.LFE159:
 1151              		.section	.text.lsm303agr_temperature_meas_set,"ax",%progbits
 1152              		.align	1
 1153              		.global	lsm303agr_temperature_meas_set
 1154              		.syntax unified
 1155              		.thumb
 1156              		.thumb_func
 1158              	lsm303agr_temperature_meas_set:
 1159              	.LVL64:
 1160              	.LFB160:
 562:Drivers/lsm303agr/Src/lsm303agr_reg.c **** 
 563:Drivers/lsm303agr/Src/lsm303agr_reg.c **** /**
 564:Drivers/lsm303agr/Src/lsm303agr_reg.c ****   * @brief  Temperature sensor enable.[set]
 565:Drivers/lsm303agr/Src/lsm303agr_reg.c ****   *
 566:Drivers/lsm303agr/Src/lsm303agr_reg.c ****   * @param  ctx    Read / write interface definitions.(ptr)
 567:Drivers/lsm303agr/Src/lsm303agr_reg.c ****   * @param  val    Change the values of temp_en in reg TEMP_CFG_REG_A.
 568:Drivers/lsm303agr/Src/lsm303agr_reg.c ****   * @retval        Interface status (MANDATORY: return 0 -> no Error).
 569:Drivers/lsm303agr/Src/lsm303agr_reg.c ****   *
 570:Drivers/lsm303agr/Src/lsm303agr_reg.c ****   */
 571:Drivers/lsm303agr/Src/lsm303agr_reg.c **** int32_t lsm303agr_temperature_meas_set(stmdev_ctx_t *ctx,
 572:Drivers/lsm303agr/Src/lsm303agr_reg.c ****                                        lsm303agr_temp_en_a_t val)
 573:Drivers/lsm303agr/Src/lsm303agr_reg.c **** {
 1161              		.loc 1 573 1 is_stmt 1 view -0
 1162              		.cfi_startproc
 1163              		@ args = 0, pretend = 0, frame = 8
 1164              		@ frame_needed = 0, uses_anonymous_args = 0
 1165              		.loc 1 573 1 is_stmt 0 view .LVU250
 1166 0000 30B5     		push	{r4, r5, lr}
 1167              	.LCFI21:
 1168              		.cfi_def_cfa_offset 12
 1169              		.cfi_offset 4, -12
 1170              		.cfi_offset 5, -8
 1171              		.cfi_offset 14, -4
 1172 0002 83B0     		sub	sp, sp, #12
 1173              	.LCFI22:
 1174              		.cfi_def_cfa_offset 24
 1175 0004 0446     		mov	r4, r0
 1176 0006 0D46     		mov	r5, r1
 574:Drivers/lsm303agr/Src/lsm303agr_reg.c ****   lsm303agr_temp_cfg_reg_a_t temp_cfg_reg_a;
 1177              		.loc 1 574 3 is_stmt 1 view .LVU251
 575:Drivers/lsm303agr/Src/lsm303agr_reg.c ****   int32_t ret;
 1178              		.loc 1 575 3 view .LVU252
 576:Drivers/lsm303agr/Src/lsm303agr_reg.c **** 
ARM GAS  C:\Users\SF\AppData\Local\Temp\ccFGOSN0.s 			page 31


 577:Drivers/lsm303agr/Src/lsm303agr_reg.c ****   ret = lsm303agr_read_reg(ctx, LSM303AGR_TEMP_CFG_REG_A,
 1179              		.loc 1 577 3 view .LVU253
 1180              		.loc 1 577 9 is_stmt 0 view .LVU254
 1181 0008 0123     		movs	r3, #1
 1182 000a 01AA     		add	r2, sp, #4
 1183 000c 1F21     		movs	r1, #31
 1184              	.LVL65:
 1185              		.loc 1 577 9 view .LVU255
 1186 000e FFF7FEFF 		bl	lsm303agr_read_reg
 1187              	.LVL66:
 578:Drivers/lsm303agr/Src/lsm303agr_reg.c ****                            (uint8_t *)&temp_cfg_reg_a, 1);
 579:Drivers/lsm303agr/Src/lsm303agr_reg.c **** 
 580:Drivers/lsm303agr/Src/lsm303agr_reg.c ****   if (ret == 0)
 1188              		.loc 1 580 3 is_stmt 1 view .LVU256
 1189              		.loc 1 580 6 is_stmt 0 view .LVU257
 1190 0012 08B1     		cbz	r0, .L76
 1191              	.LVL67:
 1192              	.L73:
 581:Drivers/lsm303agr/Src/lsm303agr_reg.c ****   {
 582:Drivers/lsm303agr/Src/lsm303agr_reg.c ****     temp_cfg_reg_a.temp_en = (uint8_t)val;
 583:Drivers/lsm303agr/Src/lsm303agr_reg.c ****     ret = lsm303agr_write_reg(ctx, LSM303AGR_TEMP_CFG_REG_A,
 584:Drivers/lsm303agr/Src/lsm303agr_reg.c ****                               (uint8_t *)&temp_cfg_reg_a, 1);
 585:Drivers/lsm303agr/Src/lsm303agr_reg.c ****   }
 586:Drivers/lsm303agr/Src/lsm303agr_reg.c **** 
 587:Drivers/lsm303agr/Src/lsm303agr_reg.c ****   return ret;
 588:Drivers/lsm303agr/Src/lsm303agr_reg.c **** }
 1193              		.loc 1 588 1 view .LVU258
 1194 0014 03B0     		add	sp, sp, #12
 1195              	.LCFI23:
 1196              		.cfi_remember_state
 1197              		.cfi_def_cfa_offset 12
 1198              		@ sp needed
 1199 0016 30BD     		pop	{r4, r5, pc}
 1200              	.LVL68:
 1201              	.L76:
 1202              	.LCFI24:
 1203              		.cfi_restore_state
 582:Drivers/lsm303agr/Src/lsm303agr_reg.c ****     ret = lsm303agr_write_reg(ctx, LSM303AGR_TEMP_CFG_REG_A,
 1204              		.loc 1 582 5 is_stmt 1 view .LVU259
 582:Drivers/lsm303agr/Src/lsm303agr_reg.c ****     ret = lsm303agr_write_reg(ctx, LSM303AGR_TEMP_CFG_REG_A,
 1205              		.loc 1 582 28 is_stmt 0 view .LVU260
 1206 0018 9DF80430 		ldrb	r3, [sp, #4]	@ zero_extendqisi2
 1207 001c 65F38713 		bfi	r3, r5, #6, #2
 1208 0020 8DF80430 		strb	r3, [sp, #4]
 583:Drivers/lsm303agr/Src/lsm303agr_reg.c ****                               (uint8_t *)&temp_cfg_reg_a, 1);
 1209              		.loc 1 583 5 is_stmt 1 view .LVU261
 583:Drivers/lsm303agr/Src/lsm303agr_reg.c ****                               (uint8_t *)&temp_cfg_reg_a, 1);
 1210              		.loc 1 583 11 is_stmt 0 view .LVU262
 1211 0024 0123     		movs	r3, #1
 1212              	.LVL69:
 583:Drivers/lsm303agr/Src/lsm303agr_reg.c ****                               (uint8_t *)&temp_cfg_reg_a, 1);
 1213              		.loc 1 583 11 view .LVU263
 1214 0026 01AA     		add	r2, sp, #4
 1215 0028 1F21     		movs	r1, #31
 1216 002a 2046     		mov	r0, r4
 1217 002c FFF7FEFF 		bl	lsm303agr_write_reg
 1218              	.LVL70:
ARM GAS  C:\Users\SF\AppData\Local\Temp\ccFGOSN0.s 			page 32


 587:Drivers/lsm303agr/Src/lsm303agr_reg.c **** }
 1219              		.loc 1 587 3 is_stmt 1 view .LVU264
 587:Drivers/lsm303agr/Src/lsm303agr_reg.c **** }
 1220              		.loc 1 587 10 is_stmt 0 view .LVU265
 1221 0030 F0E7     		b	.L73
 1222              		.cfi_endproc
 1223              	.LFE160:
 1225              		.section	.text.lsm303agr_temperature_meas_get,"ax",%progbits
 1226              		.align	1
 1227              		.global	lsm303agr_temperature_meas_get
 1228              		.syntax unified
 1229              		.thumb
 1230              		.thumb_func
 1232              	lsm303agr_temperature_meas_get:
 1233              	.LVL71:
 1234              	.LFB161:
 589:Drivers/lsm303agr/Src/lsm303agr_reg.c **** 
 590:Drivers/lsm303agr/Src/lsm303agr_reg.c **** /**
 591:Drivers/lsm303agr/Src/lsm303agr_reg.c ****   * @brief  Temperature sensor enable.[get]
 592:Drivers/lsm303agr/Src/lsm303agr_reg.c ****   *
 593:Drivers/lsm303agr/Src/lsm303agr_reg.c ****   * @param  ctx    Read / write interface definitions.(ptr)
 594:Drivers/lsm303agr/Src/lsm303agr_reg.c ****   * @param  val    Get the values of temp_en in reg TEMP_CFG_REG_A.(ptr)
 595:Drivers/lsm303agr/Src/lsm303agr_reg.c ****   * @retval        Interface status (MANDATORY: return 0 -> no Error).
 596:Drivers/lsm303agr/Src/lsm303agr_reg.c ****   *
 597:Drivers/lsm303agr/Src/lsm303agr_reg.c ****   */
 598:Drivers/lsm303agr/Src/lsm303agr_reg.c **** int32_t lsm303agr_temperature_meas_get(stmdev_ctx_t *ctx,
 599:Drivers/lsm303agr/Src/lsm303agr_reg.c ****                                        lsm303agr_temp_en_a_t *val)
 600:Drivers/lsm303agr/Src/lsm303agr_reg.c **** {
 1235              		.loc 1 600 1 is_stmt 1 view -0
 1236              		.cfi_startproc
 1237              		@ args = 0, pretend = 0, frame = 8
 1238              		@ frame_needed = 0, uses_anonymous_args = 0
 1239              		.loc 1 600 1 is_stmt 0 view .LVU267
 1240 0000 10B5     		push	{r4, lr}
 1241              	.LCFI25:
 1242              		.cfi_def_cfa_offset 8
 1243              		.cfi_offset 4, -8
 1244              		.cfi_offset 14, -4
 1245 0002 82B0     		sub	sp, sp, #8
 1246              	.LCFI26:
 1247              		.cfi_def_cfa_offset 16
 1248 0004 0C46     		mov	r4, r1
 601:Drivers/lsm303agr/Src/lsm303agr_reg.c ****   lsm303agr_temp_cfg_reg_a_t temp_cfg_reg_a;
 1249              		.loc 1 601 3 is_stmt 1 view .LVU268
 602:Drivers/lsm303agr/Src/lsm303agr_reg.c ****   int32_t ret;
 1250              		.loc 1 602 3 view .LVU269
 603:Drivers/lsm303agr/Src/lsm303agr_reg.c **** 
 604:Drivers/lsm303agr/Src/lsm303agr_reg.c ****   ret = lsm303agr_read_reg(ctx, LSM303AGR_TEMP_CFG_REG_A,
 1251              		.loc 1 604 3 view .LVU270
 1252              		.loc 1 604 9 is_stmt 0 view .LVU271
 1253 0006 0123     		movs	r3, #1
 1254 0008 01AA     		add	r2, sp, #4
 1255 000a 1F21     		movs	r1, #31
 1256              	.LVL72:
 1257              		.loc 1 604 9 view .LVU272
 1258 000c FFF7FEFF 		bl	lsm303agr_read_reg
 1259              	.LVL73:
ARM GAS  C:\Users\SF\AppData\Local\Temp\ccFGOSN0.s 			page 33


 605:Drivers/lsm303agr/Src/lsm303agr_reg.c ****                            (uint8_t *)&temp_cfg_reg_a, 1);
 606:Drivers/lsm303agr/Src/lsm303agr_reg.c **** 
 607:Drivers/lsm303agr/Src/lsm303agr_reg.c ****   switch (temp_cfg_reg_a.temp_en)
 1260              		.loc 1 607 3 is_stmt 1 view .LVU273
 1261              		.loc 1 607 25 is_stmt 0 view .LVU274
 1262 0010 9DF80430 		ldrb	r3, [sp, #4]	@ zero_extendqisi2
 1263              		.loc 1 607 3 view .LVU275
 1264 0014 9B09     		lsrs	r3, r3, #6
 1265 0016 04D0     		beq	.L78
 1266 0018 032B     		cmp	r3, #3
 1267 001a 06D0     		beq	.L79
 608:Drivers/lsm303agr/Src/lsm303agr_reg.c ****   {
 609:Drivers/lsm303agr/Src/lsm303agr_reg.c ****     case LSM303AGR_TEMP_DISABLE:
 610:Drivers/lsm303agr/Src/lsm303agr_reg.c ****       *val = LSM303AGR_TEMP_DISABLE;
 611:Drivers/lsm303agr/Src/lsm303agr_reg.c ****       break;
 612:Drivers/lsm303agr/Src/lsm303agr_reg.c **** 
 613:Drivers/lsm303agr/Src/lsm303agr_reg.c ****     case LSM303AGR_TEMP_ENABLE:
 614:Drivers/lsm303agr/Src/lsm303agr_reg.c ****       *val = LSM303AGR_TEMP_ENABLE;
 615:Drivers/lsm303agr/Src/lsm303agr_reg.c ****       break;
 616:Drivers/lsm303agr/Src/lsm303agr_reg.c **** 
 617:Drivers/lsm303agr/Src/lsm303agr_reg.c ****     default:
 618:Drivers/lsm303agr/Src/lsm303agr_reg.c ****       *val = LSM303AGR_TEMP_DISABLE;
 1268              		.loc 1 618 7 is_stmt 1 view .LVU276
 1269              		.loc 1 618 12 is_stmt 0 view .LVU277
 1270 001c 0023     		movs	r3, #0
 1271 001e 2370     		strb	r3, [r4]
 619:Drivers/lsm303agr/Src/lsm303agr_reg.c ****       break;
 1272              		.loc 1 619 7 is_stmt 1 view .LVU278
 620:Drivers/lsm303agr/Src/lsm303agr_reg.c ****   }
 621:Drivers/lsm303agr/Src/lsm303agr_reg.c **** 
 622:Drivers/lsm303agr/Src/lsm303agr_reg.c ****   return ret;
 1273              		.loc 1 622 3 view .LVU279
 1274              		.loc 1 622 10 is_stmt 0 view .LVU280
 1275 0020 01E0     		b	.L77
 1276              	.L78:
 610:Drivers/lsm303agr/Src/lsm303agr_reg.c ****       break;
 1277              		.loc 1 610 7 is_stmt 1 view .LVU281
 610:Drivers/lsm303agr/Src/lsm303agr_reg.c ****       break;
 1278              		.loc 1 610 12 is_stmt 0 view .LVU282
 1279 0022 0023     		movs	r3, #0
 1280 0024 2370     		strb	r3, [r4]
 611:Drivers/lsm303agr/Src/lsm303agr_reg.c **** 
 1281              		.loc 1 611 7 is_stmt 1 view .LVU283
 1282              	.L77:
 623:Drivers/lsm303agr/Src/lsm303agr_reg.c **** }
 1283              		.loc 1 623 1 is_stmt 0 view .LVU284
 1284 0026 02B0     		add	sp, sp, #8
 1285              	.LCFI27:
 1286              		.cfi_remember_state
 1287              		.cfi_def_cfa_offset 8
 1288              		@ sp needed
 1289 0028 10BD     		pop	{r4, pc}
 1290              	.LVL74:
 1291              	.L79:
 1292              	.LCFI28:
 1293              		.cfi_restore_state
 614:Drivers/lsm303agr/Src/lsm303agr_reg.c ****       break;
ARM GAS  C:\Users\SF\AppData\Local\Temp\ccFGOSN0.s 			page 34


 1294              		.loc 1 614 7 is_stmt 1 view .LVU285
 614:Drivers/lsm303agr/Src/lsm303agr_reg.c ****       break;
 1295              		.loc 1 614 12 is_stmt 0 view .LVU286
 1296 002a 0323     		movs	r3, #3
 1297 002c 2370     		strb	r3, [r4]
 615:Drivers/lsm303agr/Src/lsm303agr_reg.c **** 
 1298              		.loc 1 615 7 is_stmt 1 view .LVU287
 1299 002e FAE7     		b	.L77
 1300              		.cfi_endproc
 1301              	.LFE161:
 1303              		.section	.text.lsm303agr_xl_operating_mode_set,"ax",%progbits
 1304              		.align	1
 1305              		.global	lsm303agr_xl_operating_mode_set
 1306              		.syntax unified
 1307              		.thumb
 1308              		.thumb_func
 1310              	lsm303agr_xl_operating_mode_set:
 1311              	.LVL75:
 1312              	.LFB162:
 624:Drivers/lsm303agr/Src/lsm303agr_reg.c **** 
 625:Drivers/lsm303agr/Src/lsm303agr_reg.c **** /**
 626:Drivers/lsm303agr/Src/lsm303agr_reg.c ****   * @brief  Operating mode selection.[set]
 627:Drivers/lsm303agr/Src/lsm303agr_reg.c ****   *
 628:Drivers/lsm303agr/Src/lsm303agr_reg.c ****   * @param  ctx    Read / write interface definitions.(ptr)
 629:Drivers/lsm303agr/Src/lsm303agr_reg.c ****   * @param  val    Change the values of lpen in reg
 630:Drivers/lsm303agr/Src/lsm303agr_reg.c ****   *                CTRL_REG1_A and HR in reg CTRL_REG4_A
 631:Drivers/lsm303agr/Src/lsm303agr_reg.c ****   * @retval        Interface status (MANDATORY: return 0 -> no Error).
 632:Drivers/lsm303agr/Src/lsm303agr_reg.c ****   *
 633:Drivers/lsm303agr/Src/lsm303agr_reg.c ****   */
 634:Drivers/lsm303agr/Src/lsm303agr_reg.c **** int32_t lsm303agr_xl_operating_mode_set(stmdev_ctx_t *ctx,
 635:Drivers/lsm303agr/Src/lsm303agr_reg.c ****                                         lsm303agr_op_md_a_t val)
 636:Drivers/lsm303agr/Src/lsm303agr_reg.c **** {
 1313              		.loc 1 636 1 view -0
 1314              		.cfi_startproc
 1315              		@ args = 0, pretend = 0, frame = 8
 1316              		@ frame_needed = 0, uses_anonymous_args = 0
 1317              		.loc 1 636 1 is_stmt 0 view .LVU289
 1318 0000 70B5     		push	{r4, r5, r6, lr}
 1319              	.LCFI29:
 1320              		.cfi_def_cfa_offset 16
 1321              		.cfi_offset 4, -16
 1322              		.cfi_offset 5, -12
 1323              		.cfi_offset 6, -8
 1324              		.cfi_offset 14, -4
 1325 0002 82B0     		sub	sp, sp, #8
 1326              	.LCFI30:
 1327              		.cfi_def_cfa_offset 24
 1328 0004 0446     		mov	r4, r0
 637:Drivers/lsm303agr/Src/lsm303agr_reg.c ****   lsm303agr_ctrl_reg1_a_t ctrl_reg1_a;
 1329              		.loc 1 637 3 is_stmt 1 view .LVU290
 638:Drivers/lsm303agr/Src/lsm303agr_reg.c ****   lsm303agr_ctrl_reg4_a_t ctrl_reg4_a;
 1330              		.loc 1 638 3 view .LVU291
 639:Drivers/lsm303agr/Src/lsm303agr_reg.c ****   int32_t ret;
 1331              		.loc 1 639 3 view .LVU292
 640:Drivers/lsm303agr/Src/lsm303agr_reg.c **** 
 641:Drivers/lsm303agr/Src/lsm303agr_reg.c ****   uint8_t lpen, hr;
 1332              		.loc 1 641 3 view .LVU293
ARM GAS  C:\Users\SF\AppData\Local\Temp\ccFGOSN0.s 			page 35


 642:Drivers/lsm303agr/Src/lsm303agr_reg.c **** 
 643:Drivers/lsm303agr/Src/lsm303agr_reg.c ****   if (val == LSM303AGR_HR_12bit)
 1333              		.loc 1 643 3 view .LVU294
 1334              		.loc 1 643 6 is_stmt 0 view .LVU295
 1335 0006 0D46     		mov	r5, r1
 1336 0008 39B1     		cbz	r1, .L89
 644:Drivers/lsm303agr/Src/lsm303agr_reg.c ****   {
 645:Drivers/lsm303agr/Src/lsm303agr_reg.c ****     lpen = 0;
 646:Drivers/lsm303agr/Src/lsm303agr_reg.c ****     hr   = 1;
 647:Drivers/lsm303agr/Src/lsm303agr_reg.c ****   }
 648:Drivers/lsm303agr/Src/lsm303agr_reg.c **** 
 649:Drivers/lsm303agr/Src/lsm303agr_reg.c ****   else if (val == LSM303AGR_NM_10bit)
 1337              		.loc 1 649 8 is_stmt 1 view .LVU296
 1338              		.loc 1 649 11 is_stmt 0 view .LVU297
 1339 000a 0129     		cmp	r1, #1
 1340 000c 02D0     		beq	.L92
 650:Drivers/lsm303agr/Src/lsm303agr_reg.c ****   {
 651:Drivers/lsm303agr/Src/lsm303agr_reg.c ****     lpen = 0;
 652:Drivers/lsm303agr/Src/lsm303agr_reg.c ****     hr   = 0;
 653:Drivers/lsm303agr/Src/lsm303agr_reg.c ****   }
 654:Drivers/lsm303agr/Src/lsm303agr_reg.c **** 
 655:Drivers/lsm303agr/Src/lsm303agr_reg.c ****   else
 656:Drivers/lsm303agr/Src/lsm303agr_reg.c ****   {
 657:Drivers/lsm303agr/Src/lsm303agr_reg.c ****     lpen = 1;
 658:Drivers/lsm303agr/Src/lsm303agr_reg.c ****     hr   = 0;
 1341              		.loc 1 658 10 view .LVU298
 1342 000e 0026     		movs	r6, #0
 657:Drivers/lsm303agr/Src/lsm303agr_reg.c ****     hr   = 0;
 1343              		.loc 1 657 10 view .LVU299
 1344 0010 0125     		movs	r5, #1
 1345 0012 03E0     		b	.L85
 1346              	.L92:
 652:Drivers/lsm303agr/Src/lsm303agr_reg.c ****   }
 1347              		.loc 1 652 10 view .LVU300
 1348 0014 0026     		movs	r6, #0
 651:Drivers/lsm303agr/Src/lsm303agr_reg.c ****     hr   = 0;
 1349              		.loc 1 651 10 view .LVU301
 1350 0016 3546     		mov	r5, r6
 1351 0018 00E0     		b	.L85
 1352              	.L89:
 646:Drivers/lsm303agr/Src/lsm303agr_reg.c ****   }
 1353              		.loc 1 646 10 view .LVU302
 1354 001a 0126     		movs	r6, #1
 1355              	.L85:
 1356              	.LVL76:
 659:Drivers/lsm303agr/Src/lsm303agr_reg.c ****   }
 660:Drivers/lsm303agr/Src/lsm303agr_reg.c **** 
 661:Drivers/lsm303agr/Src/lsm303agr_reg.c ****   ret = lsm303agr_read_reg(ctx, LSM303AGR_CTRL_REG1_A,
 1357              		.loc 1 661 3 is_stmt 1 view .LVU303
 1358              		.loc 1 661 9 is_stmt 0 view .LVU304
 1359 001c 0123     		movs	r3, #1
 1360 001e 01AA     		add	r2, sp, #4
 1361 0020 2021     		movs	r1, #32
 1362              	.LVL77:
 1363              		.loc 1 661 9 view .LVU305
 1364 0022 2046     		mov	r0, r4
 1365              	.LVL78:
ARM GAS  C:\Users\SF\AppData\Local\Temp\ccFGOSN0.s 			page 36


 1366              		.loc 1 661 9 view .LVU306
 1367 0024 FFF7FEFF 		bl	lsm303agr_read_reg
 1368              	.LVL79:
 662:Drivers/lsm303agr/Src/lsm303agr_reg.c ****                            (uint8_t *)&ctrl_reg1_a, 1);
 663:Drivers/lsm303agr/Src/lsm303agr_reg.c ****   ctrl_reg1_a.lpen = (uint8_t)lpen;
 1369              		.loc 1 663 3 is_stmt 1 view .LVU307
 1370              		.loc 1 663 20 is_stmt 0 view .LVU308
 1371 0028 9DF80420 		ldrb	r2, [sp, #4]	@ zero_extendqisi2
 1372 002c 65F3C302 		bfi	r2, r5, #3, #1
 1373 0030 8DF80420 		strb	r2, [sp, #4]
 664:Drivers/lsm303agr/Src/lsm303agr_reg.c **** 
 665:Drivers/lsm303agr/Src/lsm303agr_reg.c ****   if (ret == 0)
 1374              		.loc 1 665 3 is_stmt 1 view .LVU309
 1375              		.loc 1 665 6 is_stmt 0 view .LVU310
 1376 0034 18B1     		cbz	r0, .L93
 1377              	.L86:
 666:Drivers/lsm303agr/Src/lsm303agr_reg.c ****   {
 667:Drivers/lsm303agr/Src/lsm303agr_reg.c ****     ret = lsm303agr_write_reg(ctx, LSM303AGR_CTRL_REG1_A,
 668:Drivers/lsm303agr/Src/lsm303agr_reg.c ****                               (uint8_t *)&ctrl_reg1_a, 1);
 669:Drivers/lsm303agr/Src/lsm303agr_reg.c ****   }
 670:Drivers/lsm303agr/Src/lsm303agr_reg.c **** 
 671:Drivers/lsm303agr/Src/lsm303agr_reg.c ****   if (ret == 0)
 1378              		.loc 1 671 3 is_stmt 1 view .LVU311
 1379              		.loc 1 671 6 is_stmt 0 view .LVU312
 1380 0036 48B1     		cbz	r0, .L94
 1381              	.L87:
 672:Drivers/lsm303agr/Src/lsm303agr_reg.c ****   {
 673:Drivers/lsm303agr/Src/lsm303agr_reg.c ****     ret = lsm303agr_read_reg(ctx, LSM303AGR_CTRL_REG4_A,
 674:Drivers/lsm303agr/Src/lsm303agr_reg.c ****                              (uint8_t *)&ctrl_reg4_a, 1);
 675:Drivers/lsm303agr/Src/lsm303agr_reg.c ****   }
 676:Drivers/lsm303agr/Src/lsm303agr_reg.c **** 
 677:Drivers/lsm303agr/Src/lsm303agr_reg.c ****   if (ret == 0)
 1382              		.loc 1 677 3 is_stmt 1 view .LVU313
 1383              		.loc 1 677 6 is_stmt 0 view .LVU314
 1384 0038 78B1     		cbz	r0, .L95
 1385              	.L84:
 678:Drivers/lsm303agr/Src/lsm303agr_reg.c ****   {
 679:Drivers/lsm303agr/Src/lsm303agr_reg.c ****     ctrl_reg4_a.hr = hr;
 680:Drivers/lsm303agr/Src/lsm303agr_reg.c ****     ret = lsm303agr_write_reg(ctx, LSM303AGR_CTRL_REG4_A,
 681:Drivers/lsm303agr/Src/lsm303agr_reg.c ****                               (uint8_t *)&ctrl_reg4_a, 1);
 682:Drivers/lsm303agr/Src/lsm303agr_reg.c ****   }
 683:Drivers/lsm303agr/Src/lsm303agr_reg.c **** 
 684:Drivers/lsm303agr/Src/lsm303agr_reg.c ****   return ret;
 685:Drivers/lsm303agr/Src/lsm303agr_reg.c **** }
 1386              		.loc 1 685 1 view .LVU315
 1387 003a 02B0     		add	sp, sp, #8
 1388              	.LCFI31:
 1389              		.cfi_remember_state
 1390              		.cfi_def_cfa_offset 16
 1391              		@ sp needed
 1392 003c 70BD     		pop	{r4, r5, r6, pc}
 1393              	.LVL80:
 1394              	.L93:
 1395              	.LCFI32:
 1396              		.cfi_restore_state
 667:Drivers/lsm303agr/Src/lsm303agr_reg.c ****                               (uint8_t *)&ctrl_reg1_a, 1);
 1397              		.loc 1 667 5 is_stmt 1 view .LVU316
ARM GAS  C:\Users\SF\AppData\Local\Temp\ccFGOSN0.s 			page 37


 667:Drivers/lsm303agr/Src/lsm303agr_reg.c ****                               (uint8_t *)&ctrl_reg1_a, 1);
 1398              		.loc 1 667 11 is_stmt 0 view .LVU317
 1399 003e 0123     		movs	r3, #1
 1400 0040 01AA     		add	r2, sp, #4
 1401 0042 2021     		movs	r1, #32
 1402 0044 2046     		mov	r0, r4
 1403              	.LVL81:
 667:Drivers/lsm303agr/Src/lsm303agr_reg.c ****                               (uint8_t *)&ctrl_reg1_a, 1);
 1404              		.loc 1 667 11 view .LVU318
 1405 0046 FFF7FEFF 		bl	lsm303agr_write_reg
 1406              	.LVL82:
 667:Drivers/lsm303agr/Src/lsm303agr_reg.c ****                               (uint8_t *)&ctrl_reg1_a, 1);
 1407              		.loc 1 667 11 view .LVU319
 1408 004a F4E7     		b	.L86
 1409              	.L94:
 673:Drivers/lsm303agr/Src/lsm303agr_reg.c ****                              (uint8_t *)&ctrl_reg4_a, 1);
 1410              		.loc 1 673 5 is_stmt 1 view .LVU320
 673:Drivers/lsm303agr/Src/lsm303agr_reg.c ****                              (uint8_t *)&ctrl_reg4_a, 1);
 1411              		.loc 1 673 11 is_stmt 0 view .LVU321
 1412 004c 0123     		movs	r3, #1
 1413 004e 6A46     		mov	r2, sp
 1414 0050 2321     		movs	r1, #35
 1415 0052 2046     		mov	r0, r4
 1416              	.LVL83:
 673:Drivers/lsm303agr/Src/lsm303agr_reg.c ****                              (uint8_t *)&ctrl_reg4_a, 1);
 1417              		.loc 1 673 11 view .LVU322
 1418 0054 FFF7FEFF 		bl	lsm303agr_read_reg
 1419              	.LVL84:
 673:Drivers/lsm303agr/Src/lsm303agr_reg.c ****                              (uint8_t *)&ctrl_reg4_a, 1);
 1420              		.loc 1 673 11 view .LVU323
 1421 0058 EEE7     		b	.L87
 1422              	.L95:
 679:Drivers/lsm303agr/Src/lsm303agr_reg.c ****     ret = lsm303agr_write_reg(ctx, LSM303AGR_CTRL_REG4_A,
 1423              		.loc 1 679 5 is_stmt 1 view .LVU324
 679:Drivers/lsm303agr/Src/lsm303agr_reg.c ****     ret = lsm303agr_write_reg(ctx, LSM303AGR_CTRL_REG4_A,
 1424              		.loc 1 679 20 is_stmt 0 view .LVU325
 1425 005a 9DF80030 		ldrb	r3, [sp]	@ zero_extendqisi2
 1426 005e 66F3C303 		bfi	r3, r6, #3, #1
 1427 0062 8DF80030 		strb	r3, [sp]
 680:Drivers/lsm303agr/Src/lsm303agr_reg.c ****                               (uint8_t *)&ctrl_reg4_a, 1);
 1428              		.loc 1 680 5 is_stmt 1 view .LVU326
 680:Drivers/lsm303agr/Src/lsm303agr_reg.c ****                               (uint8_t *)&ctrl_reg4_a, 1);
 1429              		.loc 1 680 11 is_stmt 0 view .LVU327
 1430 0066 0123     		movs	r3, #1
 1431 0068 6A46     		mov	r2, sp
 1432 006a 2321     		movs	r1, #35
 1433 006c 2046     		mov	r0, r4
 1434              	.LVL85:
 680:Drivers/lsm303agr/Src/lsm303agr_reg.c ****                               (uint8_t *)&ctrl_reg4_a, 1);
 1435              		.loc 1 680 11 view .LVU328
 1436 006e FFF7FEFF 		bl	lsm303agr_write_reg
 1437              	.LVL86:
 684:Drivers/lsm303agr/Src/lsm303agr_reg.c **** }
 1438              		.loc 1 684 3 is_stmt 1 view .LVU329
 684:Drivers/lsm303agr/Src/lsm303agr_reg.c **** }
 1439              		.loc 1 684 10 is_stmt 0 view .LVU330
 1440 0072 E2E7     		b	.L84
ARM GAS  C:\Users\SF\AppData\Local\Temp\ccFGOSN0.s 			page 38


 1441              		.cfi_endproc
 1442              	.LFE162:
 1444              		.section	.text.lsm303agr_xl_operating_mode_get,"ax",%progbits
 1445              		.align	1
 1446              		.global	lsm303agr_xl_operating_mode_get
 1447              		.syntax unified
 1448              		.thumb
 1449              		.thumb_func
 1451              	lsm303agr_xl_operating_mode_get:
 1452              	.LVL87:
 1453              	.LFB163:
 686:Drivers/lsm303agr/Src/lsm303agr_reg.c **** 
 687:Drivers/lsm303agr/Src/lsm303agr_reg.c **** /**
 688:Drivers/lsm303agr/Src/lsm303agr_reg.c ****   * @brief  Operating mode selection.[get]
 689:Drivers/lsm303agr/Src/lsm303agr_reg.c ****   *
 690:Drivers/lsm303agr/Src/lsm303agr_reg.c ****   * @param  ctx    Read / write interface definitions.(ptr)
 691:Drivers/lsm303agr/Src/lsm303agr_reg.c ****   * @param  val    Get the values of lpen in reg CTRL_REG1_A and HR in
 692:Drivers/lsm303agr/Src/lsm303agr_reg.c ****   *                reg CTRL_REG4_AG1_A.(ptr)
 693:Drivers/lsm303agr/Src/lsm303agr_reg.c ****   * @retval        Interface status (MANDATORY: return 0 -> no Error).
 694:Drivers/lsm303agr/Src/lsm303agr_reg.c ****   *
 695:Drivers/lsm303agr/Src/lsm303agr_reg.c ****   */
 696:Drivers/lsm303agr/Src/lsm303agr_reg.c **** int32_t lsm303agr_xl_operating_mode_get(stmdev_ctx_t *ctx,
 697:Drivers/lsm303agr/Src/lsm303agr_reg.c ****                                         lsm303agr_op_md_a_t *val)
 698:Drivers/lsm303agr/Src/lsm303agr_reg.c **** {
 1454              		.loc 1 698 1 is_stmt 1 view -0
 1455              		.cfi_startproc
 1456              		@ args = 0, pretend = 0, frame = 8
 1457              		@ frame_needed = 0, uses_anonymous_args = 0
 1458              		.loc 1 698 1 is_stmt 0 view .LVU332
 1459 0000 30B5     		push	{r4, r5, lr}
 1460              	.LCFI33:
 1461              		.cfi_def_cfa_offset 12
 1462              		.cfi_offset 4, -12
 1463              		.cfi_offset 5, -8
 1464              		.cfi_offset 14, -4
 1465 0002 83B0     		sub	sp, sp, #12
 1466              	.LCFI34:
 1467              		.cfi_def_cfa_offset 24
 1468 0004 0546     		mov	r5, r0
 1469 0006 0C46     		mov	r4, r1
 699:Drivers/lsm303agr/Src/lsm303agr_reg.c ****   lsm303agr_ctrl_reg4_a_t ctrl_reg4_a;
 1470              		.loc 1 699 3 is_stmt 1 view .LVU333
 700:Drivers/lsm303agr/Src/lsm303agr_reg.c ****   lsm303agr_ctrl_reg1_a_t ctrl_reg1_a;
 1471              		.loc 1 700 3 view .LVU334
 701:Drivers/lsm303agr/Src/lsm303agr_reg.c ****   int32_t ret;
 1472              		.loc 1 701 3 view .LVU335
 702:Drivers/lsm303agr/Src/lsm303agr_reg.c **** 
 703:Drivers/lsm303agr/Src/lsm303agr_reg.c ****   ret = lsm303agr_read_reg(ctx, LSM303AGR_CTRL_REG1_A,
 1473              		.loc 1 703 3 view .LVU336
 1474              		.loc 1 703 9 is_stmt 0 view .LVU337
 1475 0008 0123     		movs	r3, #1
 1476 000a 6A46     		mov	r2, sp
 1477 000c 2021     		movs	r1, #32
 1478              	.LVL88:
 1479              		.loc 1 703 9 view .LVU338
 1480 000e FFF7FEFF 		bl	lsm303agr_read_reg
 1481              	.LVL89:
ARM GAS  C:\Users\SF\AppData\Local\Temp\ccFGOSN0.s 			page 39


 704:Drivers/lsm303agr/Src/lsm303agr_reg.c ****                            (uint8_t *)&ctrl_reg1_a, 1);
 705:Drivers/lsm303agr/Src/lsm303agr_reg.c **** 
 706:Drivers/lsm303agr/Src/lsm303agr_reg.c ****   if (ret == 0)
 1482              		.loc 1 706 3 is_stmt 1 view .LVU339
 1483              		.loc 1 706 6 is_stmt 0 view .LVU340
 1484 0012 40B1     		cbz	r0, .L102
 1485              	.LVL90:
 1486              	.L97:
 707:Drivers/lsm303agr/Src/lsm303agr_reg.c ****   {
 708:Drivers/lsm303agr/Src/lsm303agr_reg.c ****     ret = lsm303agr_read_reg(ctx, LSM303AGR_CTRL_REG4_A,
 709:Drivers/lsm303agr/Src/lsm303agr_reg.c ****                              (uint8_t *)&ctrl_reg4_a, 1);
 710:Drivers/lsm303agr/Src/lsm303agr_reg.c ****   }
 711:Drivers/lsm303agr/Src/lsm303agr_reg.c **** 
 712:Drivers/lsm303agr/Src/lsm303agr_reg.c ****   if (ctrl_reg1_a.lpen != PROPERTY_DISABLE)
 1487              		.loc 1 712 3 is_stmt 1 view .LVU341
 1488              		.loc 1 712 24 is_stmt 0 view .LVU342
 1489 0014 9DF80030 		ldrb	r3, [sp]	@ zero_extendqisi2
 1490              		.loc 1 712 6 view .LVU343
 1491 0018 13F0080F 		tst	r3, #8
 1492 001c 0AD0     		beq	.L98
 713:Drivers/lsm303agr/Src/lsm303agr_reg.c ****   {
 714:Drivers/lsm303agr/Src/lsm303agr_reg.c ****     *val = LSM303AGR_LP_8bit;
 1493              		.loc 1 714 5 is_stmt 1 view .LVU344
 1494              		.loc 1 714 10 is_stmt 0 view .LVU345
 1495 001e 0223     		movs	r3, #2
 1496 0020 2370     		strb	r3, [r4]
 1497              	.L96:
 715:Drivers/lsm303agr/Src/lsm303agr_reg.c ****   }
 716:Drivers/lsm303agr/Src/lsm303agr_reg.c **** 
 717:Drivers/lsm303agr/Src/lsm303agr_reg.c ****   else if (ctrl_reg4_a.hr  != PROPERTY_DISABLE)
 718:Drivers/lsm303agr/Src/lsm303agr_reg.c ****   {
 719:Drivers/lsm303agr/Src/lsm303agr_reg.c ****     *val = LSM303AGR_HR_12bit;
 720:Drivers/lsm303agr/Src/lsm303agr_reg.c ****   }
 721:Drivers/lsm303agr/Src/lsm303agr_reg.c **** 
 722:Drivers/lsm303agr/Src/lsm303agr_reg.c ****   else
 723:Drivers/lsm303agr/Src/lsm303agr_reg.c ****   {
 724:Drivers/lsm303agr/Src/lsm303agr_reg.c ****     *val = LSM303AGR_NM_10bit;
 725:Drivers/lsm303agr/Src/lsm303agr_reg.c ****   }
 726:Drivers/lsm303agr/Src/lsm303agr_reg.c **** 
 727:Drivers/lsm303agr/Src/lsm303agr_reg.c ****   return ret;
 728:Drivers/lsm303agr/Src/lsm303agr_reg.c **** }
 1498              		.loc 1 728 1 view .LVU346
 1499 0022 03B0     		add	sp, sp, #12
 1500              	.LCFI35:
 1501              		.cfi_remember_state
 1502              		.cfi_def_cfa_offset 12
 1503              		@ sp needed
 1504 0024 30BD     		pop	{r4, r5, pc}
 1505              	.LVL91:
 1506              	.L102:
 1507              	.LCFI36:
 1508              		.cfi_restore_state
 708:Drivers/lsm303agr/Src/lsm303agr_reg.c ****                              (uint8_t *)&ctrl_reg4_a, 1);
 1509              		.loc 1 708 5 is_stmt 1 view .LVU347
 708:Drivers/lsm303agr/Src/lsm303agr_reg.c ****                              (uint8_t *)&ctrl_reg4_a, 1);
 1510              		.loc 1 708 11 is_stmt 0 view .LVU348
 1511 0026 0123     		movs	r3, #1
ARM GAS  C:\Users\SF\AppData\Local\Temp\ccFGOSN0.s 			page 40


 1512              	.LVL92:
 708:Drivers/lsm303agr/Src/lsm303agr_reg.c ****                              (uint8_t *)&ctrl_reg4_a, 1);
 1513              		.loc 1 708 11 view .LVU349
 1514 0028 01AA     		add	r2, sp, #4
 1515 002a 2321     		movs	r1, #35
 1516 002c 2846     		mov	r0, r5
 1517 002e FFF7FEFF 		bl	lsm303agr_read_reg
 1518              	.LVL93:
 708:Drivers/lsm303agr/Src/lsm303agr_reg.c ****                              (uint8_t *)&ctrl_reg4_a, 1);
 1519              		.loc 1 708 11 view .LVU350
 1520 0032 EFE7     		b	.L97
 1521              	.L98:
 717:Drivers/lsm303agr/Src/lsm303agr_reg.c ****   {
 1522              		.loc 1 717 8 is_stmt 1 view .LVU351
 717:Drivers/lsm303agr/Src/lsm303agr_reg.c ****   {
 1523              		.loc 1 717 28 is_stmt 0 view .LVU352
 1524 0034 9DF80430 		ldrb	r3, [sp, #4]	@ zero_extendqisi2
 717:Drivers/lsm303agr/Src/lsm303agr_reg.c ****   {
 1525              		.loc 1 717 11 view .LVU353
 1526 0038 13F0080F 		tst	r3, #8
 1527 003c 02D0     		beq	.L100
 719:Drivers/lsm303agr/Src/lsm303agr_reg.c ****   }
 1528              		.loc 1 719 5 is_stmt 1 view .LVU354
 719:Drivers/lsm303agr/Src/lsm303agr_reg.c ****   }
 1529              		.loc 1 719 10 is_stmt 0 view .LVU355
 1530 003e 0023     		movs	r3, #0
 1531 0040 2370     		strb	r3, [r4]
 1532 0042 EEE7     		b	.L96
 1533              	.L100:
 724:Drivers/lsm303agr/Src/lsm303agr_reg.c ****   }
 1534              		.loc 1 724 5 is_stmt 1 view .LVU356
 724:Drivers/lsm303agr/Src/lsm303agr_reg.c ****   }
 1535              		.loc 1 724 10 is_stmt 0 view .LVU357
 1536 0044 0123     		movs	r3, #1
 1537 0046 2370     		strb	r3, [r4]
 727:Drivers/lsm303agr/Src/lsm303agr_reg.c **** }
 1538              		.loc 1 727 3 is_stmt 1 view .LVU358
 727:Drivers/lsm303agr/Src/lsm303agr_reg.c **** }
 1539              		.loc 1 727 10 is_stmt 0 view .LVU359
 1540 0048 EBE7     		b	.L96
 1541              		.cfi_endproc
 1542              	.LFE163:
 1544              		.section	.text.lsm303agr_xl_data_rate_set,"ax",%progbits
 1545              		.align	1
 1546              		.global	lsm303agr_xl_data_rate_set
 1547              		.syntax unified
 1548              		.thumb
 1549              		.thumb_func
 1551              	lsm303agr_xl_data_rate_set:
 1552              	.LVL94:
 1553              	.LFB164:
 729:Drivers/lsm303agr/Src/lsm303agr_reg.c **** 
 730:Drivers/lsm303agr/Src/lsm303agr_reg.c **** /**
 731:Drivers/lsm303agr/Src/lsm303agr_reg.c ****   * @brief  Output data rate selection.[set]
 732:Drivers/lsm303agr/Src/lsm303agr_reg.c ****   *
 733:Drivers/lsm303agr/Src/lsm303agr_reg.c ****   * @param  ctx    Read / write interface definitions.(ptr)
 734:Drivers/lsm303agr/Src/lsm303agr_reg.c ****   * @param  val    Change the values of odr in reg CTRL_REG1_A
ARM GAS  C:\Users\SF\AppData\Local\Temp\ccFGOSN0.s 			page 41


 735:Drivers/lsm303agr/Src/lsm303agr_reg.c ****   * @retval        Interface status (MANDATORY: return 0 -> no Error).
 736:Drivers/lsm303agr/Src/lsm303agr_reg.c ****   *
 737:Drivers/lsm303agr/Src/lsm303agr_reg.c ****   */
 738:Drivers/lsm303agr/Src/lsm303agr_reg.c **** int32_t lsm303agr_xl_data_rate_set(stmdev_ctx_t *ctx,
 739:Drivers/lsm303agr/Src/lsm303agr_reg.c ****                                    lsm303agr_odr_a_t val)
 740:Drivers/lsm303agr/Src/lsm303agr_reg.c **** {
 1554              		.loc 1 740 1 is_stmt 1 view -0
 1555              		.cfi_startproc
 1556              		@ args = 0, pretend = 0, frame = 8
 1557              		@ frame_needed = 0, uses_anonymous_args = 0
 1558              		.loc 1 740 1 is_stmt 0 view .LVU361
 1559 0000 30B5     		push	{r4, r5, lr}
 1560              	.LCFI37:
 1561              		.cfi_def_cfa_offset 12
 1562              		.cfi_offset 4, -12
 1563              		.cfi_offset 5, -8
 1564              		.cfi_offset 14, -4
 1565 0002 83B0     		sub	sp, sp, #12
 1566              	.LCFI38:
 1567              		.cfi_def_cfa_offset 24
 1568 0004 0446     		mov	r4, r0
 1569 0006 0D46     		mov	r5, r1
 741:Drivers/lsm303agr/Src/lsm303agr_reg.c ****   lsm303agr_ctrl_reg1_a_t ctrl_reg1_a;
 1570              		.loc 1 741 3 is_stmt 1 view .LVU362
 742:Drivers/lsm303agr/Src/lsm303agr_reg.c ****   int32_t ret;
 1571              		.loc 1 742 3 view .LVU363
 743:Drivers/lsm303agr/Src/lsm303agr_reg.c **** 
 744:Drivers/lsm303agr/Src/lsm303agr_reg.c ****   ret = lsm303agr_read_reg(ctx, LSM303AGR_CTRL_REG1_A,
 1572              		.loc 1 744 3 view .LVU364
 1573              		.loc 1 744 9 is_stmt 0 view .LVU365
 1574 0008 0123     		movs	r3, #1
 1575 000a 01AA     		add	r2, sp, #4
 1576 000c 2021     		movs	r1, #32
 1577              	.LVL95:
 1578              		.loc 1 744 9 view .LVU366
 1579 000e FFF7FEFF 		bl	lsm303agr_read_reg
 1580              	.LVL96:
 745:Drivers/lsm303agr/Src/lsm303agr_reg.c ****                            (uint8_t *)&ctrl_reg1_a, 1);
 746:Drivers/lsm303agr/Src/lsm303agr_reg.c **** 
 747:Drivers/lsm303agr/Src/lsm303agr_reg.c ****   if (ret == 0)
 1581              		.loc 1 747 3 is_stmt 1 view .LVU367
 1582              		.loc 1 747 6 is_stmt 0 view .LVU368
 1583 0012 08B1     		cbz	r0, .L106
 1584              	.LVL97:
 1585              	.L103:
 748:Drivers/lsm303agr/Src/lsm303agr_reg.c ****   {
 749:Drivers/lsm303agr/Src/lsm303agr_reg.c ****     ctrl_reg1_a.odr = (uint8_t)val;
 750:Drivers/lsm303agr/Src/lsm303agr_reg.c ****     ret = lsm303agr_write_reg(ctx, LSM303AGR_CTRL_REG1_A,
 751:Drivers/lsm303agr/Src/lsm303agr_reg.c ****                               (uint8_t *)&ctrl_reg1_a, 1);
 752:Drivers/lsm303agr/Src/lsm303agr_reg.c ****   }
 753:Drivers/lsm303agr/Src/lsm303agr_reg.c **** 
 754:Drivers/lsm303agr/Src/lsm303agr_reg.c ****   return ret;
 755:Drivers/lsm303agr/Src/lsm303agr_reg.c **** }
 1586              		.loc 1 755 1 view .LVU369
 1587 0014 03B0     		add	sp, sp, #12
 1588              	.LCFI39:
 1589              		.cfi_remember_state
ARM GAS  C:\Users\SF\AppData\Local\Temp\ccFGOSN0.s 			page 42


 1590              		.cfi_def_cfa_offset 12
 1591              		@ sp needed
 1592 0016 30BD     		pop	{r4, r5, pc}
 1593              	.LVL98:
 1594              	.L106:
 1595              	.LCFI40:
 1596              		.cfi_restore_state
 749:Drivers/lsm303agr/Src/lsm303agr_reg.c ****     ret = lsm303agr_write_reg(ctx, LSM303AGR_CTRL_REG1_A,
 1597              		.loc 1 749 5 is_stmt 1 view .LVU370
 749:Drivers/lsm303agr/Src/lsm303agr_reg.c ****     ret = lsm303agr_write_reg(ctx, LSM303AGR_CTRL_REG1_A,
 1598              		.loc 1 749 21 is_stmt 0 view .LVU371
 1599 0018 9DF80430 		ldrb	r3, [sp, #4]	@ zero_extendqisi2
 1600 001c 65F30713 		bfi	r3, r5, #4, #4
 1601 0020 8DF80430 		strb	r3, [sp, #4]
 750:Drivers/lsm303agr/Src/lsm303agr_reg.c ****                               (uint8_t *)&ctrl_reg1_a, 1);
 1602              		.loc 1 750 5 is_stmt 1 view .LVU372
 750:Drivers/lsm303agr/Src/lsm303agr_reg.c ****                               (uint8_t *)&ctrl_reg1_a, 1);
 1603              		.loc 1 750 11 is_stmt 0 view .LVU373
 1604 0024 0123     		movs	r3, #1
 1605              	.LVL99:
 750:Drivers/lsm303agr/Src/lsm303agr_reg.c ****                               (uint8_t *)&ctrl_reg1_a, 1);
 1606              		.loc 1 750 11 view .LVU374
 1607 0026 01AA     		add	r2, sp, #4
 1608 0028 2021     		movs	r1, #32
 1609 002a 2046     		mov	r0, r4
 1610 002c FFF7FEFF 		bl	lsm303agr_write_reg
 1611              	.LVL100:
 754:Drivers/lsm303agr/Src/lsm303agr_reg.c **** }
 1612              		.loc 1 754 3 is_stmt 1 view .LVU375
 754:Drivers/lsm303agr/Src/lsm303agr_reg.c **** }
 1613              		.loc 1 754 10 is_stmt 0 view .LVU376
 1614 0030 F0E7     		b	.L103
 1615              		.cfi_endproc
 1616              	.LFE164:
 1618              		.section	.text.lsm303agr_xl_data_rate_get,"ax",%progbits
 1619              		.align	1
 1620              		.global	lsm303agr_xl_data_rate_get
 1621              		.syntax unified
 1622              		.thumb
 1623              		.thumb_func
 1625              	lsm303agr_xl_data_rate_get:
 1626              	.LVL101:
 1627              	.LFB165:
 756:Drivers/lsm303agr/Src/lsm303agr_reg.c **** 
 757:Drivers/lsm303agr/Src/lsm303agr_reg.c **** /**
 758:Drivers/lsm303agr/Src/lsm303agr_reg.c ****   * @brief  Output data rate selection.[get]
 759:Drivers/lsm303agr/Src/lsm303agr_reg.c ****   *
 760:Drivers/lsm303agr/Src/lsm303agr_reg.c ****   * @param  ctx    Read / write interface definitions.(ptr)
 761:Drivers/lsm303agr/Src/lsm303agr_reg.c ****   * @param  val    Get the values of odr in reg CTRL_REG1_A.(ptr)
 762:Drivers/lsm303agr/Src/lsm303agr_reg.c ****   * @retval        Interface status (MANDATORY: return 0 -> no Error).
 763:Drivers/lsm303agr/Src/lsm303agr_reg.c ****   *
 764:Drivers/lsm303agr/Src/lsm303agr_reg.c ****   */
 765:Drivers/lsm303agr/Src/lsm303agr_reg.c **** int32_t lsm303agr_xl_data_rate_get(stmdev_ctx_t *ctx,
 766:Drivers/lsm303agr/Src/lsm303agr_reg.c ****                                    lsm303agr_odr_a_t *val)
 767:Drivers/lsm303agr/Src/lsm303agr_reg.c **** {
 1628              		.loc 1 767 1 is_stmt 1 view -0
 1629              		.cfi_startproc
ARM GAS  C:\Users\SF\AppData\Local\Temp\ccFGOSN0.s 			page 43


 1630              		@ args = 0, pretend = 0, frame = 8
 1631              		@ frame_needed = 0, uses_anonymous_args = 0
 1632              		.loc 1 767 1 is_stmt 0 view .LVU378
 1633 0000 10B5     		push	{r4, lr}
 1634              	.LCFI41:
 1635              		.cfi_def_cfa_offset 8
 1636              		.cfi_offset 4, -8
 1637              		.cfi_offset 14, -4
 1638 0002 82B0     		sub	sp, sp, #8
 1639              	.LCFI42:
 1640              		.cfi_def_cfa_offset 16
 1641 0004 0C46     		mov	r4, r1
 768:Drivers/lsm303agr/Src/lsm303agr_reg.c ****   lsm303agr_ctrl_reg1_a_t ctrl_reg1_a;
 1642              		.loc 1 768 3 is_stmt 1 view .LVU379
 769:Drivers/lsm303agr/Src/lsm303agr_reg.c ****   int32_t ret;
 1643              		.loc 1 769 3 view .LVU380
 770:Drivers/lsm303agr/Src/lsm303agr_reg.c **** 
 771:Drivers/lsm303agr/Src/lsm303agr_reg.c ****   ret = lsm303agr_read_reg(ctx, LSM303AGR_CTRL_REG1_A,
 1644              		.loc 1 771 3 view .LVU381
 1645              		.loc 1 771 9 is_stmt 0 view .LVU382
 1646 0006 0123     		movs	r3, #1
 1647 0008 01AA     		add	r2, sp, #4
 1648 000a 2021     		movs	r1, #32
 1649              	.LVL102:
 1650              		.loc 1 771 9 view .LVU383
 1651 000c FFF7FEFF 		bl	lsm303agr_read_reg
 1652              	.LVL103:
 772:Drivers/lsm303agr/Src/lsm303agr_reg.c ****                            (uint8_t *)&ctrl_reg1_a, 1);
 773:Drivers/lsm303agr/Src/lsm303agr_reg.c **** 
 774:Drivers/lsm303agr/Src/lsm303agr_reg.c ****   switch (ctrl_reg1_a.odr)
 1653              		.loc 1 774 3 is_stmt 1 view .LVU384
 1654              		.loc 1 774 22 is_stmt 0 view .LVU385
 1655 0010 9DF80430 		ldrb	r3, [sp, #4]	@ zero_extendqisi2
 1656 0014 1B09     		lsrs	r3, r3, #4
 1657              		.loc 1 774 3 view .LVU386
 1658 0016 092B     		cmp	r3, #9
 1659 0018 25D8     		bhi	.L108
 1660 001a DFE803F0 		tbb	[pc, r3]
 1661              	.L110:
 1662 001e 05       		.byte	(.L119-.L110)/2
 1663 001f 09       		.byte	(.L118-.L110)/2
 1664 0020 0C       		.byte	(.L117-.L110)/2
 1665 0021 0F       		.byte	(.L116-.L110)/2
 1666 0022 12       		.byte	(.L115-.L110)/2
 1667 0023 15       		.byte	(.L114-.L110)/2
 1668 0024 18       		.byte	(.L113-.L110)/2
 1669 0025 1B       		.byte	(.L112-.L110)/2
 1670 0026 1E       		.byte	(.L111-.L110)/2
 1671 0027 21       		.byte	(.L109-.L110)/2
 1672              		.p2align 1
 1673              	.L119:
 775:Drivers/lsm303agr/Src/lsm303agr_reg.c ****   {
 776:Drivers/lsm303agr/Src/lsm303agr_reg.c ****     case LSM303AGR_XL_POWER_DOWN:
 777:Drivers/lsm303agr/Src/lsm303agr_reg.c ****       *val = LSM303AGR_XL_POWER_DOWN;
 1674              		.loc 1 777 7 is_stmt 1 view .LVU387
 1675              		.loc 1 777 12 is_stmt 0 view .LVU388
 1676 0028 0023     		movs	r3, #0
ARM GAS  C:\Users\SF\AppData\Local\Temp\ccFGOSN0.s 			page 44


 1677 002a 2370     		strb	r3, [r4]
 778:Drivers/lsm303agr/Src/lsm303agr_reg.c ****       break;
 1678              		.loc 1 778 7 is_stmt 1 view .LVU389
 1679              	.L107:
 779:Drivers/lsm303agr/Src/lsm303agr_reg.c **** 
 780:Drivers/lsm303agr/Src/lsm303agr_reg.c ****     case LSM303AGR_XL_ODR_1Hz:
 781:Drivers/lsm303agr/Src/lsm303agr_reg.c ****       *val = LSM303AGR_XL_ODR_1Hz;
 782:Drivers/lsm303agr/Src/lsm303agr_reg.c ****       break;
 783:Drivers/lsm303agr/Src/lsm303agr_reg.c **** 
 784:Drivers/lsm303agr/Src/lsm303agr_reg.c ****     case LSM303AGR_XL_ODR_10Hz:
 785:Drivers/lsm303agr/Src/lsm303agr_reg.c ****       *val = LSM303AGR_XL_ODR_10Hz;
 786:Drivers/lsm303agr/Src/lsm303agr_reg.c ****       break;
 787:Drivers/lsm303agr/Src/lsm303agr_reg.c **** 
 788:Drivers/lsm303agr/Src/lsm303agr_reg.c ****     case LSM303AGR_XL_ODR_25Hz:
 789:Drivers/lsm303agr/Src/lsm303agr_reg.c ****       *val = LSM303AGR_XL_ODR_25Hz;
 790:Drivers/lsm303agr/Src/lsm303agr_reg.c ****       break;
 791:Drivers/lsm303agr/Src/lsm303agr_reg.c **** 
 792:Drivers/lsm303agr/Src/lsm303agr_reg.c ****     case LSM303AGR_XL_ODR_50Hz:
 793:Drivers/lsm303agr/Src/lsm303agr_reg.c ****       *val = LSM303AGR_XL_ODR_50Hz;
 794:Drivers/lsm303agr/Src/lsm303agr_reg.c ****       break;
 795:Drivers/lsm303agr/Src/lsm303agr_reg.c **** 
 796:Drivers/lsm303agr/Src/lsm303agr_reg.c ****     case LSM303AGR_XL_ODR_100Hz:
 797:Drivers/lsm303agr/Src/lsm303agr_reg.c ****       *val = LSM303AGR_XL_ODR_100Hz;
 798:Drivers/lsm303agr/Src/lsm303agr_reg.c ****       break;
 799:Drivers/lsm303agr/Src/lsm303agr_reg.c **** 
 800:Drivers/lsm303agr/Src/lsm303agr_reg.c ****     case LSM303AGR_XL_ODR_200Hz:
 801:Drivers/lsm303agr/Src/lsm303agr_reg.c ****       *val = LSM303AGR_XL_ODR_200Hz;
 802:Drivers/lsm303agr/Src/lsm303agr_reg.c ****       break;
 803:Drivers/lsm303agr/Src/lsm303agr_reg.c **** 
 804:Drivers/lsm303agr/Src/lsm303agr_reg.c ****     case LSM303AGR_XL_ODR_400Hz:
 805:Drivers/lsm303agr/Src/lsm303agr_reg.c ****       *val = LSM303AGR_XL_ODR_400Hz;
 806:Drivers/lsm303agr/Src/lsm303agr_reg.c ****       break;
 807:Drivers/lsm303agr/Src/lsm303agr_reg.c **** 
 808:Drivers/lsm303agr/Src/lsm303agr_reg.c ****     case LSM303AGR_XL_ODR_1kHz620_LP:
 809:Drivers/lsm303agr/Src/lsm303agr_reg.c ****       *val = LSM303AGR_XL_ODR_1kHz620_LP;
 810:Drivers/lsm303agr/Src/lsm303agr_reg.c ****       break;
 811:Drivers/lsm303agr/Src/lsm303agr_reg.c **** 
 812:Drivers/lsm303agr/Src/lsm303agr_reg.c ****     case LSM303AGR_XL_ODR_1kHz344_NM_HP_5kHz376_LP:
 813:Drivers/lsm303agr/Src/lsm303agr_reg.c ****       *val = LSM303AGR_XL_ODR_1kHz344_NM_HP_5kHz376_LP;
 814:Drivers/lsm303agr/Src/lsm303agr_reg.c ****       break;
 815:Drivers/lsm303agr/Src/lsm303agr_reg.c **** 
 816:Drivers/lsm303agr/Src/lsm303agr_reg.c ****     default:
 817:Drivers/lsm303agr/Src/lsm303agr_reg.c ****       *val = LSM303AGR_XL_POWER_DOWN;
 818:Drivers/lsm303agr/Src/lsm303agr_reg.c ****       break;
 819:Drivers/lsm303agr/Src/lsm303agr_reg.c ****   }
 820:Drivers/lsm303agr/Src/lsm303agr_reg.c **** 
 821:Drivers/lsm303agr/Src/lsm303agr_reg.c ****   return ret;
 822:Drivers/lsm303agr/Src/lsm303agr_reg.c **** }
 1680              		.loc 1 822 1 is_stmt 0 view .LVU390
 1681 002c 02B0     		add	sp, sp, #8
 1682              	.LCFI43:
 1683              		.cfi_remember_state
 1684              		.cfi_def_cfa_offset 8
 1685              		@ sp needed
 1686 002e 10BD     		pop	{r4, pc}
 1687              	.LVL104:
 1688              	.L118:
ARM GAS  C:\Users\SF\AppData\Local\Temp\ccFGOSN0.s 			page 45


 1689              	.LCFI44:
 1690              		.cfi_restore_state
 781:Drivers/lsm303agr/Src/lsm303agr_reg.c ****       break;
 1691              		.loc 1 781 7 is_stmt 1 view .LVU391
 781:Drivers/lsm303agr/Src/lsm303agr_reg.c ****       break;
 1692              		.loc 1 781 12 is_stmt 0 view .LVU392
 1693 0030 0123     		movs	r3, #1
 1694 0032 2370     		strb	r3, [r4]
 782:Drivers/lsm303agr/Src/lsm303agr_reg.c **** 
 1695              		.loc 1 782 7 is_stmt 1 view .LVU393
 1696 0034 FAE7     		b	.L107
 1697              	.L117:
 785:Drivers/lsm303agr/Src/lsm303agr_reg.c ****       break;
 1698              		.loc 1 785 7 view .LVU394
 785:Drivers/lsm303agr/Src/lsm303agr_reg.c ****       break;
 1699              		.loc 1 785 12 is_stmt 0 view .LVU395
 1700 0036 0223     		movs	r3, #2
 1701 0038 2370     		strb	r3, [r4]
 786:Drivers/lsm303agr/Src/lsm303agr_reg.c **** 
 1702              		.loc 1 786 7 is_stmt 1 view .LVU396
 1703 003a F7E7     		b	.L107
 1704              	.L116:
 789:Drivers/lsm303agr/Src/lsm303agr_reg.c ****       break;
 1705              		.loc 1 789 7 view .LVU397
 789:Drivers/lsm303agr/Src/lsm303agr_reg.c ****       break;
 1706              		.loc 1 789 12 is_stmt 0 view .LVU398
 1707 003c 0323     		movs	r3, #3
 1708 003e 2370     		strb	r3, [r4]
 790:Drivers/lsm303agr/Src/lsm303agr_reg.c **** 
 1709              		.loc 1 790 7 is_stmt 1 view .LVU399
 1710 0040 F4E7     		b	.L107
 1711              	.L115:
 793:Drivers/lsm303agr/Src/lsm303agr_reg.c ****       break;
 1712              		.loc 1 793 7 view .LVU400
 793:Drivers/lsm303agr/Src/lsm303agr_reg.c ****       break;
 1713              		.loc 1 793 12 is_stmt 0 view .LVU401
 1714 0042 0423     		movs	r3, #4
 1715 0044 2370     		strb	r3, [r4]
 794:Drivers/lsm303agr/Src/lsm303agr_reg.c **** 
 1716              		.loc 1 794 7 is_stmt 1 view .LVU402
 1717 0046 F1E7     		b	.L107
 1718              	.L114:
 797:Drivers/lsm303agr/Src/lsm303agr_reg.c ****       break;
 1719              		.loc 1 797 7 view .LVU403
 797:Drivers/lsm303agr/Src/lsm303agr_reg.c ****       break;
 1720              		.loc 1 797 12 is_stmt 0 view .LVU404
 1721 0048 0523     		movs	r3, #5
 1722 004a 2370     		strb	r3, [r4]
 798:Drivers/lsm303agr/Src/lsm303agr_reg.c **** 
 1723              		.loc 1 798 7 is_stmt 1 view .LVU405
 1724 004c EEE7     		b	.L107
 1725              	.L113:
 801:Drivers/lsm303agr/Src/lsm303agr_reg.c ****       break;
 1726              		.loc 1 801 7 view .LVU406
 801:Drivers/lsm303agr/Src/lsm303agr_reg.c ****       break;
 1727              		.loc 1 801 12 is_stmt 0 view .LVU407
 1728 004e 0623     		movs	r3, #6
ARM GAS  C:\Users\SF\AppData\Local\Temp\ccFGOSN0.s 			page 46


 1729 0050 2370     		strb	r3, [r4]
 802:Drivers/lsm303agr/Src/lsm303agr_reg.c **** 
 1730              		.loc 1 802 7 is_stmt 1 view .LVU408
 1731 0052 EBE7     		b	.L107
 1732              	.L112:
 805:Drivers/lsm303agr/Src/lsm303agr_reg.c ****       break;
 1733              		.loc 1 805 7 view .LVU409
 805:Drivers/lsm303agr/Src/lsm303agr_reg.c ****       break;
 1734              		.loc 1 805 12 is_stmt 0 view .LVU410
 1735 0054 0723     		movs	r3, #7
 1736 0056 2370     		strb	r3, [r4]
 806:Drivers/lsm303agr/Src/lsm303agr_reg.c **** 
 1737              		.loc 1 806 7 is_stmt 1 view .LVU411
 1738 0058 E8E7     		b	.L107
 1739              	.L111:
 809:Drivers/lsm303agr/Src/lsm303agr_reg.c ****       break;
 1740              		.loc 1 809 7 view .LVU412
 809:Drivers/lsm303agr/Src/lsm303agr_reg.c ****       break;
 1741              		.loc 1 809 12 is_stmt 0 view .LVU413
 1742 005a 0823     		movs	r3, #8
 1743 005c 2370     		strb	r3, [r4]
 810:Drivers/lsm303agr/Src/lsm303agr_reg.c **** 
 1744              		.loc 1 810 7 is_stmt 1 view .LVU414
 1745 005e E5E7     		b	.L107
 1746              	.L109:
 813:Drivers/lsm303agr/Src/lsm303agr_reg.c ****       break;
 1747              		.loc 1 813 7 view .LVU415
 813:Drivers/lsm303agr/Src/lsm303agr_reg.c ****       break;
 1748              		.loc 1 813 12 is_stmt 0 view .LVU416
 1749 0060 0923     		movs	r3, #9
 1750 0062 2370     		strb	r3, [r4]
 814:Drivers/lsm303agr/Src/lsm303agr_reg.c **** 
 1751              		.loc 1 814 7 is_stmt 1 view .LVU417
 1752 0064 E2E7     		b	.L107
 1753              	.L108:
 817:Drivers/lsm303agr/Src/lsm303agr_reg.c ****       break;
 1754              		.loc 1 817 7 view .LVU418
 817:Drivers/lsm303agr/Src/lsm303agr_reg.c ****       break;
 1755              		.loc 1 817 12 is_stmt 0 view .LVU419
 1756 0066 0023     		movs	r3, #0
 1757 0068 2370     		strb	r3, [r4]
 818:Drivers/lsm303agr/Src/lsm303agr_reg.c ****   }
 1758              		.loc 1 818 7 is_stmt 1 view .LVU420
 821:Drivers/lsm303agr/Src/lsm303agr_reg.c **** }
 1759              		.loc 1 821 3 view .LVU421
 821:Drivers/lsm303agr/Src/lsm303agr_reg.c **** }
 1760              		.loc 1 821 10 is_stmt 0 view .LVU422
 1761 006a DFE7     		b	.L107
 1762              		.cfi_endproc
 1763              	.LFE165:
 1765              		.section	.text.lsm303agr_xl_high_pass_on_outputs_set,"ax",%progbits
 1766              		.align	1
 1767              		.global	lsm303agr_xl_high_pass_on_outputs_set
 1768              		.syntax unified
 1769              		.thumb
 1770              		.thumb_func
 1772              	lsm303agr_xl_high_pass_on_outputs_set:
ARM GAS  C:\Users\SF\AppData\Local\Temp\ccFGOSN0.s 			page 47


 1773              	.LVL105:
 1774              	.LFB166:
 823:Drivers/lsm303agr/Src/lsm303agr_reg.c **** 
 824:Drivers/lsm303agr/Src/lsm303agr_reg.c **** /**
 825:Drivers/lsm303agr/Src/lsm303agr_reg.c ****   * @brief   High pass data from internal filter sent to output register and FIFO.[set]
 826:Drivers/lsm303agr/Src/lsm303agr_reg.c ****   *
 827:Drivers/lsm303agr/Src/lsm303agr_reg.c ****   * @param  ctx    Read / write interface definitions.(ptr)
 828:Drivers/lsm303agr/Src/lsm303agr_reg.c ****   * @param  val    Change the values of fds in reg CTRL_REG2_A
 829:Drivers/lsm303agr/Src/lsm303agr_reg.c ****   * @retval        Interface status (MANDATORY: return 0 -> no Error).
 830:Drivers/lsm303agr/Src/lsm303agr_reg.c ****   *
 831:Drivers/lsm303agr/Src/lsm303agr_reg.c ****   */
 832:Drivers/lsm303agr/Src/lsm303agr_reg.c **** int32_t lsm303agr_xl_high_pass_on_outputs_set(stmdev_ctx_t *ctx,
 833:Drivers/lsm303agr/Src/lsm303agr_reg.c ****                                               uint8_t val)
 834:Drivers/lsm303agr/Src/lsm303agr_reg.c **** {
 1775              		.loc 1 834 1 is_stmt 1 view -0
 1776              		.cfi_startproc
 1777              		@ args = 0, pretend = 0, frame = 8
 1778              		@ frame_needed = 0, uses_anonymous_args = 0
 1779              		.loc 1 834 1 is_stmt 0 view .LVU424
 1780 0000 30B5     		push	{r4, r5, lr}
 1781              	.LCFI45:
 1782              		.cfi_def_cfa_offset 12
 1783              		.cfi_offset 4, -12
 1784              		.cfi_offset 5, -8
 1785              		.cfi_offset 14, -4
 1786 0002 83B0     		sub	sp, sp, #12
 1787              	.LCFI46:
 1788              		.cfi_def_cfa_offset 24
 1789 0004 0446     		mov	r4, r0
 1790 0006 0D46     		mov	r5, r1
 835:Drivers/lsm303agr/Src/lsm303agr_reg.c ****   lsm303agr_ctrl_reg2_a_t ctrl_reg2_a;
 1791              		.loc 1 835 3 is_stmt 1 view .LVU425
 836:Drivers/lsm303agr/Src/lsm303agr_reg.c ****   int32_t ret;
 1792              		.loc 1 836 3 view .LVU426
 837:Drivers/lsm303agr/Src/lsm303agr_reg.c **** 
 838:Drivers/lsm303agr/Src/lsm303agr_reg.c ****   ret = lsm303agr_read_reg(ctx, LSM303AGR_CTRL_REG2_A,
 1793              		.loc 1 838 3 view .LVU427
 1794              		.loc 1 838 9 is_stmt 0 view .LVU428
 1795 0008 0123     		movs	r3, #1
 1796 000a 01AA     		add	r2, sp, #4
 1797 000c 2121     		movs	r1, #33
 1798              	.LVL106:
 1799              		.loc 1 838 9 view .LVU429
 1800 000e FFF7FEFF 		bl	lsm303agr_read_reg
 1801              	.LVL107:
 839:Drivers/lsm303agr/Src/lsm303agr_reg.c ****                            (uint8_t *)&ctrl_reg2_a, 1);
 840:Drivers/lsm303agr/Src/lsm303agr_reg.c **** 
 841:Drivers/lsm303agr/Src/lsm303agr_reg.c ****   if (ret == 0)
 1802              		.loc 1 841 3 is_stmt 1 view .LVU430
 1803              		.loc 1 841 6 is_stmt 0 view .LVU431
 1804 0012 08B1     		cbz	r0, .L125
 1805              	.LVL108:
 1806              	.L122:
 842:Drivers/lsm303agr/Src/lsm303agr_reg.c ****   {
 843:Drivers/lsm303agr/Src/lsm303agr_reg.c ****     ctrl_reg2_a.fds = (uint8_t)val;
 844:Drivers/lsm303agr/Src/lsm303agr_reg.c ****     ret = lsm303agr_write_reg(ctx, LSM303AGR_CTRL_REG2_A,
 845:Drivers/lsm303agr/Src/lsm303agr_reg.c ****                               (uint8_t *)&ctrl_reg2_a, 1);
ARM GAS  C:\Users\SF\AppData\Local\Temp\ccFGOSN0.s 			page 48


 846:Drivers/lsm303agr/Src/lsm303agr_reg.c ****   }
 847:Drivers/lsm303agr/Src/lsm303agr_reg.c **** 
 848:Drivers/lsm303agr/Src/lsm303agr_reg.c ****   return ret;
 849:Drivers/lsm303agr/Src/lsm303agr_reg.c **** }
 1807              		.loc 1 849 1 view .LVU432
 1808 0014 03B0     		add	sp, sp, #12
 1809              	.LCFI47:
 1810              		.cfi_remember_state
 1811              		.cfi_def_cfa_offset 12
 1812              		@ sp needed
 1813 0016 30BD     		pop	{r4, r5, pc}
 1814              	.LVL109:
 1815              	.L125:
 1816              	.LCFI48:
 1817              		.cfi_restore_state
 843:Drivers/lsm303agr/Src/lsm303agr_reg.c ****     ret = lsm303agr_write_reg(ctx, LSM303AGR_CTRL_REG2_A,
 1818              		.loc 1 843 5 is_stmt 1 view .LVU433
 843:Drivers/lsm303agr/Src/lsm303agr_reg.c ****     ret = lsm303agr_write_reg(ctx, LSM303AGR_CTRL_REG2_A,
 1819              		.loc 1 843 21 is_stmt 0 view .LVU434
 1820 0018 9DF80430 		ldrb	r3, [sp, #4]	@ zero_extendqisi2
 1821 001c 65F3C303 		bfi	r3, r5, #3, #1
 1822 0020 8DF80430 		strb	r3, [sp, #4]
 844:Drivers/lsm303agr/Src/lsm303agr_reg.c ****                               (uint8_t *)&ctrl_reg2_a, 1);
 1823              		.loc 1 844 5 is_stmt 1 view .LVU435
 844:Drivers/lsm303agr/Src/lsm303agr_reg.c ****                               (uint8_t *)&ctrl_reg2_a, 1);
 1824              		.loc 1 844 11 is_stmt 0 view .LVU436
 1825 0024 0123     		movs	r3, #1
 1826              	.LVL110:
 844:Drivers/lsm303agr/Src/lsm303agr_reg.c ****                               (uint8_t *)&ctrl_reg2_a, 1);
 1827              		.loc 1 844 11 view .LVU437
 1828 0026 01AA     		add	r2, sp, #4
 1829 0028 2121     		movs	r1, #33
 1830 002a 2046     		mov	r0, r4
 1831 002c FFF7FEFF 		bl	lsm303agr_write_reg
 1832              	.LVL111:
 848:Drivers/lsm303agr/Src/lsm303agr_reg.c **** }
 1833              		.loc 1 848 3 is_stmt 1 view .LVU438
 848:Drivers/lsm303agr/Src/lsm303agr_reg.c **** }
 1834              		.loc 1 848 10 is_stmt 0 view .LVU439
 1835 0030 F0E7     		b	.L122
 1836              		.cfi_endproc
 1837              	.LFE166:
 1839              		.section	.text.lsm303agr_xl_high_pass_on_outputs_get,"ax",%progbits
 1840              		.align	1
 1841              		.global	lsm303agr_xl_high_pass_on_outputs_get
 1842              		.syntax unified
 1843              		.thumb
 1844              		.thumb_func
 1846              	lsm303agr_xl_high_pass_on_outputs_get:
 1847              	.LVL112:
 1848              	.LFB167:
 850:Drivers/lsm303agr/Src/lsm303agr_reg.c **** 
 851:Drivers/lsm303agr/Src/lsm303agr_reg.c **** /**
 852:Drivers/lsm303agr/Src/lsm303agr_reg.c ****   * @brief  High pass data from internal filter sent to output
 853:Drivers/lsm303agr/Src/lsm303agr_reg.c ****   *         register and FIFO.[get]
 854:Drivers/lsm303agr/Src/lsm303agr_reg.c ****   *
 855:Drivers/lsm303agr/Src/lsm303agr_reg.c ****   * @param  ctx    Read / write interface definitions.(ptr)
ARM GAS  C:\Users\SF\AppData\Local\Temp\ccFGOSN0.s 			page 49


 856:Drivers/lsm303agr/Src/lsm303agr_reg.c ****   * @param  val    Get the values of fds in reg CTRL_REG2_A.(ptr)
 857:Drivers/lsm303agr/Src/lsm303agr_reg.c ****   * @retval        Interface status (MANDATORY: return 0 -> no Error).
 858:Drivers/lsm303agr/Src/lsm303agr_reg.c ****   *
 859:Drivers/lsm303agr/Src/lsm303agr_reg.c ****   */
 860:Drivers/lsm303agr/Src/lsm303agr_reg.c **** int32_t lsm303agr_xl_high_pass_on_outputs_get(stmdev_ctx_t *ctx,
 861:Drivers/lsm303agr/Src/lsm303agr_reg.c ****                                               uint8_t *val)
 862:Drivers/lsm303agr/Src/lsm303agr_reg.c **** {
 1849              		.loc 1 862 1 is_stmt 1 view -0
 1850              		.cfi_startproc
 1851              		@ args = 0, pretend = 0, frame = 8
 1852              		@ frame_needed = 0, uses_anonymous_args = 0
 1853              		.loc 1 862 1 is_stmt 0 view .LVU441
 1854 0000 10B5     		push	{r4, lr}
 1855              	.LCFI49:
 1856              		.cfi_def_cfa_offset 8
 1857              		.cfi_offset 4, -8
 1858              		.cfi_offset 14, -4
 1859 0002 82B0     		sub	sp, sp, #8
 1860              	.LCFI50:
 1861              		.cfi_def_cfa_offset 16
 1862 0004 0C46     		mov	r4, r1
 863:Drivers/lsm303agr/Src/lsm303agr_reg.c ****   lsm303agr_ctrl_reg2_a_t ctrl_reg2_a;
 1863              		.loc 1 863 3 is_stmt 1 view .LVU442
 864:Drivers/lsm303agr/Src/lsm303agr_reg.c ****   int32_t ret;
 1864              		.loc 1 864 3 view .LVU443
 865:Drivers/lsm303agr/Src/lsm303agr_reg.c **** 
 866:Drivers/lsm303agr/Src/lsm303agr_reg.c ****   ret = lsm303agr_read_reg(ctx, LSM303AGR_CTRL_REG2_A,
 1865              		.loc 1 866 3 view .LVU444
 1866              		.loc 1 866 9 is_stmt 0 view .LVU445
 1867 0006 0123     		movs	r3, #1
 1868 0008 01AA     		add	r2, sp, #4
 1869 000a 2121     		movs	r1, #33
 1870              	.LVL113:
 1871              		.loc 1 866 9 view .LVU446
 1872 000c FFF7FEFF 		bl	lsm303agr_read_reg
 1873              	.LVL114:
 867:Drivers/lsm303agr/Src/lsm303agr_reg.c ****                            (uint8_t *)&ctrl_reg2_a, 1);
 868:Drivers/lsm303agr/Src/lsm303agr_reg.c ****   *val = ctrl_reg2_a.fds;
 1874              		.loc 1 868 3 is_stmt 1 view .LVU447
 1875              		.loc 1 868 21 is_stmt 0 view .LVU448
 1876 0010 9DF80430 		ldrb	r3, [sp, #4]	@ zero_extendqisi2
 1877 0014 C3F3C003 		ubfx	r3, r3, #3, #1
 1878              		.loc 1 868 8 view .LVU449
 1879 0018 2370     		strb	r3, [r4]
 869:Drivers/lsm303agr/Src/lsm303agr_reg.c **** 
 870:Drivers/lsm303agr/Src/lsm303agr_reg.c ****   return ret;
 1880              		.loc 1 870 3 is_stmt 1 view .LVU450
 871:Drivers/lsm303agr/Src/lsm303agr_reg.c **** }
 1881              		.loc 1 871 1 is_stmt 0 view .LVU451
 1882 001a 02B0     		add	sp, sp, #8
 1883              	.LCFI51:
 1884              		.cfi_def_cfa_offset 8
 1885              		@ sp needed
 1886 001c 10BD     		pop	{r4, pc}
 1887              		.loc 1 871 1 view .LVU452
 1888              		.cfi_endproc
 1889              	.LFE167:
ARM GAS  C:\Users\SF\AppData\Local\Temp\ccFGOSN0.s 			page 50


 1891              		.section	.text.lsm303agr_xl_high_pass_bandwidth_set,"ax",%progbits
 1892              		.align	1
 1893              		.global	lsm303agr_xl_high_pass_bandwidth_set
 1894              		.syntax unified
 1895              		.thumb
 1896              		.thumb_func
 1898              	lsm303agr_xl_high_pass_bandwidth_set:
 1899              	.LVL115:
 1900              	.LFB168:
 872:Drivers/lsm303agr/Src/lsm303agr_reg.c **** 
 873:Drivers/lsm303agr/Src/lsm303agr_reg.c **** /**
 874:Drivers/lsm303agr/Src/lsm303agr_reg.c ****   * @brief  High-pass filter cutoff frequency selection.[set]
 875:Drivers/lsm303agr/Src/lsm303agr_reg.c ****   *
 876:Drivers/lsm303agr/Src/lsm303agr_reg.c ****   *
 877:Drivers/lsm303agr/Src/lsm303agr_reg.c ****   * @param  ctx    Read / write interface definitions.(ptr)
 878:Drivers/lsm303agr/Src/lsm303agr_reg.c ****   * @param  val    Change the values of hpcf in reg CTRL_REG2_A
 879:Drivers/lsm303agr/Src/lsm303agr_reg.c ****   *
 880:Drivers/lsm303agr/Src/lsm303agr_reg.c ****   * HPCF[2:1]\ft @1Hz    @10Hz  @25Hz  @50Hz @100Hz @200Hz @400Hz @1kHz6 ft@5kHz
 881:Drivers/lsm303agr/Src/lsm303agr_reg.c ****   * AGGRESSIVE   0.02Hz  0.2Hz  0.5Hz  1Hz   2Hz    4Hz    8Hz    32Hz   100Hz
 882:Drivers/lsm303agr/Src/lsm303agr_reg.c ****   * STRONG       0.008Hz 0.08Hz 0.2Hz  0.5Hz 1Hz    2Hz    4Hz    16Hz   50Hz
 883:Drivers/lsm303agr/Src/lsm303agr_reg.c ****   * MEDIUM       0.004Hz 0.04Hz 0.1Hz  0.2Hz 0.5Hz  1Hz    2Hz    8Hz    25Hz
 884:Drivers/lsm303agr/Src/lsm303agr_reg.c ****   * LIGHT        0.002Hz 0.02Hz 0.05Hz 0.1Hz 0.2Hz  0.5Hz  1Hz    4Hz    12Hz
 885:Drivers/lsm303agr/Src/lsm303agr_reg.c ****   * @retval        Interface status (MANDATORY: return 0 -> no Error).
 886:Drivers/lsm303agr/Src/lsm303agr_reg.c ****   *
 887:Drivers/lsm303agr/Src/lsm303agr_reg.c ****   */
 888:Drivers/lsm303agr/Src/lsm303agr_reg.c **** int32_t lsm303agr_xl_high_pass_bandwidth_set(stmdev_ctx_t *ctx,
 889:Drivers/lsm303agr/Src/lsm303agr_reg.c ****                                              lsm303agr_hpcf_a_t val)
 890:Drivers/lsm303agr/Src/lsm303agr_reg.c **** {
 1901              		.loc 1 890 1 is_stmt 1 view -0
 1902              		.cfi_startproc
 1903              		@ args = 0, pretend = 0, frame = 8
 1904              		@ frame_needed = 0, uses_anonymous_args = 0
 1905              		.loc 1 890 1 is_stmt 0 view .LVU454
 1906 0000 30B5     		push	{r4, r5, lr}
 1907              	.LCFI52:
 1908              		.cfi_def_cfa_offset 12
 1909              		.cfi_offset 4, -12
 1910              		.cfi_offset 5, -8
 1911              		.cfi_offset 14, -4
 1912 0002 83B0     		sub	sp, sp, #12
 1913              	.LCFI53:
 1914              		.cfi_def_cfa_offset 24
 1915 0004 0446     		mov	r4, r0
 1916 0006 0D46     		mov	r5, r1
 891:Drivers/lsm303agr/Src/lsm303agr_reg.c ****   lsm303agr_ctrl_reg2_a_t ctrl_reg2_a;
 1917              		.loc 1 891 3 is_stmt 1 view .LVU455
 892:Drivers/lsm303agr/Src/lsm303agr_reg.c ****   int32_t ret;
 1918              		.loc 1 892 3 view .LVU456
 893:Drivers/lsm303agr/Src/lsm303agr_reg.c **** 
 894:Drivers/lsm303agr/Src/lsm303agr_reg.c ****   ret = lsm303agr_read_reg(ctx, LSM303AGR_CTRL_REG2_A,
 1919              		.loc 1 894 3 view .LVU457
 1920              		.loc 1 894 9 is_stmt 0 view .LVU458
 1921 0008 0123     		movs	r3, #1
 1922 000a 01AA     		add	r2, sp, #4
 1923 000c 2121     		movs	r1, #33
 1924              	.LVL116:
 1925              		.loc 1 894 9 view .LVU459
ARM GAS  C:\Users\SF\AppData\Local\Temp\ccFGOSN0.s 			page 51


 1926 000e FFF7FEFF 		bl	lsm303agr_read_reg
 1927              	.LVL117:
 895:Drivers/lsm303agr/Src/lsm303agr_reg.c ****                            (uint8_t *)&ctrl_reg2_a, 1);
 896:Drivers/lsm303agr/Src/lsm303agr_reg.c **** 
 897:Drivers/lsm303agr/Src/lsm303agr_reg.c ****   if (ret == 0)
 1928              		.loc 1 897 3 is_stmt 1 view .LVU460
 1929              		.loc 1 897 6 is_stmt 0 view .LVU461
 1930 0012 08B1     		cbz	r0, .L131
 1931              	.LVL118:
 1932              	.L128:
 898:Drivers/lsm303agr/Src/lsm303agr_reg.c ****   {
 899:Drivers/lsm303agr/Src/lsm303agr_reg.c ****     ctrl_reg2_a.hpcf = (uint8_t)val;
 900:Drivers/lsm303agr/Src/lsm303agr_reg.c ****     ret = lsm303agr_write_reg(ctx, LSM303AGR_CTRL_REG2_A,
 901:Drivers/lsm303agr/Src/lsm303agr_reg.c ****                               (uint8_t *)&ctrl_reg2_a, 1);
 902:Drivers/lsm303agr/Src/lsm303agr_reg.c ****   }
 903:Drivers/lsm303agr/Src/lsm303agr_reg.c **** 
 904:Drivers/lsm303agr/Src/lsm303agr_reg.c ****   return ret;
 905:Drivers/lsm303agr/Src/lsm303agr_reg.c **** }
 1933              		.loc 1 905 1 view .LVU462
 1934 0014 03B0     		add	sp, sp, #12
 1935              	.LCFI54:
 1936              		.cfi_remember_state
 1937              		.cfi_def_cfa_offset 12
 1938              		@ sp needed
 1939 0016 30BD     		pop	{r4, r5, pc}
 1940              	.LVL119:
 1941              	.L131:
 1942              	.LCFI55:
 1943              		.cfi_restore_state
 899:Drivers/lsm303agr/Src/lsm303agr_reg.c ****     ret = lsm303agr_write_reg(ctx, LSM303AGR_CTRL_REG2_A,
 1944              		.loc 1 899 5 is_stmt 1 view .LVU463
 899:Drivers/lsm303agr/Src/lsm303agr_reg.c ****     ret = lsm303agr_write_reg(ctx, LSM303AGR_CTRL_REG2_A,
 1945              		.loc 1 899 22 is_stmt 0 view .LVU464
 1946 0018 9DF80430 		ldrb	r3, [sp, #4]	@ zero_extendqisi2
 1947 001c 65F30513 		bfi	r3, r5, #4, #2
 1948 0020 8DF80430 		strb	r3, [sp, #4]
 900:Drivers/lsm303agr/Src/lsm303agr_reg.c ****                               (uint8_t *)&ctrl_reg2_a, 1);
 1949              		.loc 1 900 5 is_stmt 1 view .LVU465
 900:Drivers/lsm303agr/Src/lsm303agr_reg.c ****                               (uint8_t *)&ctrl_reg2_a, 1);
 1950              		.loc 1 900 11 is_stmt 0 view .LVU466
 1951 0024 0123     		movs	r3, #1
 1952              	.LVL120:
 900:Drivers/lsm303agr/Src/lsm303agr_reg.c ****                               (uint8_t *)&ctrl_reg2_a, 1);
 1953              		.loc 1 900 11 view .LVU467
 1954 0026 01AA     		add	r2, sp, #4
 1955 0028 2121     		movs	r1, #33
 1956 002a 2046     		mov	r0, r4
 1957 002c FFF7FEFF 		bl	lsm303agr_write_reg
 1958              	.LVL121:
 904:Drivers/lsm303agr/Src/lsm303agr_reg.c **** }
 1959              		.loc 1 904 3 is_stmt 1 view .LVU468
 904:Drivers/lsm303agr/Src/lsm303agr_reg.c **** }
 1960              		.loc 1 904 10 is_stmt 0 view .LVU469
 1961 0030 F0E7     		b	.L128
 1962              		.cfi_endproc
 1963              	.LFE168:
 1965              		.section	.text.lsm303agr_xl_high_pass_bandwidth_get,"ax",%progbits
ARM GAS  C:\Users\SF\AppData\Local\Temp\ccFGOSN0.s 			page 52


 1966              		.align	1
 1967              		.global	lsm303agr_xl_high_pass_bandwidth_get
 1968              		.syntax unified
 1969              		.thumb
 1970              		.thumb_func
 1972              	lsm303agr_xl_high_pass_bandwidth_get:
 1973              	.LVL122:
 1974              	.LFB169:
 906:Drivers/lsm303agr/Src/lsm303agr_reg.c **** 
 907:Drivers/lsm303agr/Src/lsm303agr_reg.c **** /**
 908:Drivers/lsm303agr/Src/lsm303agr_reg.c ****   * @brief  High-pass filter cutoff frequency selection.[get]
 909:Drivers/lsm303agr/Src/lsm303agr_reg.c ****   *
 910:Drivers/lsm303agr/Src/lsm303agr_reg.c ****   * @param  ctx    Read / write interface definitions.(ptr)
 911:Drivers/lsm303agr/Src/lsm303agr_reg.c ****   * @param  val    Get the values of hpcf in reg CTRL_REG2_A.(ptr)
 912:Drivers/lsm303agr/Src/lsm303agr_reg.c ****   *
 913:Drivers/lsm303agr/Src/lsm303agr_reg.c ****   * HPCF[2:1]\ft @1Hz    @10Hz  @25Hz  @50Hz @100Hz @200Hz @400Hz @1kHz6 ft@5kHz
 914:Drivers/lsm303agr/Src/lsm303agr_reg.c ****   * AGGRESSIVE   0.02Hz  0.2Hz  0.5Hz  1Hz   2Hz    4Hz    8Hz    32Hz   100Hz
 915:Drivers/lsm303agr/Src/lsm303agr_reg.c ****   * STRONG       0.008Hz 0.08Hz 0.2Hz  0.5Hz 1Hz    2Hz    4Hz    16Hz   50Hz
 916:Drivers/lsm303agr/Src/lsm303agr_reg.c ****   * MEDIUM       0.004Hz 0.04Hz 0.1Hz  0.2Hz 0.5Hz  1Hz    2Hz    8Hz    25Hz
 917:Drivers/lsm303agr/Src/lsm303agr_reg.c ****   * LIGHT        0.002Hz 0.02Hz 0.05Hz 0.1Hz 0.2Hz  0.5Hz  1Hz    4Hz    12Hz
 918:Drivers/lsm303agr/Src/lsm303agr_reg.c ****   *
 919:Drivers/lsm303agr/Src/lsm303agr_reg.c ****   * @retval        Interface status (MANDATORY: return 0 -> no Error).
 920:Drivers/lsm303agr/Src/lsm303agr_reg.c ****   *
 921:Drivers/lsm303agr/Src/lsm303agr_reg.c ****   */
 922:Drivers/lsm303agr/Src/lsm303agr_reg.c **** int32_t lsm303agr_xl_high_pass_bandwidth_get(stmdev_ctx_t *ctx,
 923:Drivers/lsm303agr/Src/lsm303agr_reg.c ****                                              lsm303agr_hpcf_a_t *val)
 924:Drivers/lsm303agr/Src/lsm303agr_reg.c **** {
 1975              		.loc 1 924 1 is_stmt 1 view -0
 1976              		.cfi_startproc
 1977              		@ args = 0, pretend = 0, frame = 8
 1978              		@ frame_needed = 0, uses_anonymous_args = 0
 1979              		.loc 1 924 1 is_stmt 0 view .LVU471
 1980 0000 10B5     		push	{r4, lr}
 1981              	.LCFI56:
 1982              		.cfi_def_cfa_offset 8
 1983              		.cfi_offset 4, -8
 1984              		.cfi_offset 14, -4
 1985 0002 82B0     		sub	sp, sp, #8
 1986              	.LCFI57:
 1987              		.cfi_def_cfa_offset 16
 1988 0004 0C46     		mov	r4, r1
 925:Drivers/lsm303agr/Src/lsm303agr_reg.c ****   lsm303agr_ctrl_reg2_a_t ctrl_reg2_a;
 1989              		.loc 1 925 3 is_stmt 1 view .LVU472
 926:Drivers/lsm303agr/Src/lsm303agr_reg.c ****   int32_t ret;
 1990              		.loc 1 926 3 view .LVU473
 927:Drivers/lsm303agr/Src/lsm303agr_reg.c **** 
 928:Drivers/lsm303agr/Src/lsm303agr_reg.c ****   ret = lsm303agr_read_reg(ctx, LSM303AGR_CTRL_REG2_A,
 1991              		.loc 1 928 3 view .LVU474
 1992              		.loc 1 928 9 is_stmt 0 view .LVU475
 1993 0006 0123     		movs	r3, #1
 1994 0008 01AA     		add	r2, sp, #4
 1995 000a 2121     		movs	r1, #33
 1996              	.LVL123:
 1997              		.loc 1 928 9 view .LVU476
 1998 000c FFF7FEFF 		bl	lsm303agr_read_reg
 1999              	.LVL124:
 929:Drivers/lsm303agr/Src/lsm303agr_reg.c ****                            (uint8_t *)&ctrl_reg2_a, 1);
ARM GAS  C:\Users\SF\AppData\Local\Temp\ccFGOSN0.s 			page 53


 930:Drivers/lsm303agr/Src/lsm303agr_reg.c **** 
 931:Drivers/lsm303agr/Src/lsm303agr_reg.c ****   switch (ctrl_reg2_a.hpcf)
 2000              		.loc 1 931 3 is_stmt 1 view .LVU477
 2001              		.loc 1 931 22 is_stmt 0 view .LVU478
 2002 0010 9DF80430 		ldrb	r3, [sp, #4]	@ zero_extendqisi2
 2003 0014 C3F30113 		ubfx	r3, r3, #4, #2
 2004              		.loc 1 931 3 view .LVU479
 2005 0018 032B     		cmp	r3, #3
 2006 001a 10D8     		bhi	.L133
 2007 001c DFE803F0 		tbb	[pc, r3]
 2008              	.L135:
 2009 0020 02       		.byte	(.L138-.L135)/2
 2010 0021 06       		.byte	(.L137-.L135)/2
 2011 0022 09       		.byte	(.L136-.L135)/2
 2012 0023 0C       		.byte	(.L134-.L135)/2
 2013              		.p2align 1
 2014              	.L138:
 932:Drivers/lsm303agr/Src/lsm303agr_reg.c ****   {
 933:Drivers/lsm303agr/Src/lsm303agr_reg.c ****     case LSM303AGR_AGGRESSIVE:
 934:Drivers/lsm303agr/Src/lsm303agr_reg.c ****       *val = LSM303AGR_AGGRESSIVE;
 2015              		.loc 1 934 7 is_stmt 1 view .LVU480
 2016              		.loc 1 934 12 is_stmt 0 view .LVU481
 2017 0024 0023     		movs	r3, #0
 2018 0026 2370     		strb	r3, [r4]
 935:Drivers/lsm303agr/Src/lsm303agr_reg.c ****       break;
 2019              		.loc 1 935 7 is_stmt 1 view .LVU482
 2020              	.L132:
 936:Drivers/lsm303agr/Src/lsm303agr_reg.c **** 
 937:Drivers/lsm303agr/Src/lsm303agr_reg.c ****     case LSM303AGR_STRONG:
 938:Drivers/lsm303agr/Src/lsm303agr_reg.c ****       *val = LSM303AGR_STRONG;
 939:Drivers/lsm303agr/Src/lsm303agr_reg.c ****       break;
 940:Drivers/lsm303agr/Src/lsm303agr_reg.c **** 
 941:Drivers/lsm303agr/Src/lsm303agr_reg.c ****     case LSM303AGR_MEDIUM:
 942:Drivers/lsm303agr/Src/lsm303agr_reg.c ****       *val = LSM303AGR_MEDIUM;
 943:Drivers/lsm303agr/Src/lsm303agr_reg.c ****       break;
 944:Drivers/lsm303agr/Src/lsm303agr_reg.c **** 
 945:Drivers/lsm303agr/Src/lsm303agr_reg.c ****     case LSM303AGR_LIGHT:
 946:Drivers/lsm303agr/Src/lsm303agr_reg.c ****       *val = LSM303AGR_LIGHT;
 947:Drivers/lsm303agr/Src/lsm303agr_reg.c ****       break;
 948:Drivers/lsm303agr/Src/lsm303agr_reg.c **** 
 949:Drivers/lsm303agr/Src/lsm303agr_reg.c ****     default:
 950:Drivers/lsm303agr/Src/lsm303agr_reg.c ****       *val = LSM303AGR_AGGRESSIVE;
 951:Drivers/lsm303agr/Src/lsm303agr_reg.c ****       break;
 952:Drivers/lsm303agr/Src/lsm303agr_reg.c ****   }
 953:Drivers/lsm303agr/Src/lsm303agr_reg.c **** 
 954:Drivers/lsm303agr/Src/lsm303agr_reg.c ****   return ret;
 955:Drivers/lsm303agr/Src/lsm303agr_reg.c **** }
 2021              		.loc 1 955 1 is_stmt 0 view .LVU483
 2022 0028 02B0     		add	sp, sp, #8
 2023              	.LCFI58:
 2024              		.cfi_remember_state
 2025              		.cfi_def_cfa_offset 8
 2026              		@ sp needed
 2027 002a 10BD     		pop	{r4, pc}
 2028              	.LVL125:
 2029              	.L137:
 2030              	.LCFI59:
ARM GAS  C:\Users\SF\AppData\Local\Temp\ccFGOSN0.s 			page 54


 2031              		.cfi_restore_state
 938:Drivers/lsm303agr/Src/lsm303agr_reg.c ****       break;
 2032              		.loc 1 938 7 is_stmt 1 view .LVU484
 938:Drivers/lsm303agr/Src/lsm303agr_reg.c ****       break;
 2033              		.loc 1 938 12 is_stmt 0 view .LVU485
 2034 002c 0123     		movs	r3, #1
 2035 002e 2370     		strb	r3, [r4]
 939:Drivers/lsm303agr/Src/lsm303agr_reg.c **** 
 2036              		.loc 1 939 7 is_stmt 1 view .LVU486
 2037 0030 FAE7     		b	.L132
 2038              	.L136:
 942:Drivers/lsm303agr/Src/lsm303agr_reg.c ****       break;
 2039              		.loc 1 942 7 view .LVU487
 942:Drivers/lsm303agr/Src/lsm303agr_reg.c ****       break;
 2040              		.loc 1 942 12 is_stmt 0 view .LVU488
 2041 0032 0223     		movs	r3, #2
 2042 0034 2370     		strb	r3, [r4]
 943:Drivers/lsm303agr/Src/lsm303agr_reg.c **** 
 2043              		.loc 1 943 7 is_stmt 1 view .LVU489
 2044 0036 F7E7     		b	.L132
 2045              	.L134:
 946:Drivers/lsm303agr/Src/lsm303agr_reg.c ****       break;
 2046              		.loc 1 946 7 view .LVU490
 946:Drivers/lsm303agr/Src/lsm303agr_reg.c ****       break;
 2047              		.loc 1 946 12 is_stmt 0 view .LVU491
 2048 0038 0323     		movs	r3, #3
 2049 003a 2370     		strb	r3, [r4]
 947:Drivers/lsm303agr/Src/lsm303agr_reg.c **** 
 2050              		.loc 1 947 7 is_stmt 1 view .LVU492
 2051 003c F4E7     		b	.L132
 2052              	.L133:
 950:Drivers/lsm303agr/Src/lsm303agr_reg.c ****       break;
 2053              		.loc 1 950 7 view .LVU493
 950:Drivers/lsm303agr/Src/lsm303agr_reg.c ****       break;
 2054              		.loc 1 950 12 is_stmt 0 view .LVU494
 2055 003e 0023     		movs	r3, #0
 2056 0040 2370     		strb	r3, [r4]
 951:Drivers/lsm303agr/Src/lsm303agr_reg.c ****   }
 2057              		.loc 1 951 7 is_stmt 1 view .LVU495
 954:Drivers/lsm303agr/Src/lsm303agr_reg.c **** }
 2058              		.loc 1 954 3 view .LVU496
 954:Drivers/lsm303agr/Src/lsm303agr_reg.c **** }
 2059              		.loc 1 954 10 is_stmt 0 view .LVU497
 2060 0042 F1E7     		b	.L132
 2061              		.cfi_endproc
 2062              	.LFE169:
 2064              		.section	.text.lsm303agr_xl_high_pass_mode_set,"ax",%progbits
 2065              		.align	1
 2066              		.global	lsm303agr_xl_high_pass_mode_set
 2067              		.syntax unified
 2068              		.thumb
 2069              		.thumb_func
 2071              	lsm303agr_xl_high_pass_mode_set:
 2072              	.LVL126:
 2073              	.LFB170:
 956:Drivers/lsm303agr/Src/lsm303agr_reg.c **** 
 957:Drivers/lsm303agr/Src/lsm303agr_reg.c **** /**
ARM GAS  C:\Users\SF\AppData\Local\Temp\ccFGOSN0.s 			page 55


 958:Drivers/lsm303agr/Src/lsm303agr_reg.c ****   * @brief  High-pass filter mode selection.[set]
 959:Drivers/lsm303agr/Src/lsm303agr_reg.c ****   *
 960:Drivers/lsm303agr/Src/lsm303agr_reg.c ****   * @param  ctx    Read / write interface definitions.(ptr)
 961:Drivers/lsm303agr/Src/lsm303agr_reg.c ****   * @param  val    Change the values of hpm in reg CTRL_REG2_A
 962:Drivers/lsm303agr/Src/lsm303agr_reg.c ****   * @retval        Interface status (MANDATORY: return 0 -> no Error).
 963:Drivers/lsm303agr/Src/lsm303agr_reg.c ****   *
 964:Drivers/lsm303agr/Src/lsm303agr_reg.c ****   */
 965:Drivers/lsm303agr/Src/lsm303agr_reg.c **** int32_t lsm303agr_xl_high_pass_mode_set(stmdev_ctx_t *ctx,
 966:Drivers/lsm303agr/Src/lsm303agr_reg.c ****                                         lsm303agr_hpm_a_t val)
 967:Drivers/lsm303agr/Src/lsm303agr_reg.c **** {
 2074              		.loc 1 967 1 is_stmt 1 view -0
 2075              		.cfi_startproc
 2076              		@ args = 0, pretend = 0, frame = 8
 2077              		@ frame_needed = 0, uses_anonymous_args = 0
 2078              		.loc 1 967 1 is_stmt 0 view .LVU499
 2079 0000 30B5     		push	{r4, r5, lr}
 2080              	.LCFI60:
 2081              		.cfi_def_cfa_offset 12
 2082              		.cfi_offset 4, -12
 2083              		.cfi_offset 5, -8
 2084              		.cfi_offset 14, -4
 2085 0002 83B0     		sub	sp, sp, #12
 2086              	.LCFI61:
 2087              		.cfi_def_cfa_offset 24
 2088 0004 0446     		mov	r4, r0
 2089 0006 0D46     		mov	r5, r1
 968:Drivers/lsm303agr/Src/lsm303agr_reg.c ****   lsm303agr_ctrl_reg2_a_t ctrl_reg2_a;
 2090              		.loc 1 968 3 is_stmt 1 view .LVU500
 969:Drivers/lsm303agr/Src/lsm303agr_reg.c ****   int32_t ret;
 2091              		.loc 1 969 3 view .LVU501
 970:Drivers/lsm303agr/Src/lsm303agr_reg.c **** 
 971:Drivers/lsm303agr/Src/lsm303agr_reg.c ****   ret = lsm303agr_read_reg(ctx, LSM303AGR_CTRL_REG2_A,
 2092              		.loc 1 971 3 view .LVU502
 2093              		.loc 1 971 9 is_stmt 0 view .LVU503
 2094 0008 0123     		movs	r3, #1
 2095 000a 01AA     		add	r2, sp, #4
 2096 000c 2121     		movs	r1, #33
 2097              	.LVL127:
 2098              		.loc 1 971 9 view .LVU504
 2099 000e FFF7FEFF 		bl	lsm303agr_read_reg
 2100              	.LVL128:
 972:Drivers/lsm303agr/Src/lsm303agr_reg.c ****                            (uint8_t *)&ctrl_reg2_a, 1);
 973:Drivers/lsm303agr/Src/lsm303agr_reg.c **** 
 974:Drivers/lsm303agr/Src/lsm303agr_reg.c ****   if (ret == 0)
 2101              		.loc 1 974 3 is_stmt 1 view .LVU505
 2102              		.loc 1 974 6 is_stmt 0 view .LVU506
 2103 0012 08B1     		cbz	r0, .L144
 2104              	.LVL129:
 2105              	.L141:
 975:Drivers/lsm303agr/Src/lsm303agr_reg.c ****   {
 976:Drivers/lsm303agr/Src/lsm303agr_reg.c ****     ctrl_reg2_a.hpm = (uint8_t)val;
 977:Drivers/lsm303agr/Src/lsm303agr_reg.c ****     ret = lsm303agr_write_reg(ctx, LSM303AGR_CTRL_REG2_A,
 978:Drivers/lsm303agr/Src/lsm303agr_reg.c ****                               (uint8_t *)&ctrl_reg2_a, 1);
 979:Drivers/lsm303agr/Src/lsm303agr_reg.c ****   }
 980:Drivers/lsm303agr/Src/lsm303agr_reg.c **** 
 981:Drivers/lsm303agr/Src/lsm303agr_reg.c ****   return ret;
 982:Drivers/lsm303agr/Src/lsm303agr_reg.c **** }
ARM GAS  C:\Users\SF\AppData\Local\Temp\ccFGOSN0.s 			page 56


 2106              		.loc 1 982 1 view .LVU507
 2107 0014 03B0     		add	sp, sp, #12
 2108              	.LCFI62:
 2109              		.cfi_remember_state
 2110              		.cfi_def_cfa_offset 12
 2111              		@ sp needed
 2112 0016 30BD     		pop	{r4, r5, pc}
 2113              	.LVL130:
 2114              	.L144:
 2115              	.LCFI63:
 2116              		.cfi_restore_state
 976:Drivers/lsm303agr/Src/lsm303agr_reg.c ****     ret = lsm303agr_write_reg(ctx, LSM303AGR_CTRL_REG2_A,
 2117              		.loc 1 976 5 is_stmt 1 view .LVU508
 976:Drivers/lsm303agr/Src/lsm303agr_reg.c ****     ret = lsm303agr_write_reg(ctx, LSM303AGR_CTRL_REG2_A,
 2118              		.loc 1 976 21 is_stmt 0 view .LVU509
 2119 0018 9DF80430 		ldrb	r3, [sp, #4]	@ zero_extendqisi2
 2120 001c 65F38713 		bfi	r3, r5, #6, #2
 2121 0020 8DF80430 		strb	r3, [sp, #4]
 977:Drivers/lsm303agr/Src/lsm303agr_reg.c ****                               (uint8_t *)&ctrl_reg2_a, 1);
 2122              		.loc 1 977 5 is_stmt 1 view .LVU510
 977:Drivers/lsm303agr/Src/lsm303agr_reg.c ****                               (uint8_t *)&ctrl_reg2_a, 1);
 2123              		.loc 1 977 11 is_stmt 0 view .LVU511
 2124 0024 0123     		movs	r3, #1
 2125              	.LVL131:
 977:Drivers/lsm303agr/Src/lsm303agr_reg.c ****                               (uint8_t *)&ctrl_reg2_a, 1);
 2126              		.loc 1 977 11 view .LVU512
 2127 0026 01AA     		add	r2, sp, #4
 2128 0028 2121     		movs	r1, #33
 2129 002a 2046     		mov	r0, r4
 2130 002c FFF7FEFF 		bl	lsm303agr_write_reg
 2131              	.LVL132:
 981:Drivers/lsm303agr/Src/lsm303agr_reg.c **** }
 2132              		.loc 1 981 3 is_stmt 1 view .LVU513
 981:Drivers/lsm303agr/Src/lsm303agr_reg.c **** }
 2133              		.loc 1 981 10 is_stmt 0 view .LVU514
 2134 0030 F0E7     		b	.L141
 2135              		.cfi_endproc
 2136              	.LFE170:
 2138              		.section	.text.lsm303agr_xl_high_pass_mode_get,"ax",%progbits
 2139              		.align	1
 2140              		.global	lsm303agr_xl_high_pass_mode_get
 2141              		.syntax unified
 2142              		.thumb
 2143              		.thumb_func
 2145              	lsm303agr_xl_high_pass_mode_get:
 2146              	.LVL133:
 2147              	.LFB171:
 983:Drivers/lsm303agr/Src/lsm303agr_reg.c **** 
 984:Drivers/lsm303agr/Src/lsm303agr_reg.c **** /**
 985:Drivers/lsm303agr/Src/lsm303agr_reg.c ****   * @brief  High-pass filter mode selection.[get]
 986:Drivers/lsm303agr/Src/lsm303agr_reg.c ****   *
 987:Drivers/lsm303agr/Src/lsm303agr_reg.c ****   * @param  ctx    Read / write interface definitions.(ptr)
 988:Drivers/lsm303agr/Src/lsm303agr_reg.c ****   * @param  val    Get the values of hpm in reg CTRL_REG2_A.(ptr)
 989:Drivers/lsm303agr/Src/lsm303agr_reg.c ****   * @retval        Interface status (MANDATORY: return 0 -> no Error).
 990:Drivers/lsm303agr/Src/lsm303agr_reg.c ****   *
 991:Drivers/lsm303agr/Src/lsm303agr_reg.c ****   */
 992:Drivers/lsm303agr/Src/lsm303agr_reg.c **** int32_t lsm303agr_xl_high_pass_mode_get(stmdev_ctx_t *ctx,
ARM GAS  C:\Users\SF\AppData\Local\Temp\ccFGOSN0.s 			page 57


 993:Drivers/lsm303agr/Src/lsm303agr_reg.c ****                                         lsm303agr_hpm_a_t *val)
 994:Drivers/lsm303agr/Src/lsm303agr_reg.c **** {
 2148              		.loc 1 994 1 is_stmt 1 view -0
 2149              		.cfi_startproc
 2150              		@ args = 0, pretend = 0, frame = 8
 2151              		@ frame_needed = 0, uses_anonymous_args = 0
 2152              		.loc 1 994 1 is_stmt 0 view .LVU516
 2153 0000 10B5     		push	{r4, lr}
 2154              	.LCFI64:
 2155              		.cfi_def_cfa_offset 8
 2156              		.cfi_offset 4, -8
 2157              		.cfi_offset 14, -4
 2158 0002 82B0     		sub	sp, sp, #8
 2159              	.LCFI65:
 2160              		.cfi_def_cfa_offset 16
 2161 0004 0C46     		mov	r4, r1
 995:Drivers/lsm303agr/Src/lsm303agr_reg.c ****   lsm303agr_ctrl_reg2_a_t ctrl_reg2_a;
 2162              		.loc 1 995 3 is_stmt 1 view .LVU517
 996:Drivers/lsm303agr/Src/lsm303agr_reg.c ****   int32_t ret;
 2163              		.loc 1 996 3 view .LVU518
 997:Drivers/lsm303agr/Src/lsm303agr_reg.c **** 
 998:Drivers/lsm303agr/Src/lsm303agr_reg.c ****   ret = lsm303agr_read_reg(ctx, LSM303AGR_CTRL_REG2_A,
 2164              		.loc 1 998 3 view .LVU519
 2165              		.loc 1 998 9 is_stmt 0 view .LVU520
 2166 0006 0123     		movs	r3, #1
 2167 0008 01AA     		add	r2, sp, #4
 2168 000a 2121     		movs	r1, #33
 2169              	.LVL134:
 2170              		.loc 1 998 9 view .LVU521
 2171 000c FFF7FEFF 		bl	lsm303agr_read_reg
 2172              	.LVL135:
 999:Drivers/lsm303agr/Src/lsm303agr_reg.c ****                            (uint8_t *)&ctrl_reg2_a, 1);
1000:Drivers/lsm303agr/Src/lsm303agr_reg.c **** 
1001:Drivers/lsm303agr/Src/lsm303agr_reg.c ****   switch (ctrl_reg2_a.hpm)
 2173              		.loc 1 1001 3 is_stmt 1 view .LVU522
 2174              		.loc 1 1001 22 is_stmt 0 view .LVU523
 2175 0010 9DF80430 		ldrb	r3, [sp, #4]	@ zero_extendqisi2
 2176 0014 9B09     		lsrs	r3, r3, #6
 2177              		.loc 1 1001 3 view .LVU524
 2178 0016 032B     		cmp	r3, #3
 2179 0018 10D8     		bhi	.L146
 2180 001a DFE803F0 		tbb	[pc, r3]
 2181              	.L148:
 2182 001e 02       		.byte	(.L151-.L148)/2
 2183 001f 06       		.byte	(.L150-.L148)/2
 2184 0020 09       		.byte	(.L149-.L148)/2
 2185 0021 0C       		.byte	(.L147-.L148)/2
 2186              		.p2align 1
 2187              	.L151:
1002:Drivers/lsm303agr/Src/lsm303agr_reg.c ****   {
1003:Drivers/lsm303agr/Src/lsm303agr_reg.c ****     case LSM303AGR_NORMAL_WITH_RST:
1004:Drivers/lsm303agr/Src/lsm303agr_reg.c ****       *val = LSM303AGR_NORMAL_WITH_RST;
 2188              		.loc 1 1004 7 is_stmt 1 view .LVU525
 2189              		.loc 1 1004 12 is_stmt 0 view .LVU526
 2190 0022 0023     		movs	r3, #0
 2191 0024 2370     		strb	r3, [r4]
1005:Drivers/lsm303agr/Src/lsm303agr_reg.c ****       break;
ARM GAS  C:\Users\SF\AppData\Local\Temp\ccFGOSN0.s 			page 58


 2192              		.loc 1 1005 7 is_stmt 1 view .LVU527
 2193              	.L145:
1006:Drivers/lsm303agr/Src/lsm303agr_reg.c **** 
1007:Drivers/lsm303agr/Src/lsm303agr_reg.c ****     case LSM303AGR_REFERENCE_MODE:
1008:Drivers/lsm303agr/Src/lsm303agr_reg.c ****       *val = LSM303AGR_REFERENCE_MODE;
1009:Drivers/lsm303agr/Src/lsm303agr_reg.c ****       break;
1010:Drivers/lsm303agr/Src/lsm303agr_reg.c **** 
1011:Drivers/lsm303agr/Src/lsm303agr_reg.c ****     case LSM303AGR_NORMAL:
1012:Drivers/lsm303agr/Src/lsm303agr_reg.c ****       *val = LSM303AGR_NORMAL;
1013:Drivers/lsm303agr/Src/lsm303agr_reg.c ****       break;
1014:Drivers/lsm303agr/Src/lsm303agr_reg.c **** 
1015:Drivers/lsm303agr/Src/lsm303agr_reg.c ****     case LSM303AGR_AUTORST_ON_INT:
1016:Drivers/lsm303agr/Src/lsm303agr_reg.c ****       *val = LSM303AGR_AUTORST_ON_INT;
1017:Drivers/lsm303agr/Src/lsm303agr_reg.c ****       break;
1018:Drivers/lsm303agr/Src/lsm303agr_reg.c **** 
1019:Drivers/lsm303agr/Src/lsm303agr_reg.c ****     default:
1020:Drivers/lsm303agr/Src/lsm303agr_reg.c ****       *val = LSM303AGR_NORMAL_WITH_RST;
1021:Drivers/lsm303agr/Src/lsm303agr_reg.c ****       break;
1022:Drivers/lsm303agr/Src/lsm303agr_reg.c ****   }
1023:Drivers/lsm303agr/Src/lsm303agr_reg.c **** 
1024:Drivers/lsm303agr/Src/lsm303agr_reg.c ****   return ret;
1025:Drivers/lsm303agr/Src/lsm303agr_reg.c **** }
 2194              		.loc 1 1025 1 is_stmt 0 view .LVU528
 2195 0026 02B0     		add	sp, sp, #8
 2196              	.LCFI66:
 2197              		.cfi_remember_state
 2198              		.cfi_def_cfa_offset 8
 2199              		@ sp needed
 2200 0028 10BD     		pop	{r4, pc}
 2201              	.LVL136:
 2202              	.L150:
 2203              	.LCFI67:
 2204              		.cfi_restore_state
1008:Drivers/lsm303agr/Src/lsm303agr_reg.c ****       break;
 2205              		.loc 1 1008 7 is_stmt 1 view .LVU529
1008:Drivers/lsm303agr/Src/lsm303agr_reg.c ****       break;
 2206              		.loc 1 1008 12 is_stmt 0 view .LVU530
 2207 002a 0123     		movs	r3, #1
 2208 002c 2370     		strb	r3, [r4]
1009:Drivers/lsm303agr/Src/lsm303agr_reg.c **** 
 2209              		.loc 1 1009 7 is_stmt 1 view .LVU531
 2210 002e FAE7     		b	.L145
 2211              	.L149:
1012:Drivers/lsm303agr/Src/lsm303agr_reg.c ****       break;
 2212              		.loc 1 1012 7 view .LVU532
1012:Drivers/lsm303agr/Src/lsm303agr_reg.c ****       break;
 2213              		.loc 1 1012 12 is_stmt 0 view .LVU533
 2214 0030 0223     		movs	r3, #2
 2215 0032 2370     		strb	r3, [r4]
1013:Drivers/lsm303agr/Src/lsm303agr_reg.c **** 
 2216              		.loc 1 1013 7 is_stmt 1 view .LVU534
 2217 0034 F7E7     		b	.L145
 2218              	.L147:
1016:Drivers/lsm303agr/Src/lsm303agr_reg.c ****       break;
 2219              		.loc 1 1016 7 view .LVU535
1016:Drivers/lsm303agr/Src/lsm303agr_reg.c ****       break;
 2220              		.loc 1 1016 12 is_stmt 0 view .LVU536
ARM GAS  C:\Users\SF\AppData\Local\Temp\ccFGOSN0.s 			page 59


 2221 0036 0323     		movs	r3, #3
 2222 0038 2370     		strb	r3, [r4]
1017:Drivers/lsm303agr/Src/lsm303agr_reg.c **** 
 2223              		.loc 1 1017 7 is_stmt 1 view .LVU537
 2224 003a F4E7     		b	.L145
 2225              	.L146:
1020:Drivers/lsm303agr/Src/lsm303agr_reg.c ****       break;
 2226              		.loc 1 1020 7 view .LVU538
1020:Drivers/lsm303agr/Src/lsm303agr_reg.c ****       break;
 2227              		.loc 1 1020 12 is_stmt 0 view .LVU539
 2228 003c 0023     		movs	r3, #0
 2229 003e 2370     		strb	r3, [r4]
1021:Drivers/lsm303agr/Src/lsm303agr_reg.c ****   }
 2230              		.loc 1 1021 7 is_stmt 1 view .LVU540
1024:Drivers/lsm303agr/Src/lsm303agr_reg.c **** }
 2231              		.loc 1 1024 3 view .LVU541
1024:Drivers/lsm303agr/Src/lsm303agr_reg.c **** }
 2232              		.loc 1 1024 10 is_stmt 0 view .LVU542
 2233 0040 F1E7     		b	.L145
 2234              		.cfi_endproc
 2235              	.LFE171:
 2237              		.section	.text.lsm303agr_xl_full_scale_set,"ax",%progbits
 2238              		.align	1
 2239              		.global	lsm303agr_xl_full_scale_set
 2240              		.syntax unified
 2241              		.thumb
 2242              		.thumb_func
 2244              	lsm303agr_xl_full_scale_set:
 2245              	.LVL137:
 2246              	.LFB172:
1026:Drivers/lsm303agr/Src/lsm303agr_reg.c **** 
1027:Drivers/lsm303agr/Src/lsm303agr_reg.c **** /**
1028:Drivers/lsm303agr/Src/lsm303agr_reg.c ****   * @brief  Full-scale configuration.[set]
1029:Drivers/lsm303agr/Src/lsm303agr_reg.c ****   *
1030:Drivers/lsm303agr/Src/lsm303agr_reg.c ****   * @param  ctx    Read / write interface definitions.(ptr)
1031:Drivers/lsm303agr/Src/lsm303agr_reg.c ****   * @param  val    Change the values of fs in reg CTRL_REG4_A
1032:Drivers/lsm303agr/Src/lsm303agr_reg.c ****   * @retval        Interface status (MANDATORY: return 0 -> no Error).
1033:Drivers/lsm303agr/Src/lsm303agr_reg.c ****   *
1034:Drivers/lsm303agr/Src/lsm303agr_reg.c ****   */
1035:Drivers/lsm303agr/Src/lsm303agr_reg.c **** int32_t lsm303agr_xl_full_scale_set(stmdev_ctx_t *ctx,
1036:Drivers/lsm303agr/Src/lsm303agr_reg.c ****                                     lsm303agr_fs_a_t val)
1037:Drivers/lsm303agr/Src/lsm303agr_reg.c **** {
 2247              		.loc 1 1037 1 is_stmt 1 view -0
 2248              		.cfi_startproc
 2249              		@ args = 0, pretend = 0, frame = 8
 2250              		@ frame_needed = 0, uses_anonymous_args = 0
 2251              		.loc 1 1037 1 is_stmt 0 view .LVU544
 2252 0000 30B5     		push	{r4, r5, lr}
 2253              	.LCFI68:
 2254              		.cfi_def_cfa_offset 12
 2255              		.cfi_offset 4, -12
 2256              		.cfi_offset 5, -8
 2257              		.cfi_offset 14, -4
 2258 0002 83B0     		sub	sp, sp, #12
 2259              	.LCFI69:
 2260              		.cfi_def_cfa_offset 24
 2261 0004 0446     		mov	r4, r0
ARM GAS  C:\Users\SF\AppData\Local\Temp\ccFGOSN0.s 			page 60


 2262 0006 0D46     		mov	r5, r1
1038:Drivers/lsm303agr/Src/lsm303agr_reg.c ****   lsm303agr_ctrl_reg4_a_t ctrl_reg4_a;
 2263              		.loc 1 1038 3 is_stmt 1 view .LVU545
1039:Drivers/lsm303agr/Src/lsm303agr_reg.c ****   int32_t ret;
 2264              		.loc 1 1039 3 view .LVU546
1040:Drivers/lsm303agr/Src/lsm303agr_reg.c **** 
1041:Drivers/lsm303agr/Src/lsm303agr_reg.c ****   ret = lsm303agr_read_reg(ctx, LSM303AGR_CTRL_REG4_A,
 2265              		.loc 1 1041 3 view .LVU547
 2266              		.loc 1 1041 9 is_stmt 0 view .LVU548
 2267 0008 0123     		movs	r3, #1
 2268 000a 01AA     		add	r2, sp, #4
 2269 000c 2321     		movs	r1, #35
 2270              	.LVL138:
 2271              		.loc 1 1041 9 view .LVU549
 2272 000e FFF7FEFF 		bl	lsm303agr_read_reg
 2273              	.LVL139:
1042:Drivers/lsm303agr/Src/lsm303agr_reg.c ****                            (uint8_t *)&ctrl_reg4_a, 1);
1043:Drivers/lsm303agr/Src/lsm303agr_reg.c **** 
1044:Drivers/lsm303agr/Src/lsm303agr_reg.c ****   if (ret == 0)
 2274              		.loc 1 1044 3 is_stmt 1 view .LVU550
 2275              		.loc 1 1044 6 is_stmt 0 view .LVU551
 2276 0012 08B1     		cbz	r0, .L157
 2277              	.LVL140:
 2278              	.L154:
1045:Drivers/lsm303agr/Src/lsm303agr_reg.c ****   {
1046:Drivers/lsm303agr/Src/lsm303agr_reg.c ****     ctrl_reg4_a.fs = (uint8_t)val;
1047:Drivers/lsm303agr/Src/lsm303agr_reg.c ****     ret = lsm303agr_write_reg(ctx, LSM303AGR_CTRL_REG4_A,
1048:Drivers/lsm303agr/Src/lsm303agr_reg.c ****                               (uint8_t *)&ctrl_reg4_a, 1);
1049:Drivers/lsm303agr/Src/lsm303agr_reg.c ****   }
1050:Drivers/lsm303agr/Src/lsm303agr_reg.c **** 
1051:Drivers/lsm303agr/Src/lsm303agr_reg.c ****   return ret;
1052:Drivers/lsm303agr/Src/lsm303agr_reg.c **** }
 2279              		.loc 1 1052 1 view .LVU552
 2280 0014 03B0     		add	sp, sp, #12
 2281              	.LCFI70:
 2282              		.cfi_remember_state
 2283              		.cfi_def_cfa_offset 12
 2284              		@ sp needed
 2285 0016 30BD     		pop	{r4, r5, pc}
 2286              	.LVL141:
 2287              	.L157:
 2288              	.LCFI71:
 2289              		.cfi_restore_state
1046:Drivers/lsm303agr/Src/lsm303agr_reg.c ****     ret = lsm303agr_write_reg(ctx, LSM303AGR_CTRL_REG4_A,
 2290              		.loc 1 1046 5 is_stmt 1 view .LVU553
1046:Drivers/lsm303agr/Src/lsm303agr_reg.c ****     ret = lsm303agr_write_reg(ctx, LSM303AGR_CTRL_REG4_A,
 2291              		.loc 1 1046 20 is_stmt 0 view .LVU554
 2292 0018 9DF80430 		ldrb	r3, [sp, #4]	@ zero_extendqisi2
 2293 001c 65F30513 		bfi	r3, r5, #4, #2
 2294 0020 8DF80430 		strb	r3, [sp, #4]
1047:Drivers/lsm303agr/Src/lsm303agr_reg.c ****                               (uint8_t *)&ctrl_reg4_a, 1);
 2295              		.loc 1 1047 5 is_stmt 1 view .LVU555
1047:Drivers/lsm303agr/Src/lsm303agr_reg.c ****                               (uint8_t *)&ctrl_reg4_a, 1);
 2296              		.loc 1 1047 11 is_stmt 0 view .LVU556
 2297 0024 0123     		movs	r3, #1
 2298              	.LVL142:
1047:Drivers/lsm303agr/Src/lsm303agr_reg.c ****                               (uint8_t *)&ctrl_reg4_a, 1);
ARM GAS  C:\Users\SF\AppData\Local\Temp\ccFGOSN0.s 			page 61


 2299              		.loc 1 1047 11 view .LVU557
 2300 0026 01AA     		add	r2, sp, #4
 2301 0028 2321     		movs	r1, #35
 2302 002a 2046     		mov	r0, r4
 2303 002c FFF7FEFF 		bl	lsm303agr_write_reg
 2304              	.LVL143:
1051:Drivers/lsm303agr/Src/lsm303agr_reg.c **** }
 2305              		.loc 1 1051 3 is_stmt 1 view .LVU558
1051:Drivers/lsm303agr/Src/lsm303agr_reg.c **** }
 2306              		.loc 1 1051 10 is_stmt 0 view .LVU559
 2307 0030 F0E7     		b	.L154
 2308              		.cfi_endproc
 2309              	.LFE172:
 2311              		.section	.text.lsm303agr_xl_full_scale_get,"ax",%progbits
 2312              		.align	1
 2313              		.global	lsm303agr_xl_full_scale_get
 2314              		.syntax unified
 2315              		.thumb
 2316              		.thumb_func
 2318              	lsm303agr_xl_full_scale_get:
 2319              	.LVL144:
 2320              	.LFB173:
1053:Drivers/lsm303agr/Src/lsm303agr_reg.c **** 
1054:Drivers/lsm303agr/Src/lsm303agr_reg.c **** /**
1055:Drivers/lsm303agr/Src/lsm303agr_reg.c ****   * @brief  Full-scale configuration.[get]
1056:Drivers/lsm303agr/Src/lsm303agr_reg.c ****   *
1057:Drivers/lsm303agr/Src/lsm303agr_reg.c ****   * @param  ctx    Read / write interface definitions.(ptr)
1058:Drivers/lsm303agr/Src/lsm303agr_reg.c ****   * @param  val    Get the values of fs in reg CTRL_REG4_A.(ptr)
1059:Drivers/lsm303agr/Src/lsm303agr_reg.c ****   * @retval        Interface status (MANDATORY: return 0 -> no Error).
1060:Drivers/lsm303agr/Src/lsm303agr_reg.c ****   *
1061:Drivers/lsm303agr/Src/lsm303agr_reg.c ****   */
1062:Drivers/lsm303agr/Src/lsm303agr_reg.c **** int32_t lsm303agr_xl_full_scale_get(stmdev_ctx_t *ctx,
1063:Drivers/lsm303agr/Src/lsm303agr_reg.c ****                                     lsm303agr_fs_a_t *val)
1064:Drivers/lsm303agr/Src/lsm303agr_reg.c **** {
 2321              		.loc 1 1064 1 is_stmt 1 view -0
 2322              		.cfi_startproc
 2323              		@ args = 0, pretend = 0, frame = 8
 2324              		@ frame_needed = 0, uses_anonymous_args = 0
 2325              		.loc 1 1064 1 is_stmt 0 view .LVU561
 2326 0000 10B5     		push	{r4, lr}
 2327              	.LCFI72:
 2328              		.cfi_def_cfa_offset 8
 2329              		.cfi_offset 4, -8
 2330              		.cfi_offset 14, -4
 2331 0002 82B0     		sub	sp, sp, #8
 2332              	.LCFI73:
 2333              		.cfi_def_cfa_offset 16
 2334 0004 0C46     		mov	r4, r1
1065:Drivers/lsm303agr/Src/lsm303agr_reg.c ****   lsm303agr_ctrl_reg4_a_t ctrl_reg4_a;
 2335              		.loc 1 1065 3 is_stmt 1 view .LVU562
1066:Drivers/lsm303agr/Src/lsm303agr_reg.c ****   int32_t ret;
 2336              		.loc 1 1066 3 view .LVU563
1067:Drivers/lsm303agr/Src/lsm303agr_reg.c **** 
1068:Drivers/lsm303agr/Src/lsm303agr_reg.c ****   ret = lsm303agr_read_reg(ctx, LSM303AGR_CTRL_REG4_A,
 2337              		.loc 1 1068 3 view .LVU564
 2338              		.loc 1 1068 9 is_stmt 0 view .LVU565
 2339 0006 0123     		movs	r3, #1
ARM GAS  C:\Users\SF\AppData\Local\Temp\ccFGOSN0.s 			page 62


 2340 0008 01AA     		add	r2, sp, #4
 2341 000a 2321     		movs	r1, #35
 2342              	.LVL145:
 2343              		.loc 1 1068 9 view .LVU566
 2344 000c FFF7FEFF 		bl	lsm303agr_read_reg
 2345              	.LVL146:
1069:Drivers/lsm303agr/Src/lsm303agr_reg.c ****                            (uint8_t *)&ctrl_reg4_a, 1);
1070:Drivers/lsm303agr/Src/lsm303agr_reg.c **** 
1071:Drivers/lsm303agr/Src/lsm303agr_reg.c ****   switch (ctrl_reg4_a.fs)
 2346              		.loc 1 1071 3 is_stmt 1 view .LVU567
 2347              		.loc 1 1071 22 is_stmt 0 view .LVU568
 2348 0010 9DF80430 		ldrb	r3, [sp, #4]	@ zero_extendqisi2
 2349 0014 C3F30113 		ubfx	r3, r3, #4, #2
 2350              		.loc 1 1071 3 view .LVU569
 2351 0018 032B     		cmp	r3, #3
 2352 001a 10D8     		bhi	.L159
 2353 001c DFE803F0 		tbb	[pc, r3]
 2354              	.L161:
 2355 0020 02       		.byte	(.L164-.L161)/2
 2356 0021 06       		.byte	(.L163-.L161)/2
 2357 0022 09       		.byte	(.L162-.L161)/2
 2358 0023 0C       		.byte	(.L160-.L161)/2
 2359              		.p2align 1
 2360              	.L164:
1072:Drivers/lsm303agr/Src/lsm303agr_reg.c ****   {
1073:Drivers/lsm303agr/Src/lsm303agr_reg.c ****     case LSM303AGR_2g:
1074:Drivers/lsm303agr/Src/lsm303agr_reg.c ****       *val = LSM303AGR_2g;
 2361              		.loc 1 1074 7 is_stmt 1 view .LVU570
 2362              		.loc 1 1074 12 is_stmt 0 view .LVU571
 2363 0024 0023     		movs	r3, #0
 2364 0026 2370     		strb	r3, [r4]
1075:Drivers/lsm303agr/Src/lsm303agr_reg.c ****       break;
 2365              		.loc 1 1075 7 is_stmt 1 view .LVU572
 2366              	.L158:
1076:Drivers/lsm303agr/Src/lsm303agr_reg.c **** 
1077:Drivers/lsm303agr/Src/lsm303agr_reg.c ****     case LSM303AGR_4g:
1078:Drivers/lsm303agr/Src/lsm303agr_reg.c ****       *val = LSM303AGR_4g;
1079:Drivers/lsm303agr/Src/lsm303agr_reg.c ****       break;
1080:Drivers/lsm303agr/Src/lsm303agr_reg.c **** 
1081:Drivers/lsm303agr/Src/lsm303agr_reg.c ****     case LSM303AGR_8g:
1082:Drivers/lsm303agr/Src/lsm303agr_reg.c ****       *val = LSM303AGR_8g;
1083:Drivers/lsm303agr/Src/lsm303agr_reg.c ****       break;
1084:Drivers/lsm303agr/Src/lsm303agr_reg.c **** 
1085:Drivers/lsm303agr/Src/lsm303agr_reg.c ****     case LSM303AGR_16g:
1086:Drivers/lsm303agr/Src/lsm303agr_reg.c ****       *val = LSM303AGR_16g;
1087:Drivers/lsm303agr/Src/lsm303agr_reg.c ****       break;
1088:Drivers/lsm303agr/Src/lsm303agr_reg.c **** 
1089:Drivers/lsm303agr/Src/lsm303agr_reg.c ****     default:
1090:Drivers/lsm303agr/Src/lsm303agr_reg.c ****       *val = LSM303AGR_2g;
1091:Drivers/lsm303agr/Src/lsm303agr_reg.c ****       break;
1092:Drivers/lsm303agr/Src/lsm303agr_reg.c ****   }
1093:Drivers/lsm303agr/Src/lsm303agr_reg.c **** 
1094:Drivers/lsm303agr/Src/lsm303agr_reg.c ****   return ret;
1095:Drivers/lsm303agr/Src/lsm303agr_reg.c **** }
 2367              		.loc 1 1095 1 is_stmt 0 view .LVU573
 2368 0028 02B0     		add	sp, sp, #8
 2369              	.LCFI74:
ARM GAS  C:\Users\SF\AppData\Local\Temp\ccFGOSN0.s 			page 63


 2370              		.cfi_remember_state
 2371              		.cfi_def_cfa_offset 8
 2372              		@ sp needed
 2373 002a 10BD     		pop	{r4, pc}
 2374              	.LVL147:
 2375              	.L163:
 2376              	.LCFI75:
 2377              		.cfi_restore_state
1078:Drivers/lsm303agr/Src/lsm303agr_reg.c ****       break;
 2378              		.loc 1 1078 7 is_stmt 1 view .LVU574
1078:Drivers/lsm303agr/Src/lsm303agr_reg.c ****       break;
 2379              		.loc 1 1078 12 is_stmt 0 view .LVU575
 2380 002c 0123     		movs	r3, #1
 2381 002e 2370     		strb	r3, [r4]
1079:Drivers/lsm303agr/Src/lsm303agr_reg.c **** 
 2382              		.loc 1 1079 7 is_stmt 1 view .LVU576
 2383 0030 FAE7     		b	.L158
 2384              	.L162:
1082:Drivers/lsm303agr/Src/lsm303agr_reg.c ****       break;
 2385              		.loc 1 1082 7 view .LVU577
1082:Drivers/lsm303agr/Src/lsm303agr_reg.c ****       break;
 2386              		.loc 1 1082 12 is_stmt 0 view .LVU578
 2387 0032 0223     		movs	r3, #2
 2388 0034 2370     		strb	r3, [r4]
1083:Drivers/lsm303agr/Src/lsm303agr_reg.c **** 
 2389              		.loc 1 1083 7 is_stmt 1 view .LVU579
 2390 0036 F7E7     		b	.L158
 2391              	.L160:
1086:Drivers/lsm303agr/Src/lsm303agr_reg.c ****       break;
 2392              		.loc 1 1086 7 view .LVU580
1086:Drivers/lsm303agr/Src/lsm303agr_reg.c ****       break;
 2393              		.loc 1 1086 12 is_stmt 0 view .LVU581
 2394 0038 0323     		movs	r3, #3
 2395 003a 2370     		strb	r3, [r4]
1087:Drivers/lsm303agr/Src/lsm303agr_reg.c **** 
 2396              		.loc 1 1087 7 is_stmt 1 view .LVU582
 2397 003c F4E7     		b	.L158
 2398              	.L159:
1090:Drivers/lsm303agr/Src/lsm303agr_reg.c ****       break;
 2399              		.loc 1 1090 7 view .LVU583
1090:Drivers/lsm303agr/Src/lsm303agr_reg.c ****       break;
 2400              		.loc 1 1090 12 is_stmt 0 view .LVU584
 2401 003e 0023     		movs	r3, #0
 2402 0040 2370     		strb	r3, [r4]
1091:Drivers/lsm303agr/Src/lsm303agr_reg.c ****   }
 2403              		.loc 1 1091 7 is_stmt 1 view .LVU585
1094:Drivers/lsm303agr/Src/lsm303agr_reg.c **** }
 2404              		.loc 1 1094 3 view .LVU586
1094:Drivers/lsm303agr/Src/lsm303agr_reg.c **** }
 2405              		.loc 1 1094 10 is_stmt 0 view .LVU587
 2406 0042 F1E7     		b	.L158
 2407              		.cfi_endproc
 2408              	.LFE173:
 2410              		.section	.text.lsm303agr_xl_block_data_update_set,"ax",%progbits
 2411              		.align	1
 2412              		.global	lsm303agr_xl_block_data_update_set
 2413              		.syntax unified
ARM GAS  C:\Users\SF\AppData\Local\Temp\ccFGOSN0.s 			page 64


 2414              		.thumb
 2415              		.thumb_func
 2417              	lsm303agr_xl_block_data_update_set:
 2418              	.LVL148:
 2419              	.LFB174:
1096:Drivers/lsm303agr/Src/lsm303agr_reg.c **** 
1097:Drivers/lsm303agr/Src/lsm303agr_reg.c **** /**
1098:Drivers/lsm303agr/Src/lsm303agr_reg.c ****   * @brief  Block data update.[set]
1099:Drivers/lsm303agr/Src/lsm303agr_reg.c ****   *
1100:Drivers/lsm303agr/Src/lsm303agr_reg.c ****   * @param  ctx    Read / write interface definitions.(ptr)
1101:Drivers/lsm303agr/Src/lsm303agr_reg.c ****   * @param  val    Change the values of bdu in reg CTRL_REG4_A
1102:Drivers/lsm303agr/Src/lsm303agr_reg.c ****   * @retval        Interface status (MANDATORY: return 0 -> no Error).
1103:Drivers/lsm303agr/Src/lsm303agr_reg.c ****   *
1104:Drivers/lsm303agr/Src/lsm303agr_reg.c ****   */
1105:Drivers/lsm303agr/Src/lsm303agr_reg.c **** int32_t lsm303agr_xl_block_data_update_set(stmdev_ctx_t *ctx,
1106:Drivers/lsm303agr/Src/lsm303agr_reg.c ****                                            uint8_t val)
1107:Drivers/lsm303agr/Src/lsm303agr_reg.c **** {
 2420              		.loc 1 1107 1 is_stmt 1 view -0
 2421              		.cfi_startproc
 2422              		@ args = 0, pretend = 0, frame = 8
 2423              		@ frame_needed = 0, uses_anonymous_args = 0
 2424              		.loc 1 1107 1 is_stmt 0 view .LVU589
 2425 0000 30B5     		push	{r4, r5, lr}
 2426              	.LCFI76:
 2427              		.cfi_def_cfa_offset 12
 2428              		.cfi_offset 4, -12
 2429              		.cfi_offset 5, -8
 2430              		.cfi_offset 14, -4
 2431 0002 83B0     		sub	sp, sp, #12
 2432              	.LCFI77:
 2433              		.cfi_def_cfa_offset 24
 2434 0004 0446     		mov	r4, r0
 2435 0006 0D46     		mov	r5, r1
1108:Drivers/lsm303agr/Src/lsm303agr_reg.c ****   lsm303agr_ctrl_reg4_a_t ctrl_reg4_a;
 2436              		.loc 1 1108 3 is_stmt 1 view .LVU590
1109:Drivers/lsm303agr/Src/lsm303agr_reg.c ****   int32_t ret;
 2437              		.loc 1 1109 3 view .LVU591
1110:Drivers/lsm303agr/Src/lsm303agr_reg.c **** 
1111:Drivers/lsm303agr/Src/lsm303agr_reg.c ****   ret = lsm303agr_read_reg(ctx, LSM303AGR_CTRL_REG4_A,
 2438              		.loc 1 1111 3 view .LVU592
 2439              		.loc 1 1111 9 is_stmt 0 view .LVU593
 2440 0008 0123     		movs	r3, #1
 2441 000a 01AA     		add	r2, sp, #4
 2442 000c 2321     		movs	r1, #35
 2443              	.LVL149:
 2444              		.loc 1 1111 9 view .LVU594
 2445 000e FFF7FEFF 		bl	lsm303agr_read_reg
 2446              	.LVL150:
1112:Drivers/lsm303agr/Src/lsm303agr_reg.c ****                            (uint8_t *)&ctrl_reg4_a, 1);
1113:Drivers/lsm303agr/Src/lsm303agr_reg.c **** 
1114:Drivers/lsm303agr/Src/lsm303agr_reg.c ****   if (ret == 0)
 2447              		.loc 1 1114 3 is_stmt 1 view .LVU595
 2448              		.loc 1 1114 6 is_stmt 0 view .LVU596
 2449 0012 08B1     		cbz	r0, .L170
 2450              	.LVL151:
 2451              	.L167:
1115:Drivers/lsm303agr/Src/lsm303agr_reg.c ****   {
ARM GAS  C:\Users\SF\AppData\Local\Temp\ccFGOSN0.s 			page 65


1116:Drivers/lsm303agr/Src/lsm303agr_reg.c ****     ctrl_reg4_a.bdu = (uint8_t)val;
1117:Drivers/lsm303agr/Src/lsm303agr_reg.c ****     ret = lsm303agr_write_reg(ctx, LSM303AGR_CTRL_REG4_A,
1118:Drivers/lsm303agr/Src/lsm303agr_reg.c ****                               (uint8_t *)&ctrl_reg4_a, 1);
1119:Drivers/lsm303agr/Src/lsm303agr_reg.c ****   }
1120:Drivers/lsm303agr/Src/lsm303agr_reg.c **** 
1121:Drivers/lsm303agr/Src/lsm303agr_reg.c ****   return ret;
1122:Drivers/lsm303agr/Src/lsm303agr_reg.c **** }
 2452              		.loc 1 1122 1 view .LVU597
 2453 0014 03B0     		add	sp, sp, #12
 2454              	.LCFI78:
 2455              		.cfi_remember_state
 2456              		.cfi_def_cfa_offset 12
 2457              		@ sp needed
 2458 0016 30BD     		pop	{r4, r5, pc}
 2459              	.LVL152:
 2460              	.L170:
 2461              	.LCFI79:
 2462              		.cfi_restore_state
1116:Drivers/lsm303agr/Src/lsm303agr_reg.c ****     ret = lsm303agr_write_reg(ctx, LSM303AGR_CTRL_REG4_A,
 2463              		.loc 1 1116 5 is_stmt 1 view .LVU598
1116:Drivers/lsm303agr/Src/lsm303agr_reg.c ****     ret = lsm303agr_write_reg(ctx, LSM303AGR_CTRL_REG4_A,
 2464              		.loc 1 1116 21 is_stmt 0 view .LVU599
 2465 0018 9DF80430 		ldrb	r3, [sp, #4]	@ zero_extendqisi2
 2466 001c 65F3C713 		bfi	r3, r5, #7, #1
 2467 0020 8DF80430 		strb	r3, [sp, #4]
1117:Drivers/lsm303agr/Src/lsm303agr_reg.c ****                               (uint8_t *)&ctrl_reg4_a, 1);
 2468              		.loc 1 1117 5 is_stmt 1 view .LVU600
1117:Drivers/lsm303agr/Src/lsm303agr_reg.c ****                               (uint8_t *)&ctrl_reg4_a, 1);
 2469              		.loc 1 1117 11 is_stmt 0 view .LVU601
 2470 0024 0123     		movs	r3, #1
 2471              	.LVL153:
1117:Drivers/lsm303agr/Src/lsm303agr_reg.c ****                               (uint8_t *)&ctrl_reg4_a, 1);
 2472              		.loc 1 1117 11 view .LVU602
 2473 0026 01AA     		add	r2, sp, #4
 2474 0028 2321     		movs	r1, #35
 2475 002a 2046     		mov	r0, r4
 2476 002c FFF7FEFF 		bl	lsm303agr_write_reg
 2477              	.LVL154:
1121:Drivers/lsm303agr/Src/lsm303agr_reg.c **** }
 2478              		.loc 1 1121 3 is_stmt 1 view .LVU603
1121:Drivers/lsm303agr/Src/lsm303agr_reg.c **** }
 2479              		.loc 1 1121 10 is_stmt 0 view .LVU604
 2480 0030 F0E7     		b	.L167
 2481              		.cfi_endproc
 2482              	.LFE174:
 2484              		.section	.text.lsm303agr_xl_block_data_update_get,"ax",%progbits
 2485              		.align	1
 2486              		.global	lsm303agr_xl_block_data_update_get
 2487              		.syntax unified
 2488              		.thumb
 2489              		.thumb_func
 2491              	lsm303agr_xl_block_data_update_get:
 2492              	.LVL155:
 2493              	.LFB175:
1123:Drivers/lsm303agr/Src/lsm303agr_reg.c **** 
1124:Drivers/lsm303agr/Src/lsm303agr_reg.c **** /**
1125:Drivers/lsm303agr/Src/lsm303agr_reg.c ****   * @brief  Block data update.[get]
ARM GAS  C:\Users\SF\AppData\Local\Temp\ccFGOSN0.s 			page 66


1126:Drivers/lsm303agr/Src/lsm303agr_reg.c ****   *
1127:Drivers/lsm303agr/Src/lsm303agr_reg.c ****   * @param  ctx    Read / write interface definitions.(ptr)
1128:Drivers/lsm303agr/Src/lsm303agr_reg.c ****   * @param  val    Get the values of bdu in reg CTRL_REG4_A.(ptr)
1129:Drivers/lsm303agr/Src/lsm303agr_reg.c ****   * @retval        Interface status (MANDATORY: return 0 -> no Error).
1130:Drivers/lsm303agr/Src/lsm303agr_reg.c ****   *
1131:Drivers/lsm303agr/Src/lsm303agr_reg.c ****   */
1132:Drivers/lsm303agr/Src/lsm303agr_reg.c **** int32_t lsm303agr_xl_block_data_update_get(stmdev_ctx_t *ctx,
1133:Drivers/lsm303agr/Src/lsm303agr_reg.c ****                                            uint8_t *val)
1134:Drivers/lsm303agr/Src/lsm303agr_reg.c **** {
 2494              		.loc 1 1134 1 is_stmt 1 view -0
 2495              		.cfi_startproc
 2496              		@ args = 0, pretend = 0, frame = 8
 2497              		@ frame_needed = 0, uses_anonymous_args = 0
 2498              		.loc 1 1134 1 is_stmt 0 view .LVU606
 2499 0000 10B5     		push	{r4, lr}
 2500              	.LCFI80:
 2501              		.cfi_def_cfa_offset 8
 2502              		.cfi_offset 4, -8
 2503              		.cfi_offset 14, -4
 2504 0002 82B0     		sub	sp, sp, #8
 2505              	.LCFI81:
 2506              		.cfi_def_cfa_offset 16
 2507 0004 0C46     		mov	r4, r1
1135:Drivers/lsm303agr/Src/lsm303agr_reg.c ****   lsm303agr_ctrl_reg4_a_t ctrl_reg4_a;
 2508              		.loc 1 1135 3 is_stmt 1 view .LVU607
1136:Drivers/lsm303agr/Src/lsm303agr_reg.c ****   int32_t ret;
 2509              		.loc 1 1136 3 view .LVU608
1137:Drivers/lsm303agr/Src/lsm303agr_reg.c **** 
1138:Drivers/lsm303agr/Src/lsm303agr_reg.c ****   ret = lsm303agr_read_reg(ctx, LSM303AGR_CTRL_REG4_A,
 2510              		.loc 1 1138 3 view .LVU609
 2511              		.loc 1 1138 9 is_stmt 0 view .LVU610
 2512 0006 0123     		movs	r3, #1
 2513 0008 01AA     		add	r2, sp, #4
 2514 000a 2321     		movs	r1, #35
 2515              	.LVL156:
 2516              		.loc 1 1138 9 view .LVU611
 2517 000c FFF7FEFF 		bl	lsm303agr_read_reg
 2518              	.LVL157:
1139:Drivers/lsm303agr/Src/lsm303agr_reg.c ****                            (uint8_t *)&ctrl_reg4_a, 1);
1140:Drivers/lsm303agr/Src/lsm303agr_reg.c ****   *val = ctrl_reg4_a.bdu;
 2519              		.loc 1 1140 3 is_stmt 1 view .LVU612
 2520              		.loc 1 1140 21 is_stmt 0 view .LVU613
 2521 0010 9DF80430 		ldrb	r3, [sp, #4]	@ zero_extendqisi2
 2522 0014 C3F3C013 		ubfx	r3, r3, #7, #1
 2523              		.loc 1 1140 8 view .LVU614
 2524 0018 2370     		strb	r3, [r4]
1141:Drivers/lsm303agr/Src/lsm303agr_reg.c **** 
1142:Drivers/lsm303agr/Src/lsm303agr_reg.c ****   return ret;
 2525              		.loc 1 1142 3 is_stmt 1 view .LVU615
1143:Drivers/lsm303agr/Src/lsm303agr_reg.c **** }
 2526              		.loc 1 1143 1 is_stmt 0 view .LVU616
 2527 001a 02B0     		add	sp, sp, #8
 2528              	.LCFI82:
 2529              		.cfi_def_cfa_offset 8
 2530              		@ sp needed
 2531 001c 10BD     		pop	{r4, pc}
 2532              		.loc 1 1143 1 view .LVU617
ARM GAS  C:\Users\SF\AppData\Local\Temp\ccFGOSN0.s 			page 67


 2533              		.cfi_endproc
 2534              	.LFE175:
 2536              		.section	.text.lsm303agr_xl_filter_reference_set,"ax",%progbits
 2537              		.align	1
 2538              		.global	lsm303agr_xl_filter_reference_set
 2539              		.syntax unified
 2540              		.thumb
 2541              		.thumb_func
 2543              	lsm303agr_xl_filter_reference_set:
 2544              	.LVL158:
 2545              	.LFB176:
1144:Drivers/lsm303agr/Src/lsm303agr_reg.c **** 
1145:Drivers/lsm303agr/Src/lsm303agr_reg.c **** /**
1146:Drivers/lsm303agr/Src/lsm303agr_reg.c ****   * @brief  Reference value for interrupt generation.[set]
1147:Drivers/lsm303agr/Src/lsm303agr_reg.c ****   *         LSB = ~16@2g / ~31@4g / ~63@8g / ~127@16g
1148:Drivers/lsm303agr/Src/lsm303agr_reg.c ****   *
1149:Drivers/lsm303agr/Src/lsm303agr_reg.c ****   * @param  ctx    Read / write interface definitions.(ptr)
1150:Drivers/lsm303agr/Src/lsm303agr_reg.c ****   * @param  buff   Buffer that contains data to write.(ptr)
1151:Drivers/lsm303agr/Src/lsm303agr_reg.c ****   * @retval        Interface status (MANDATORY: return 0 -> no Error).
1152:Drivers/lsm303agr/Src/lsm303agr_reg.c ****   *
1153:Drivers/lsm303agr/Src/lsm303agr_reg.c ****   */
1154:Drivers/lsm303agr/Src/lsm303agr_reg.c **** int32_t lsm303agr_xl_filter_reference_set(stmdev_ctx_t *ctx,
1155:Drivers/lsm303agr/Src/lsm303agr_reg.c ****                                           uint8_t *buff)
1156:Drivers/lsm303agr/Src/lsm303agr_reg.c **** {
 2546              		.loc 1 1156 1 is_stmt 1 view -0
 2547              		.cfi_startproc
 2548              		@ args = 0, pretend = 0, frame = 0
 2549              		@ frame_needed = 0, uses_anonymous_args = 0
 2550              		.loc 1 1156 1 is_stmt 0 view .LVU619
 2551 0000 08B5     		push	{r3, lr}
 2552              	.LCFI83:
 2553              		.cfi_def_cfa_offset 8
 2554              		.cfi_offset 3, -8
 2555              		.cfi_offset 14, -4
 2556 0002 0A46     		mov	r2, r1
1157:Drivers/lsm303agr/Src/lsm303agr_reg.c ****   int32_t ret;
 2557              		.loc 1 1157 3 is_stmt 1 view .LVU620
1158:Drivers/lsm303agr/Src/lsm303agr_reg.c **** 
1159:Drivers/lsm303agr/Src/lsm303agr_reg.c ****   ret = lsm303agr_write_reg(ctx, LSM303AGR_REFERENCE_A, buff, 1);
 2558              		.loc 1 1159 3 view .LVU621
 2559              		.loc 1 1159 9 is_stmt 0 view .LVU622
 2560 0004 0123     		movs	r3, #1
 2561 0006 2621     		movs	r1, #38
 2562              	.LVL159:
 2563              		.loc 1 1159 9 view .LVU623
 2564 0008 FFF7FEFF 		bl	lsm303agr_write_reg
 2565              	.LVL160:
1160:Drivers/lsm303agr/Src/lsm303agr_reg.c **** 
1161:Drivers/lsm303agr/Src/lsm303agr_reg.c ****   return ret;
 2566              		.loc 1 1161 3 is_stmt 1 view .LVU624
1162:Drivers/lsm303agr/Src/lsm303agr_reg.c **** }
 2567              		.loc 1 1162 1 is_stmt 0 view .LVU625
 2568 000c 08BD     		pop	{r3, pc}
 2569              		.cfi_endproc
 2570              	.LFE176:
 2572              		.section	.text.lsm303agr_xl_filter_reference_get,"ax",%progbits
 2573              		.align	1
ARM GAS  C:\Users\SF\AppData\Local\Temp\ccFGOSN0.s 			page 68


 2574              		.global	lsm303agr_xl_filter_reference_get
 2575              		.syntax unified
 2576              		.thumb
 2577              		.thumb_func
 2579              	lsm303agr_xl_filter_reference_get:
 2580              	.LVL161:
 2581              	.LFB177:
1163:Drivers/lsm303agr/Src/lsm303agr_reg.c **** 
1164:Drivers/lsm303agr/Src/lsm303agr_reg.c **** /**
1165:Drivers/lsm303agr/Src/lsm303agr_reg.c ****   * @brief  Reference value for interrupt generation.[get]
1166:Drivers/lsm303agr/Src/lsm303agr_reg.c ****   *         LSB = ~16@2g / ~31@4g / ~63@8g / ~127@16g
1167:Drivers/lsm303agr/Src/lsm303agr_reg.c ****   *
1168:Drivers/lsm303agr/Src/lsm303agr_reg.c ****   * @param  ctx    Read / write interface definitions.(ptr)
1169:Drivers/lsm303agr/Src/lsm303agr_reg.c ****   * @param  buff   Buffer that stores data read.(ptr)
1170:Drivers/lsm303agr/Src/lsm303agr_reg.c ****   * @retval        Interface status (MANDATORY: return 0 -> no Error).
1171:Drivers/lsm303agr/Src/lsm303agr_reg.c ****   *
1172:Drivers/lsm303agr/Src/lsm303agr_reg.c ****   */
1173:Drivers/lsm303agr/Src/lsm303agr_reg.c **** int32_t lsm303agr_xl_filter_reference_get(stmdev_ctx_t *ctx,
1174:Drivers/lsm303agr/Src/lsm303agr_reg.c ****                                           uint8_t *buff)
1175:Drivers/lsm303agr/Src/lsm303agr_reg.c **** {
 2582              		.loc 1 1175 1 is_stmt 1 view -0
 2583              		.cfi_startproc
 2584              		@ args = 0, pretend = 0, frame = 0
 2585              		@ frame_needed = 0, uses_anonymous_args = 0
 2586              		.loc 1 1175 1 is_stmt 0 view .LVU627
 2587 0000 08B5     		push	{r3, lr}
 2588              	.LCFI84:
 2589              		.cfi_def_cfa_offset 8
 2590              		.cfi_offset 3, -8
 2591              		.cfi_offset 14, -4
 2592 0002 0A46     		mov	r2, r1
1176:Drivers/lsm303agr/Src/lsm303agr_reg.c ****   int32_t ret;
 2593              		.loc 1 1176 3 is_stmt 1 view .LVU628
1177:Drivers/lsm303agr/Src/lsm303agr_reg.c **** 
1178:Drivers/lsm303agr/Src/lsm303agr_reg.c ****   ret = lsm303agr_read_reg(ctx, LSM303AGR_REFERENCE_A, buff, 1);
 2594              		.loc 1 1178 3 view .LVU629
 2595              		.loc 1 1178 9 is_stmt 0 view .LVU630
 2596 0004 0123     		movs	r3, #1
 2597 0006 2621     		movs	r1, #38
 2598              	.LVL162:
 2599              		.loc 1 1178 9 view .LVU631
 2600 0008 FFF7FEFF 		bl	lsm303agr_read_reg
 2601              	.LVL163:
1179:Drivers/lsm303agr/Src/lsm303agr_reg.c **** 
1180:Drivers/lsm303agr/Src/lsm303agr_reg.c ****   return ret;
 2602              		.loc 1 1180 3 is_stmt 1 view .LVU632
1181:Drivers/lsm303agr/Src/lsm303agr_reg.c **** }
 2603              		.loc 1 1181 1 is_stmt 0 view .LVU633
 2604 000c 08BD     		pop	{r3, pc}
 2605              		.cfi_endproc
 2606              	.LFE177:
 2608              		.section	.text.lsm303agr_xl_data_ready_get,"ax",%progbits
 2609              		.align	1
 2610              		.global	lsm303agr_xl_data_ready_get
 2611              		.syntax unified
 2612              		.thumb
 2613              		.thumb_func
ARM GAS  C:\Users\SF\AppData\Local\Temp\ccFGOSN0.s 			page 69


 2615              	lsm303agr_xl_data_ready_get:
 2616              	.LVL164:
 2617              	.LFB178:
1182:Drivers/lsm303agr/Src/lsm303agr_reg.c **** 
1183:Drivers/lsm303agr/Src/lsm303agr_reg.c **** /**
1184:Drivers/lsm303agr/Src/lsm303agr_reg.c ****   * @brief  Acceleration set of data available.[get]
1185:Drivers/lsm303agr/Src/lsm303agr_reg.c ****   *
1186:Drivers/lsm303agr/Src/lsm303agr_reg.c ****   * @param  ctx    Read / write interface definitions.(ptr)
1187:Drivers/lsm303agr/Src/lsm303agr_reg.c ****   * @param  val    Get the values of zyxda in reg STATUS_REG_A.(ptr)
1188:Drivers/lsm303agr/Src/lsm303agr_reg.c ****   * @retval        Interface status (MANDATORY: return 0 -> no Error).
1189:Drivers/lsm303agr/Src/lsm303agr_reg.c ****   *
1190:Drivers/lsm303agr/Src/lsm303agr_reg.c ****   */
1191:Drivers/lsm303agr/Src/lsm303agr_reg.c **** int32_t lsm303agr_xl_data_ready_get(stmdev_ctx_t *ctx, uint8_t *val)
1192:Drivers/lsm303agr/Src/lsm303agr_reg.c **** {
 2618              		.loc 1 1192 1 is_stmt 1 view -0
 2619              		.cfi_startproc
 2620              		@ args = 0, pretend = 0, frame = 8
 2621              		@ frame_needed = 0, uses_anonymous_args = 0
 2622              		.loc 1 1192 1 is_stmt 0 view .LVU635
 2623 0000 10B5     		push	{r4, lr}
 2624              	.LCFI85:
 2625              		.cfi_def_cfa_offset 8
 2626              		.cfi_offset 4, -8
 2627              		.cfi_offset 14, -4
 2628 0002 82B0     		sub	sp, sp, #8
 2629              	.LCFI86:
 2630              		.cfi_def_cfa_offset 16
 2631 0004 0C46     		mov	r4, r1
1193:Drivers/lsm303agr/Src/lsm303agr_reg.c ****   lsm303agr_status_reg_a_t status_reg_a;
 2632              		.loc 1 1193 3 is_stmt 1 view .LVU636
1194:Drivers/lsm303agr/Src/lsm303agr_reg.c ****   int32_t ret;
 2633              		.loc 1 1194 3 view .LVU637
1195:Drivers/lsm303agr/Src/lsm303agr_reg.c **** 
1196:Drivers/lsm303agr/Src/lsm303agr_reg.c ****   ret = lsm303agr_read_reg(ctx, LSM303AGR_STATUS_REG_A,
 2634              		.loc 1 1196 3 view .LVU638
 2635              		.loc 1 1196 9 is_stmt 0 view .LVU639
 2636 0006 0123     		movs	r3, #1
 2637 0008 01AA     		add	r2, sp, #4
 2638 000a 2721     		movs	r1, #39
 2639              	.LVL165:
 2640              		.loc 1 1196 9 view .LVU640
 2641 000c FFF7FEFF 		bl	lsm303agr_read_reg
 2642              	.LVL166:
1197:Drivers/lsm303agr/Src/lsm303agr_reg.c ****                            (uint8_t *)&status_reg_a, 1);
1198:Drivers/lsm303agr/Src/lsm303agr_reg.c ****   *val = status_reg_a.zyxda;
 2643              		.loc 1 1198 3 is_stmt 1 view .LVU641
 2644              		.loc 1 1198 22 is_stmt 0 view .LVU642
 2645 0010 9DF80430 		ldrb	r3, [sp, #4]	@ zero_extendqisi2
 2646 0014 C3F3C003 		ubfx	r3, r3, #3, #1
 2647              		.loc 1 1198 8 view .LVU643
 2648 0018 2370     		strb	r3, [r4]
1199:Drivers/lsm303agr/Src/lsm303agr_reg.c **** 
1200:Drivers/lsm303agr/Src/lsm303agr_reg.c ****   return ret;
 2649              		.loc 1 1200 3 is_stmt 1 view .LVU644
1201:Drivers/lsm303agr/Src/lsm303agr_reg.c **** }
 2650              		.loc 1 1201 1 is_stmt 0 view .LVU645
 2651 001a 02B0     		add	sp, sp, #8
ARM GAS  C:\Users\SF\AppData\Local\Temp\ccFGOSN0.s 			page 70


 2652              	.LCFI87:
 2653              		.cfi_def_cfa_offset 8
 2654              		@ sp needed
 2655 001c 10BD     		pop	{r4, pc}
 2656              		.loc 1 1201 1 view .LVU646
 2657              		.cfi_endproc
 2658              	.LFE178:
 2660              		.section	.text.lsm303agr_xl_data_ovr_get,"ax",%progbits
 2661              		.align	1
 2662              		.global	lsm303agr_xl_data_ovr_get
 2663              		.syntax unified
 2664              		.thumb
 2665              		.thumb_func
 2667              	lsm303agr_xl_data_ovr_get:
 2668              	.LVL167:
 2669              	.LFB179:
1202:Drivers/lsm303agr/Src/lsm303agr_reg.c **** 
1203:Drivers/lsm303agr/Src/lsm303agr_reg.c **** /**
1204:Drivers/lsm303agr/Src/lsm303agr_reg.c ****   * @brief  Acceleration set of data overrun.[get]
1205:Drivers/lsm303agr/Src/lsm303agr_reg.c ****   *
1206:Drivers/lsm303agr/Src/lsm303agr_reg.c ****   * @param  ctx    Read / write interface definitions.(ptr)
1207:Drivers/lsm303agr/Src/lsm303agr_reg.c ****   * @param  val    Get the values of zyxor in reg STATUS_REG_A.(ptr)
1208:Drivers/lsm303agr/Src/lsm303agr_reg.c ****   * @retval        Interface status (MANDATORY: return 0 -> no Error).
1209:Drivers/lsm303agr/Src/lsm303agr_reg.c ****   *
1210:Drivers/lsm303agr/Src/lsm303agr_reg.c ****   */
1211:Drivers/lsm303agr/Src/lsm303agr_reg.c **** int32_t lsm303agr_xl_data_ovr_get(stmdev_ctx_t *ctx, uint8_t *val)
1212:Drivers/lsm303agr/Src/lsm303agr_reg.c **** {
 2670              		.loc 1 1212 1 is_stmt 1 view -0
 2671              		.cfi_startproc
 2672              		@ args = 0, pretend = 0, frame = 8
 2673              		@ frame_needed = 0, uses_anonymous_args = 0
 2674              		.loc 1 1212 1 is_stmt 0 view .LVU648
 2675 0000 10B5     		push	{r4, lr}
 2676              	.LCFI88:
 2677              		.cfi_def_cfa_offset 8
 2678              		.cfi_offset 4, -8
 2679              		.cfi_offset 14, -4
 2680 0002 82B0     		sub	sp, sp, #8
 2681              	.LCFI89:
 2682              		.cfi_def_cfa_offset 16
 2683 0004 0C46     		mov	r4, r1
1213:Drivers/lsm303agr/Src/lsm303agr_reg.c ****   lsm303agr_status_reg_a_t status_reg_a;
 2684              		.loc 1 1213 3 is_stmt 1 view .LVU649
1214:Drivers/lsm303agr/Src/lsm303agr_reg.c ****   int32_t ret;
 2685              		.loc 1 1214 3 view .LVU650
1215:Drivers/lsm303agr/Src/lsm303agr_reg.c **** 
1216:Drivers/lsm303agr/Src/lsm303agr_reg.c ****   ret = lsm303agr_read_reg(ctx, LSM303AGR_STATUS_REG_A,
 2686              		.loc 1 1216 3 view .LVU651
 2687              		.loc 1 1216 9 is_stmt 0 view .LVU652
 2688 0006 0123     		movs	r3, #1
 2689 0008 01AA     		add	r2, sp, #4
 2690 000a 2721     		movs	r1, #39
 2691              	.LVL168:
 2692              		.loc 1 1216 9 view .LVU653
 2693 000c FFF7FEFF 		bl	lsm303agr_read_reg
 2694              	.LVL169:
1217:Drivers/lsm303agr/Src/lsm303agr_reg.c ****                            (uint8_t *)&status_reg_a, 1);
ARM GAS  C:\Users\SF\AppData\Local\Temp\ccFGOSN0.s 			page 71


1218:Drivers/lsm303agr/Src/lsm303agr_reg.c ****   *val = status_reg_a.zyxor;
 2695              		.loc 1 1218 3 is_stmt 1 view .LVU654
 2696              		.loc 1 1218 22 is_stmt 0 view .LVU655
 2697 0010 9DF80430 		ldrb	r3, [sp, #4]	@ zero_extendqisi2
 2698 0014 C3F3C013 		ubfx	r3, r3, #7, #1
 2699              		.loc 1 1218 8 view .LVU656
 2700 0018 2370     		strb	r3, [r4]
1219:Drivers/lsm303agr/Src/lsm303agr_reg.c **** 
1220:Drivers/lsm303agr/Src/lsm303agr_reg.c ****   return ret;
 2701              		.loc 1 1220 3 is_stmt 1 view .LVU657
1221:Drivers/lsm303agr/Src/lsm303agr_reg.c **** }
 2702              		.loc 1 1221 1 is_stmt 0 view .LVU658
 2703 001a 02B0     		add	sp, sp, #8
 2704              	.LCFI90:
 2705              		.cfi_def_cfa_offset 8
 2706              		@ sp needed
 2707 001c 10BD     		pop	{r4, pc}
 2708              		.loc 1 1221 1 view .LVU659
 2709              		.cfi_endproc
 2710              	.LFE179:
 2712              		.section	.text.lsm303agr_acceleration_raw_get,"ax",%progbits
 2713              		.align	1
 2714              		.global	lsm303agr_acceleration_raw_get
 2715              		.syntax unified
 2716              		.thumb
 2717              		.thumb_func
 2719              	lsm303agr_acceleration_raw_get:
 2720              	.LVL170:
 2721              	.LFB180:
1222:Drivers/lsm303agr/Src/lsm303agr_reg.c **** 
1223:Drivers/lsm303agr/Src/lsm303agr_reg.c **** /**
1224:Drivers/lsm303agr/Src/lsm303agr_reg.c ****   * @brief  Acceleration output value.[get]
1225:Drivers/lsm303agr/Src/lsm303agr_reg.c ****   *
1226:Drivers/lsm303agr/Src/lsm303agr_reg.c ****   * @param  ctx    Read / write interface definitions.(ptr)
1227:Drivers/lsm303agr/Src/lsm303agr_reg.c ****   * @param  buff   Buffer that stores data read.(ptr)
1228:Drivers/lsm303agr/Src/lsm303agr_reg.c ****   * @retval        Interface status (MANDATORY: return 0 -> no Error).
1229:Drivers/lsm303agr/Src/lsm303agr_reg.c ****   *
1230:Drivers/lsm303agr/Src/lsm303agr_reg.c ****   */
1231:Drivers/lsm303agr/Src/lsm303agr_reg.c **** int32_t lsm303agr_acceleration_raw_get(stmdev_ctx_t *ctx,
1232:Drivers/lsm303agr/Src/lsm303agr_reg.c ****                                        int16_t *val)
1233:Drivers/lsm303agr/Src/lsm303agr_reg.c **** {
 2722              		.loc 1 1233 1 is_stmt 1 view -0
 2723              		.cfi_startproc
 2724              		@ args = 0, pretend = 0, frame = 8
 2725              		@ frame_needed = 0, uses_anonymous_args = 0
 2726              		.loc 1 1233 1 is_stmt 0 view .LVU661
 2727 0000 10B5     		push	{r4, lr}
 2728              	.LCFI91:
 2729              		.cfi_def_cfa_offset 8
 2730              		.cfi_offset 4, -8
 2731              		.cfi_offset 14, -4
 2732 0002 82B0     		sub	sp, sp, #8
 2733              	.LCFI92:
 2734              		.cfi_def_cfa_offset 16
 2735 0004 0C46     		mov	r4, r1
1234:Drivers/lsm303agr/Src/lsm303agr_reg.c ****   uint8_t buff[6];
 2736              		.loc 1 1234 3 is_stmt 1 view .LVU662
ARM GAS  C:\Users\SF\AppData\Local\Temp\ccFGOSN0.s 			page 72


1235:Drivers/lsm303agr/Src/lsm303agr_reg.c ****   int32_t ret;
 2737              		.loc 1 1235 3 view .LVU663
1236:Drivers/lsm303agr/Src/lsm303agr_reg.c **** 
1237:Drivers/lsm303agr/Src/lsm303agr_reg.c ****   ret = lsm303agr_read_reg(ctx, LSM303AGR_OUT_X_L_A, buff, 6);
 2738              		.loc 1 1237 3 view .LVU664
 2739              		.loc 1 1237 9 is_stmt 0 view .LVU665
 2740 0006 0623     		movs	r3, #6
 2741 0008 6A46     		mov	r2, sp
 2742 000a 2821     		movs	r1, #40
 2743              	.LVL171:
 2744              		.loc 1 1237 9 view .LVU666
 2745 000c FFF7FEFF 		bl	lsm303agr_read_reg
 2746              	.LVL172:
1238:Drivers/lsm303agr/Src/lsm303agr_reg.c ****   val[0] = (int16_t)buff[1];
 2747              		.loc 1 1238 3 is_stmt 1 view .LVU667
 2748              		.loc 1 1238 12 is_stmt 0 view .LVU668
 2749 0010 9DF80120 		ldrb	r2, [sp, #1]	@ zero_extendqisi2
 2750              		.loc 1 1238 10 view .LVU669
 2751 0014 2280     		strh	r2, [r4]	@ movhi
1239:Drivers/lsm303agr/Src/lsm303agr_reg.c ****   val[0] = (val[0] * 256) + (int16_t)buff[0];
 2752              		.loc 1 1239 3 is_stmt 1 view .LVU670
 2753              		.loc 1 1239 42 is_stmt 0 view .LVU671
 2754 0016 9DF80030 		ldrb	r3, [sp]	@ zero_extendqisi2
 2755              		.loc 1 1239 27 view .LVU672
 2756 001a 03EB0223 		add	r3, r3, r2, lsl #8
 2757              		.loc 1 1239 10 view .LVU673
 2758 001e 2380     		strh	r3, [r4]	@ movhi
1240:Drivers/lsm303agr/Src/lsm303agr_reg.c ****   val[1] = (int16_t)buff[3];
 2759              		.loc 1 1240 3 is_stmt 1 view .LVU674
 2760              		.loc 1 1240 12 is_stmt 0 view .LVU675
 2761 0020 9DF80320 		ldrb	r2, [sp, #3]	@ zero_extendqisi2
 2762              		.loc 1 1240 10 view .LVU676
 2763 0024 6280     		strh	r2, [r4, #2]	@ movhi
1241:Drivers/lsm303agr/Src/lsm303agr_reg.c ****   val[1] = (val[1] * 256) + (int16_t)buff[2];
 2764              		.loc 1 1241 3 is_stmt 1 view .LVU677
 2765              		.loc 1 1241 42 is_stmt 0 view .LVU678
 2766 0026 9DF80230 		ldrb	r3, [sp, #2]	@ zero_extendqisi2
 2767              		.loc 1 1241 27 view .LVU679
 2768 002a 03EB0223 		add	r3, r3, r2, lsl #8
 2769              		.loc 1 1241 10 view .LVU680
 2770 002e 6380     		strh	r3, [r4, #2]	@ movhi
1242:Drivers/lsm303agr/Src/lsm303agr_reg.c ****   val[2] = (int16_t)buff[5];
 2771              		.loc 1 1242 3 is_stmt 1 view .LVU681
 2772              		.loc 1 1242 12 is_stmt 0 view .LVU682
 2773 0030 9DF80520 		ldrb	r2, [sp, #5]	@ zero_extendqisi2
 2774              		.loc 1 1242 10 view .LVU683
 2775 0034 A280     		strh	r2, [r4, #4]	@ movhi
1243:Drivers/lsm303agr/Src/lsm303agr_reg.c ****   val[2] = (val[2] * 256) + (int16_t)buff[4];
 2776              		.loc 1 1243 3 is_stmt 1 view .LVU684
 2777              		.loc 1 1243 42 is_stmt 0 view .LVU685
 2778 0036 9DF80430 		ldrb	r3, [sp, #4]	@ zero_extendqisi2
 2779              		.loc 1 1243 27 view .LVU686
 2780 003a 03EB0223 		add	r3, r3, r2, lsl #8
 2781              		.loc 1 1243 10 view .LVU687
 2782 003e A380     		strh	r3, [r4, #4]	@ movhi
1244:Drivers/lsm303agr/Src/lsm303agr_reg.c **** 
1245:Drivers/lsm303agr/Src/lsm303agr_reg.c ****   return ret;
ARM GAS  C:\Users\SF\AppData\Local\Temp\ccFGOSN0.s 			page 73


 2783              		.loc 1 1245 3 is_stmt 1 view .LVU688
1246:Drivers/lsm303agr/Src/lsm303agr_reg.c **** }
 2784              		.loc 1 1246 1 is_stmt 0 view .LVU689
 2785 0040 02B0     		add	sp, sp, #8
 2786              	.LCFI93:
 2787              		.cfi_def_cfa_offset 8
 2788              		@ sp needed
 2789 0042 10BD     		pop	{r4, pc}
 2790              		.loc 1 1246 1 view .LVU690
 2791              		.cfi_endproc
 2792              	.LFE180:
 2794              		.section	.text.lsm303agr_mag_user_offset_set,"ax",%progbits
 2795              		.align	1
 2796              		.global	lsm303agr_mag_user_offset_set
 2797              		.syntax unified
 2798              		.thumb
 2799              		.thumb_func
 2801              	lsm303agr_mag_user_offset_set:
 2802              	.LVL173:
 2803              	.LFB181:
1247:Drivers/lsm303agr/Src/lsm303agr_reg.c **** 
1248:Drivers/lsm303agr/Src/lsm303agr_reg.c **** /**
1249:Drivers/lsm303agr/Src/lsm303agr_reg.c ****   * @brief  These registers comprise a 3 group of
1250:Drivers/lsm303agr/Src/lsm303agr_reg.c ****   *         16-bit number and represent hard-iron
1251:Drivers/lsm303agr/Src/lsm303agr_reg.c ****   *         offset in order to compensate environmental
1252:Drivers/lsm303agr/Src/lsm303agr_reg.c ****   *         effects. Data format is the same of
1253:Drivers/lsm303agr/Src/lsm303agr_reg.c ****   *         output data raw: twos complement with
1254:Drivers/lsm303agr/Src/lsm303agr_reg.c ****   *         1LSb = 1.5mG. These values act on the
1255:Drivers/lsm303agr/Src/lsm303agr_reg.c ****   *         magnetic output data value in order to
1256:Drivers/lsm303agr/Src/lsm303agr_reg.c ****   *         delete the environmental offset.[set]
1257:Drivers/lsm303agr/Src/lsm303agr_reg.c ****   *
1258:Drivers/lsm303agr/Src/lsm303agr_reg.c ****   * @param  ctx    Read / write interface definitions.(ptr)
1259:Drivers/lsm303agr/Src/lsm303agr_reg.c ****   * @param  buff   Buffer that contains data to write.(ptr)
1260:Drivers/lsm303agr/Src/lsm303agr_reg.c ****   * @retval        Interface status (MANDATORY: return 0 -> no Error).
1261:Drivers/lsm303agr/Src/lsm303agr_reg.c ****   *
1262:Drivers/lsm303agr/Src/lsm303agr_reg.c ****   */
1263:Drivers/lsm303agr/Src/lsm303agr_reg.c **** int32_t lsm303agr_mag_user_offset_set(stmdev_ctx_t *ctx, int16_t *val)
1264:Drivers/lsm303agr/Src/lsm303agr_reg.c **** {
 2804              		.loc 1 1264 1 is_stmt 1 view -0
 2805              		.cfi_startproc
 2806              		@ args = 0, pretend = 0, frame = 8
 2807              		@ frame_needed = 0, uses_anonymous_args = 0
 2808              		.loc 1 1264 1 is_stmt 0 view .LVU692
 2809 0000 00B5     		push	{lr}
 2810              	.LCFI94:
 2811              		.cfi_def_cfa_offset 4
 2812              		.cfi_offset 14, -4
 2813 0002 83B0     		sub	sp, sp, #12
 2814              	.LCFI95:
 2815              		.cfi_def_cfa_offset 16
1265:Drivers/lsm303agr/Src/lsm303agr_reg.c ****   uint8_t buff[6];
 2816              		.loc 1 1265 3 is_stmt 1 view .LVU693
1266:Drivers/lsm303agr/Src/lsm303agr_reg.c ****   int32_t ret;
 2817              		.loc 1 1266 3 view .LVU694
1267:Drivers/lsm303agr/Src/lsm303agr_reg.c **** 
1268:Drivers/lsm303agr/Src/lsm303agr_reg.c ****   buff[1] = (uint8_t)((uint16_t)val[0] / 256U);
 2818              		.loc 1 1268 3 view .LVU695
ARM GAS  C:\Users\SF\AppData\Local\Temp\ccFGOSN0.s 			page 74


 2819              		.loc 1 1268 36 is_stmt 0 view .LVU696
 2820 0004 B1F90030 		ldrsh	r3, [r1]
 2821              		.loc 1 1268 13 view .LVU697
 2822 0008 C3F30722 		ubfx	r2, r3, #8, #8
 2823              		.loc 1 1268 11 view .LVU698
 2824 000c 8DF80120 		strb	r2, [sp, #1]
1269:Drivers/lsm303agr/Src/lsm303agr_reg.c ****   buff[0] = (uint8_t)((uint16_t)val[0] - (buff[1] * 256U));
 2825              		.loc 1 1269 3 is_stmt 1 view .LVU699
 2826              		.loc 1 1269 11 is_stmt 0 view .LVU700
 2827 0010 8DF80030 		strb	r3, [sp]
1270:Drivers/lsm303agr/Src/lsm303agr_reg.c ****   buff[3] = (uint8_t)((uint16_t)val[1] / 256U);
 2828              		.loc 1 1270 3 is_stmt 1 view .LVU701
 2829              		.loc 1 1270 36 is_stmt 0 view .LVU702
 2830 0014 B1F90230 		ldrsh	r3, [r1, #2]
 2831              		.loc 1 1270 13 view .LVU703
 2832 0018 C3F30722 		ubfx	r2, r3, #8, #8
 2833              		.loc 1 1270 11 view .LVU704
 2834 001c 8DF80320 		strb	r2, [sp, #3]
1271:Drivers/lsm303agr/Src/lsm303agr_reg.c ****   buff[2] = (uint8_t)((uint16_t)val[1] - (buff[3] * 256U));
 2835              		.loc 1 1271 3 is_stmt 1 view .LVU705
 2836              		.loc 1 1271 11 is_stmt 0 view .LVU706
 2837 0020 8DF80230 		strb	r3, [sp, #2]
1272:Drivers/lsm303agr/Src/lsm303agr_reg.c ****   buff[5] = (uint8_t)((uint16_t)val[2] / 256U);
 2838              		.loc 1 1272 3 is_stmt 1 view .LVU707
 2839              		.loc 1 1272 36 is_stmt 0 view .LVU708
 2840 0024 B1F90430 		ldrsh	r3, [r1, #4]
 2841              		.loc 1 1272 13 view .LVU709
 2842 0028 C3F30722 		ubfx	r2, r3, #8, #8
 2843              		.loc 1 1272 11 view .LVU710
 2844 002c 8DF80520 		strb	r2, [sp, #5]
1273:Drivers/lsm303agr/Src/lsm303agr_reg.c ****   buff[4] = (uint8_t)((uint16_t)val[2] - (buff[5] * 256U));
 2845              		.loc 1 1273 3 is_stmt 1 view .LVU711
 2846              		.loc 1 1273 11 is_stmt 0 view .LVU712
 2847 0030 8DF80430 		strb	r3, [sp, #4]
1274:Drivers/lsm303agr/Src/lsm303agr_reg.c ****   ret = lsm303agr_write_reg(ctx, LSM303AGR_OFFSET_X_REG_L_M, buff, 6);
 2848              		.loc 1 1274 3 is_stmt 1 view .LVU713
 2849              		.loc 1 1274 9 is_stmt 0 view .LVU714
 2850 0034 0623     		movs	r3, #6
 2851 0036 6A46     		mov	r2, sp
 2852 0038 4521     		movs	r1, #69
 2853              	.LVL174:
 2854              		.loc 1 1274 9 view .LVU715
 2855 003a FFF7FEFF 		bl	lsm303agr_write_reg
 2856              	.LVL175:
1275:Drivers/lsm303agr/Src/lsm303agr_reg.c **** 
1276:Drivers/lsm303agr/Src/lsm303agr_reg.c ****   return ret;
 2857              		.loc 1 1276 3 is_stmt 1 view .LVU716
1277:Drivers/lsm303agr/Src/lsm303agr_reg.c **** }
 2858              		.loc 1 1277 1 is_stmt 0 view .LVU717
 2859 003e 03B0     		add	sp, sp, #12
 2860              	.LCFI96:
 2861              		.cfi_def_cfa_offset 4
 2862              		@ sp needed
 2863 0040 5DF804FB 		ldr	pc, [sp], #4
 2864              		.cfi_endproc
 2865              	.LFE181:
 2867              		.section	.text.lsm303agr_mag_user_offset_get,"ax",%progbits
ARM GAS  C:\Users\SF\AppData\Local\Temp\ccFGOSN0.s 			page 75


 2868              		.align	1
 2869              		.global	lsm303agr_mag_user_offset_get
 2870              		.syntax unified
 2871              		.thumb
 2872              		.thumb_func
 2874              	lsm303agr_mag_user_offset_get:
 2875              	.LVL176:
 2876              	.LFB182:
1278:Drivers/lsm303agr/Src/lsm303agr_reg.c **** 
1279:Drivers/lsm303agr/Src/lsm303agr_reg.c **** /**
1280:Drivers/lsm303agr/Src/lsm303agr_reg.c ****   * @brief  These registers comprise a 3 group of
1281:Drivers/lsm303agr/Src/lsm303agr_reg.c ****   *         16-bit number and represent hard-iron
1282:Drivers/lsm303agr/Src/lsm303agr_reg.c ****   *         offset in order to compensate environmental
1283:Drivers/lsm303agr/Src/lsm303agr_reg.c ****   *         effects. Data format is the same of
1284:Drivers/lsm303agr/Src/lsm303agr_reg.c ****   *         output data raw: twos complement with
1285:Drivers/lsm303agr/Src/lsm303agr_reg.c ****   *         1LSb = 1.5mG. These values act on the
1286:Drivers/lsm303agr/Src/lsm303agr_reg.c ****   *         magnetic output data value in order to
1287:Drivers/lsm303agr/Src/lsm303agr_reg.c ****   *         delete the environmental offset.[get]
1288:Drivers/lsm303agr/Src/lsm303agr_reg.c ****   *
1289:Drivers/lsm303agr/Src/lsm303agr_reg.c ****   * @param  ctx    Read / write interface definitions.(ptr)
1290:Drivers/lsm303agr/Src/lsm303agr_reg.c ****   * @param  buff   Buffer that stores data read.(ptr)
1291:Drivers/lsm303agr/Src/lsm303agr_reg.c ****   * @retval        Interface status (MANDATORY: return 0 -> no Error).
1292:Drivers/lsm303agr/Src/lsm303agr_reg.c ****   *
1293:Drivers/lsm303agr/Src/lsm303agr_reg.c ****   */
1294:Drivers/lsm303agr/Src/lsm303agr_reg.c **** int32_t lsm303agr_mag_user_offset_get(stmdev_ctx_t *ctx, int16_t *val)
1295:Drivers/lsm303agr/Src/lsm303agr_reg.c **** {
 2877              		.loc 1 1295 1 is_stmt 1 view -0
 2878              		.cfi_startproc
 2879              		@ args = 0, pretend = 0, frame = 8
 2880              		@ frame_needed = 0, uses_anonymous_args = 0
 2881              		.loc 1 1295 1 is_stmt 0 view .LVU719
 2882 0000 10B5     		push	{r4, lr}
 2883              	.LCFI97:
 2884              		.cfi_def_cfa_offset 8
 2885              		.cfi_offset 4, -8
 2886              		.cfi_offset 14, -4
 2887 0002 82B0     		sub	sp, sp, #8
 2888              	.LCFI98:
 2889              		.cfi_def_cfa_offset 16
 2890 0004 0C46     		mov	r4, r1
1296:Drivers/lsm303agr/Src/lsm303agr_reg.c ****   uint8_t buff[6];
 2891              		.loc 1 1296 3 is_stmt 1 view .LVU720
1297:Drivers/lsm303agr/Src/lsm303agr_reg.c ****   int32_t ret;
 2892              		.loc 1 1297 3 view .LVU721
1298:Drivers/lsm303agr/Src/lsm303agr_reg.c **** 
1299:Drivers/lsm303agr/Src/lsm303agr_reg.c ****   ret = lsm303agr_read_reg(ctx, LSM303AGR_OFFSET_X_REG_L_M, buff, 6);
 2893              		.loc 1 1299 3 view .LVU722
 2894              		.loc 1 1299 9 is_stmt 0 view .LVU723
 2895 0006 0623     		movs	r3, #6
 2896 0008 6A46     		mov	r2, sp
 2897 000a 4521     		movs	r1, #69
 2898              	.LVL177:
 2899              		.loc 1 1299 9 view .LVU724
 2900 000c FFF7FEFF 		bl	lsm303agr_read_reg
 2901              	.LVL178:
1300:Drivers/lsm303agr/Src/lsm303agr_reg.c ****   val[0] = (int16_t)buff[1];
 2902              		.loc 1 1300 3 is_stmt 1 view .LVU725
ARM GAS  C:\Users\SF\AppData\Local\Temp\ccFGOSN0.s 			page 76


 2903              		.loc 1 1300 12 is_stmt 0 view .LVU726
 2904 0010 9DF80120 		ldrb	r2, [sp, #1]	@ zero_extendqisi2
 2905              		.loc 1 1300 10 view .LVU727
 2906 0014 2280     		strh	r2, [r4]	@ movhi
1301:Drivers/lsm303agr/Src/lsm303agr_reg.c ****   val[0] = (val[0] * 256) + (int16_t)buff[0];
 2907              		.loc 1 1301 3 is_stmt 1 view .LVU728
 2908              		.loc 1 1301 42 is_stmt 0 view .LVU729
 2909 0016 9DF80030 		ldrb	r3, [sp]	@ zero_extendqisi2
 2910              		.loc 1 1301 27 view .LVU730
 2911 001a 03EB0223 		add	r3, r3, r2, lsl #8
 2912              		.loc 1 1301 10 view .LVU731
 2913 001e 2380     		strh	r3, [r4]	@ movhi
1302:Drivers/lsm303agr/Src/lsm303agr_reg.c ****   val[1] = (int16_t)buff[3];
 2914              		.loc 1 1302 3 is_stmt 1 view .LVU732
 2915              		.loc 1 1302 12 is_stmt 0 view .LVU733
 2916 0020 9DF80320 		ldrb	r2, [sp, #3]	@ zero_extendqisi2
 2917              		.loc 1 1302 10 view .LVU734
 2918 0024 6280     		strh	r2, [r4, #2]	@ movhi
1303:Drivers/lsm303agr/Src/lsm303agr_reg.c ****   val[1] = (val[1] * 256) + (int16_t)buff[2];
 2919              		.loc 1 1303 3 is_stmt 1 view .LVU735
 2920              		.loc 1 1303 42 is_stmt 0 view .LVU736
 2921 0026 9DF80230 		ldrb	r3, [sp, #2]	@ zero_extendqisi2
 2922              		.loc 1 1303 27 view .LVU737
 2923 002a 03EB0223 		add	r3, r3, r2, lsl #8
 2924              		.loc 1 1303 10 view .LVU738
 2925 002e 6380     		strh	r3, [r4, #2]	@ movhi
1304:Drivers/lsm303agr/Src/lsm303agr_reg.c ****   val[2] = (int16_t)buff[5];
 2926              		.loc 1 1304 3 is_stmt 1 view .LVU739
 2927              		.loc 1 1304 12 is_stmt 0 view .LVU740
 2928 0030 9DF80520 		ldrb	r2, [sp, #5]	@ zero_extendqisi2
 2929              		.loc 1 1304 10 view .LVU741
 2930 0034 A280     		strh	r2, [r4, #4]	@ movhi
1305:Drivers/lsm303agr/Src/lsm303agr_reg.c ****   val[2] = (val[2] * 256) + (int16_t)buff[4];
 2931              		.loc 1 1305 3 is_stmt 1 view .LVU742
 2932              		.loc 1 1305 42 is_stmt 0 view .LVU743
 2933 0036 9DF80430 		ldrb	r3, [sp, #4]	@ zero_extendqisi2
 2934              		.loc 1 1305 27 view .LVU744
 2935 003a 03EB0223 		add	r3, r3, r2, lsl #8
 2936              		.loc 1 1305 10 view .LVU745
 2937 003e A380     		strh	r3, [r4, #4]	@ movhi
1306:Drivers/lsm303agr/Src/lsm303agr_reg.c **** 
1307:Drivers/lsm303agr/Src/lsm303agr_reg.c ****   return ret;
 2938              		.loc 1 1307 3 is_stmt 1 view .LVU746
1308:Drivers/lsm303agr/Src/lsm303agr_reg.c **** }
 2939              		.loc 1 1308 1 is_stmt 0 view .LVU747
 2940 0040 02B0     		add	sp, sp, #8
 2941              	.LCFI99:
 2942              		.cfi_def_cfa_offset 8
 2943              		@ sp needed
 2944 0042 10BD     		pop	{r4, pc}
 2945              		.loc 1 1308 1 view .LVU748
 2946              		.cfi_endproc
 2947              	.LFE182:
 2949              		.section	.text.lsm303agr_mag_operating_mode_set,"ax",%progbits
 2950              		.align	1
 2951              		.global	lsm303agr_mag_operating_mode_set
 2952              		.syntax unified
ARM GAS  C:\Users\SF\AppData\Local\Temp\ccFGOSN0.s 			page 77


 2953              		.thumb
 2954              		.thumb_func
 2956              	lsm303agr_mag_operating_mode_set:
 2957              	.LVL179:
 2958              	.LFB183:
1309:Drivers/lsm303agr/Src/lsm303agr_reg.c **** 
1310:Drivers/lsm303agr/Src/lsm303agr_reg.c **** /**
1311:Drivers/lsm303agr/Src/lsm303agr_reg.c ****   * @brief  Operating mode selection.[set]
1312:Drivers/lsm303agr/Src/lsm303agr_reg.c ****   *
1313:Drivers/lsm303agr/Src/lsm303agr_reg.c ****   * @param  ctx    Read / write interface definitions.(ptr)
1314:Drivers/lsm303agr/Src/lsm303agr_reg.c ****   * @param  val    Change the values of md in reg CFG_REG_A_M
1315:Drivers/lsm303agr/Src/lsm303agr_reg.c ****   * @retval        Interface status (MANDATORY: return 0 -> no Error).
1316:Drivers/lsm303agr/Src/lsm303agr_reg.c ****   *
1317:Drivers/lsm303agr/Src/lsm303agr_reg.c ****   */
1318:Drivers/lsm303agr/Src/lsm303agr_reg.c **** int32_t lsm303agr_mag_operating_mode_set(stmdev_ctx_t *ctx,
1319:Drivers/lsm303agr/Src/lsm303agr_reg.c ****                                          lsm303agr_md_m_t val)
1320:Drivers/lsm303agr/Src/lsm303agr_reg.c **** {
 2959              		.loc 1 1320 1 is_stmt 1 view -0
 2960              		.cfi_startproc
 2961              		@ args = 0, pretend = 0, frame = 8
 2962              		@ frame_needed = 0, uses_anonymous_args = 0
 2963              		.loc 1 1320 1 is_stmt 0 view .LVU750
 2964 0000 30B5     		push	{r4, r5, lr}
 2965              	.LCFI100:
 2966              		.cfi_def_cfa_offset 12
 2967              		.cfi_offset 4, -12
 2968              		.cfi_offset 5, -8
 2969              		.cfi_offset 14, -4
 2970 0002 83B0     		sub	sp, sp, #12
 2971              	.LCFI101:
 2972              		.cfi_def_cfa_offset 24
 2973 0004 0446     		mov	r4, r0
 2974 0006 0D46     		mov	r5, r1
1321:Drivers/lsm303agr/Src/lsm303agr_reg.c ****   lsm303agr_cfg_reg_a_m_t cfg_reg_a_m;
 2975              		.loc 1 1321 3 is_stmt 1 view .LVU751
1322:Drivers/lsm303agr/Src/lsm303agr_reg.c ****   int32_t ret;
 2976              		.loc 1 1322 3 view .LVU752
1323:Drivers/lsm303agr/Src/lsm303agr_reg.c **** 
1324:Drivers/lsm303agr/Src/lsm303agr_reg.c ****   ret = lsm303agr_read_reg(ctx, LSM303AGR_CFG_REG_A_M,
 2977              		.loc 1 1324 3 view .LVU753
 2978              		.loc 1 1324 9 is_stmt 0 view .LVU754
 2979 0008 0123     		movs	r3, #1
 2980 000a 01AA     		add	r2, sp, #4
 2981 000c 6021     		movs	r1, #96
 2982              	.LVL180:
 2983              		.loc 1 1324 9 view .LVU755
 2984 000e FFF7FEFF 		bl	lsm303agr_read_reg
 2985              	.LVL181:
1325:Drivers/lsm303agr/Src/lsm303agr_reg.c ****                            (uint8_t *)&cfg_reg_a_m, 1);
1326:Drivers/lsm303agr/Src/lsm303agr_reg.c **** 
1327:Drivers/lsm303agr/Src/lsm303agr_reg.c ****   if (ret == 0)
 2986              		.loc 1 1327 3 is_stmt 1 view .LVU756
 2987              		.loc 1 1327 6 is_stmt 0 view .LVU757
 2988 0012 08B1     		cbz	r0, .L190
 2989              	.LVL182:
 2990              	.L187:
1328:Drivers/lsm303agr/Src/lsm303agr_reg.c ****   {
ARM GAS  C:\Users\SF\AppData\Local\Temp\ccFGOSN0.s 			page 78


1329:Drivers/lsm303agr/Src/lsm303agr_reg.c ****     cfg_reg_a_m.md = (uint8_t)val;
1330:Drivers/lsm303agr/Src/lsm303agr_reg.c ****     ret = lsm303agr_write_reg(ctx, LSM303AGR_CFG_REG_A_M,
1331:Drivers/lsm303agr/Src/lsm303agr_reg.c ****                               (uint8_t *)&cfg_reg_a_m, 1);
1332:Drivers/lsm303agr/Src/lsm303agr_reg.c ****   }
1333:Drivers/lsm303agr/Src/lsm303agr_reg.c **** 
1334:Drivers/lsm303agr/Src/lsm303agr_reg.c ****   return ret;
1335:Drivers/lsm303agr/Src/lsm303agr_reg.c **** }
 2991              		.loc 1 1335 1 view .LVU758
 2992 0014 03B0     		add	sp, sp, #12
 2993              	.LCFI102:
 2994              		.cfi_remember_state
 2995              		.cfi_def_cfa_offset 12
 2996              		@ sp needed
 2997 0016 30BD     		pop	{r4, r5, pc}
 2998              	.LVL183:
 2999              	.L190:
 3000              	.LCFI103:
 3001              		.cfi_restore_state
1329:Drivers/lsm303agr/Src/lsm303agr_reg.c ****     ret = lsm303agr_write_reg(ctx, LSM303AGR_CFG_REG_A_M,
 3002              		.loc 1 1329 5 is_stmt 1 view .LVU759
1329:Drivers/lsm303agr/Src/lsm303agr_reg.c ****     ret = lsm303agr_write_reg(ctx, LSM303AGR_CFG_REG_A_M,
 3003              		.loc 1 1329 20 is_stmt 0 view .LVU760
 3004 0018 9DF80430 		ldrb	r3, [sp, #4]	@ zero_extendqisi2
 3005 001c 65F30103 		bfi	r3, r5, #0, #2
 3006 0020 8DF80430 		strb	r3, [sp, #4]
1330:Drivers/lsm303agr/Src/lsm303agr_reg.c ****                               (uint8_t *)&cfg_reg_a_m, 1);
 3007              		.loc 1 1330 5 is_stmt 1 view .LVU761
1330:Drivers/lsm303agr/Src/lsm303agr_reg.c ****                               (uint8_t *)&cfg_reg_a_m, 1);
 3008              		.loc 1 1330 11 is_stmt 0 view .LVU762
 3009 0024 0123     		movs	r3, #1
 3010              	.LVL184:
1330:Drivers/lsm303agr/Src/lsm303agr_reg.c ****                               (uint8_t *)&cfg_reg_a_m, 1);
 3011              		.loc 1 1330 11 view .LVU763
 3012 0026 01AA     		add	r2, sp, #4
 3013 0028 6021     		movs	r1, #96
 3014 002a 2046     		mov	r0, r4
 3015 002c FFF7FEFF 		bl	lsm303agr_write_reg
 3016              	.LVL185:
1334:Drivers/lsm303agr/Src/lsm303agr_reg.c **** }
 3017              		.loc 1 1334 3 is_stmt 1 view .LVU764
1334:Drivers/lsm303agr/Src/lsm303agr_reg.c **** }
 3018              		.loc 1 1334 10 is_stmt 0 view .LVU765
 3019 0030 F0E7     		b	.L187
 3020              		.cfi_endproc
 3021              	.LFE183:
 3023              		.section	.text.lsm303agr_mag_operating_mode_get,"ax",%progbits
 3024              		.align	1
 3025              		.global	lsm303agr_mag_operating_mode_get
 3026              		.syntax unified
 3027              		.thumb
 3028              		.thumb_func
 3030              	lsm303agr_mag_operating_mode_get:
 3031              	.LVL186:
 3032              	.LFB184:
1336:Drivers/lsm303agr/Src/lsm303agr_reg.c **** 
1337:Drivers/lsm303agr/Src/lsm303agr_reg.c **** /**
1338:Drivers/lsm303agr/Src/lsm303agr_reg.c ****   * @brief  Operating mode selection.[get]
ARM GAS  C:\Users\SF\AppData\Local\Temp\ccFGOSN0.s 			page 79


1339:Drivers/lsm303agr/Src/lsm303agr_reg.c ****   *
1340:Drivers/lsm303agr/Src/lsm303agr_reg.c ****   * @param  ctx    Read / write interface definitions.(ptr)
1341:Drivers/lsm303agr/Src/lsm303agr_reg.c ****   * @param  val    Get the values of md in reg CFG_REG_A_M.(ptr)
1342:Drivers/lsm303agr/Src/lsm303agr_reg.c ****   * @retval        Interface status (MANDATORY: return 0 -> no Error).
1343:Drivers/lsm303agr/Src/lsm303agr_reg.c ****   *
1344:Drivers/lsm303agr/Src/lsm303agr_reg.c ****   */
1345:Drivers/lsm303agr/Src/lsm303agr_reg.c **** int32_t lsm303agr_mag_operating_mode_get(stmdev_ctx_t *ctx,
1346:Drivers/lsm303agr/Src/lsm303agr_reg.c ****                                          lsm303agr_md_m_t *val)
1347:Drivers/lsm303agr/Src/lsm303agr_reg.c **** {
 3033              		.loc 1 1347 1 is_stmt 1 view -0
 3034              		.cfi_startproc
 3035              		@ args = 0, pretend = 0, frame = 8
 3036              		@ frame_needed = 0, uses_anonymous_args = 0
 3037              		.loc 1 1347 1 is_stmt 0 view .LVU767
 3038 0000 10B5     		push	{r4, lr}
 3039              	.LCFI104:
 3040              		.cfi_def_cfa_offset 8
 3041              		.cfi_offset 4, -8
 3042              		.cfi_offset 14, -4
 3043 0002 82B0     		sub	sp, sp, #8
 3044              	.LCFI105:
 3045              		.cfi_def_cfa_offset 16
 3046 0004 0C46     		mov	r4, r1
1348:Drivers/lsm303agr/Src/lsm303agr_reg.c ****   lsm303agr_cfg_reg_a_m_t cfg_reg_a_m;
 3047              		.loc 1 1348 3 is_stmt 1 view .LVU768
1349:Drivers/lsm303agr/Src/lsm303agr_reg.c ****   int32_t ret;
 3048              		.loc 1 1349 3 view .LVU769
1350:Drivers/lsm303agr/Src/lsm303agr_reg.c **** 
1351:Drivers/lsm303agr/Src/lsm303agr_reg.c ****   ret = lsm303agr_read_reg(ctx, LSM303AGR_CFG_REG_A_M,
 3049              		.loc 1 1351 3 view .LVU770
 3050              		.loc 1 1351 9 is_stmt 0 view .LVU771
 3051 0006 0123     		movs	r3, #1
 3052 0008 01AA     		add	r2, sp, #4
 3053 000a 6021     		movs	r1, #96
 3054              	.LVL187:
 3055              		.loc 1 1351 9 view .LVU772
 3056 000c FFF7FEFF 		bl	lsm303agr_read_reg
 3057              	.LVL188:
1352:Drivers/lsm303agr/Src/lsm303agr_reg.c ****                            (uint8_t *)&cfg_reg_a_m, 1);
1353:Drivers/lsm303agr/Src/lsm303agr_reg.c **** 
1354:Drivers/lsm303agr/Src/lsm303agr_reg.c ****   switch (cfg_reg_a_m.md)
 3058              		.loc 1 1354 3 is_stmt 1 view .LVU773
 3059              		.loc 1 1354 22 is_stmt 0 view .LVU774
 3060 0010 9DF80430 		ldrb	r3, [sp, #4]	@ zero_extendqisi2
 3061 0014 03F00303 		and	r3, r3, #3
 3062              		.loc 1 1354 3 view .LVU775
 3063 0018 012B     		cmp	r3, #1
 3064 001a 08D0     		beq	.L192
 3065 001c 022B     		cmp	r3, #2
 3066 001e 09D0     		beq	.L193
 3067 0020 13B1     		cbz	r3, .L197
1355:Drivers/lsm303agr/Src/lsm303agr_reg.c ****   {
1356:Drivers/lsm303agr/Src/lsm303agr_reg.c ****     case LSM303AGR_CONTINUOUS_MODE:
1357:Drivers/lsm303agr/Src/lsm303agr_reg.c ****       *val = LSM303AGR_CONTINUOUS_MODE;
1358:Drivers/lsm303agr/Src/lsm303agr_reg.c ****       break;
1359:Drivers/lsm303agr/Src/lsm303agr_reg.c **** 
1360:Drivers/lsm303agr/Src/lsm303agr_reg.c ****     case LSM303AGR_SINGLE_TRIGGER:
ARM GAS  C:\Users\SF\AppData\Local\Temp\ccFGOSN0.s 			page 80


1361:Drivers/lsm303agr/Src/lsm303agr_reg.c ****       *val = LSM303AGR_SINGLE_TRIGGER;
1362:Drivers/lsm303agr/Src/lsm303agr_reg.c ****       break;
1363:Drivers/lsm303agr/Src/lsm303agr_reg.c **** 
1364:Drivers/lsm303agr/Src/lsm303agr_reg.c ****     case LSM303AGR_POWER_DOWN:
1365:Drivers/lsm303agr/Src/lsm303agr_reg.c ****       *val = LSM303AGR_POWER_DOWN;
1366:Drivers/lsm303agr/Src/lsm303agr_reg.c ****       break;
1367:Drivers/lsm303agr/Src/lsm303agr_reg.c **** 
1368:Drivers/lsm303agr/Src/lsm303agr_reg.c ****     default:
1369:Drivers/lsm303agr/Src/lsm303agr_reg.c ****       *val = LSM303AGR_CONTINUOUS_MODE;
 3068              		.loc 1 1369 7 is_stmt 1 view .LVU776
 3069              		.loc 1 1369 12 is_stmt 0 view .LVU777
 3070 0022 0023     		movs	r3, #0
 3071 0024 2370     		strb	r3, [r4]
1370:Drivers/lsm303agr/Src/lsm303agr_reg.c ****       break;
 3072              		.loc 1 1370 7 is_stmt 1 view .LVU778
1371:Drivers/lsm303agr/Src/lsm303agr_reg.c ****   }
1372:Drivers/lsm303agr/Src/lsm303agr_reg.c **** 
1373:Drivers/lsm303agr/Src/lsm303agr_reg.c ****   return ret;
 3073              		.loc 1 1373 3 view .LVU779
 3074              		.loc 1 1373 10 is_stmt 0 view .LVU780
 3075 0026 00E0     		b	.L191
 3076              	.L197:
1357:Drivers/lsm303agr/Src/lsm303agr_reg.c ****       break;
 3077              		.loc 1 1357 7 is_stmt 1 view .LVU781
1357:Drivers/lsm303agr/Src/lsm303agr_reg.c ****       break;
 3078              		.loc 1 1357 12 is_stmt 0 view .LVU782
 3079 0028 2370     		strb	r3, [r4]
1358:Drivers/lsm303agr/Src/lsm303agr_reg.c **** 
 3080              		.loc 1 1358 7 is_stmt 1 view .LVU783
 3081              	.L191:
1374:Drivers/lsm303agr/Src/lsm303agr_reg.c **** }
 3082              		.loc 1 1374 1 is_stmt 0 view .LVU784
 3083 002a 02B0     		add	sp, sp, #8
 3084              	.LCFI106:
 3085              		.cfi_remember_state
 3086              		.cfi_def_cfa_offset 8
 3087              		@ sp needed
 3088 002c 10BD     		pop	{r4, pc}
 3089              	.LVL189:
 3090              	.L192:
 3091              	.LCFI107:
 3092              		.cfi_restore_state
1361:Drivers/lsm303agr/Src/lsm303agr_reg.c ****       break;
 3093              		.loc 1 1361 7 is_stmt 1 view .LVU785
1361:Drivers/lsm303agr/Src/lsm303agr_reg.c ****       break;
 3094              		.loc 1 1361 12 is_stmt 0 view .LVU786
 3095 002e 0123     		movs	r3, #1
 3096 0030 2370     		strb	r3, [r4]
1362:Drivers/lsm303agr/Src/lsm303agr_reg.c **** 
 3097              		.loc 1 1362 7 is_stmt 1 view .LVU787
 3098 0032 FAE7     		b	.L191
 3099              	.L193:
1365:Drivers/lsm303agr/Src/lsm303agr_reg.c ****       break;
 3100              		.loc 1 1365 7 view .LVU788
1365:Drivers/lsm303agr/Src/lsm303agr_reg.c ****       break;
 3101              		.loc 1 1365 12 is_stmt 0 view .LVU789
 3102 0034 0223     		movs	r3, #2
ARM GAS  C:\Users\SF\AppData\Local\Temp\ccFGOSN0.s 			page 81


 3103 0036 2370     		strb	r3, [r4]
1366:Drivers/lsm303agr/Src/lsm303agr_reg.c **** 
 3104              		.loc 1 1366 7 is_stmt 1 view .LVU790
 3105 0038 F7E7     		b	.L191
 3106              		.cfi_endproc
 3107              	.LFE184:
 3109              		.section	.text.lsm303agr_mag_data_rate_set,"ax",%progbits
 3110              		.align	1
 3111              		.global	lsm303agr_mag_data_rate_set
 3112              		.syntax unified
 3113              		.thumb
 3114              		.thumb_func
 3116              	lsm303agr_mag_data_rate_set:
 3117              	.LVL190:
 3118              	.LFB185:
1375:Drivers/lsm303agr/Src/lsm303agr_reg.c **** 
1376:Drivers/lsm303agr/Src/lsm303agr_reg.c **** /**
1377:Drivers/lsm303agr/Src/lsm303agr_reg.c ****   * @brief  Output data rate selection.[set]
1378:Drivers/lsm303agr/Src/lsm303agr_reg.c ****   *
1379:Drivers/lsm303agr/Src/lsm303agr_reg.c ****   * @param  ctx    Read / write interface definitions.(ptr)
1380:Drivers/lsm303agr/Src/lsm303agr_reg.c ****   * @param  val    Change the values of odr in reg CFG_REG_A_M
1381:Drivers/lsm303agr/Src/lsm303agr_reg.c ****   * @retval        Interface status (MANDATORY: return 0 -> no Error).
1382:Drivers/lsm303agr/Src/lsm303agr_reg.c ****   *
1383:Drivers/lsm303agr/Src/lsm303agr_reg.c ****   */
1384:Drivers/lsm303agr/Src/lsm303agr_reg.c **** int32_t lsm303agr_mag_data_rate_set(stmdev_ctx_t *ctx,
1385:Drivers/lsm303agr/Src/lsm303agr_reg.c ****                                     lsm303agr_mg_odr_m_t val)
1386:Drivers/lsm303agr/Src/lsm303agr_reg.c **** {
 3119              		.loc 1 1386 1 view -0
 3120              		.cfi_startproc
 3121              		@ args = 0, pretend = 0, frame = 8
 3122              		@ frame_needed = 0, uses_anonymous_args = 0
 3123              		.loc 1 1386 1 is_stmt 0 view .LVU792
 3124 0000 30B5     		push	{r4, r5, lr}
 3125              	.LCFI108:
